ARM GAS  /tmp/ccl1p6uj.s 			page 1


   1              		.cpu cortex-m0
   2              		.arch armv6s-m
   3              		.fpu softvfp
   4              		.eabi_attribute 20, 1
   5              		.eabi_attribute 21, 1
   6              		.eabi_attribute 23, 3
   7              		.eabi_attribute 24, 1
   8              		.eabi_attribute 25, 1
   9              		.eabi_attribute 26, 1
  10              		.eabi_attribute 30, 1
  11              		.eabi_attribute 34, 0
  12              		.eabi_attribute 18, 4
  13              		.file	"main.c"
  14              		.text
  15              	.Ltext0:
  16              		.cfi_sections	.debug_frame
  17              		.section	.text.MX_GPIO_Init,"ax",%progbits
  18              		.align	1
  19              		.syntax unified
  20              		.code	16
  21              		.thumb_func
  23              	MX_GPIO_Init:
  24              	.LFB252:
  25              		.file 1 "Core/Src/main.c"
   1:Core/Src/main.c **** /* USER CODE BEGIN Header */
   2:Core/Src/main.c **** /**
   3:Core/Src/main.c ****   ******************************************************************************
   4:Core/Src/main.c ****   * @file           : main.c
   5:Core/Src/main.c ****   * @brief          : Main program body
   6:Core/Src/main.c ****   ******************************************************************************
   7:Core/Src/main.c ****   * @attention
   8:Core/Src/main.c ****   *
   9:Core/Src/main.c ****   * Copyright (c) 2022 STMicroelectronics.
  10:Core/Src/main.c ****   * All rights reserved.
  11:Core/Src/main.c ****   *
  12:Core/Src/main.c ****   * This software is licensed under terms that can be found in the LICENSE file
  13:Core/Src/main.c ****   * in the root directory of this software component.
  14:Core/Src/main.c ****   * If no LICENSE file comes with this software, it is provided AS-IS.
  15:Core/Src/main.c ****   *
  16:Core/Src/main.c ****   ******************************************************************************
  17:Core/Src/main.c ****   */
  18:Core/Src/main.c **** /* USER CODE END Header */
  19:Core/Src/main.c **** /* Includes ------------------------------------------------------------------*/
  20:Core/Src/main.c **** #include "main.h"
  21:Core/Src/main.c **** 
  22:Core/Src/main.c **** /* Private includes ----------------------------------------------------------*/
  23:Core/Src/main.c **** /* USER CODE BEGIN Includes */
  24:Core/Src/main.c **** #include "servo.h"
  25:Core/Src/main.c **** #include "squeaker.h"
  26:Core/Src/main.c **** #include "stdlib.h"
  27:Core/Src/main.c **** #include "quaternion_lib.h"
  28:Core/Src/main.c **** #include "giro_driver.h"
  29:Core/Src/main.c **** 
  30:Core/Src/main.c **** #include "stm32f0xx_ll_rcc.h"
  31:Core/Src/main.c **** #include "stm32f0xx_ll_system.h"
  32:Core/Src/main.c **** #include "stm32f0xx_ll_bus.h"
  33:Core/Src/main.c **** #include "stm32f0xx_ll_gpio.h"
ARM GAS  /tmp/ccl1p6uj.s 			page 2


  34:Core/Src/main.c **** #include "stm32f0xx_ll_exti.h"
  35:Core/Src/main.c **** #include "stm32f0xx_ll_utils.h"
  36:Core/Src/main.c **** #include "stm32f0xx_ll_cortex.h"
  37:Core/Src/main.c **** /* USER CODE END Includes */
  38:Core/Src/main.c **** 
  39:Core/Src/main.c **** /* Private typedef -----------------------------------------------------------*/
  40:Core/Src/main.c **** /* USER CODE BEGIN PTD */
  41:Core/Src/main.c **** 
  42:Core/Src/main.c **** /* USER CODE END PTD */
  43:Core/Src/main.c **** 
  44:Core/Src/main.c **** /* Private define ------------------------------------------------------------*/
  45:Core/Src/main.c **** /* USER CODE BEGIN PD */
  46:Core/Src/main.c **** /* USER CODE END PD */
  47:Core/Src/main.c **** 
  48:Core/Src/main.c **** /* Private macro -------------------------------------------------------------*/
  49:Core/Src/main.c **** /* USER CODE BEGIN PM */
  50:Core/Src/main.c **** 
  51:Core/Src/main.c **** /* USER CODE END PM */
  52:Core/Src/main.c **** 
  53:Core/Src/main.c **** /* Private variables ---------------------------------------------------------*/
  54:Core/Src/main.c ****  I2C_HandleTypeDef hi2c1;
  55:Core/Src/main.c **** 
  56:Core/Src/main.c **** TIM_HandleTypeDef htim1;
  57:Core/Src/main.c **** TIM_HandleTypeDef htim2;
  58:Core/Src/main.c **** 
  59:Core/Src/main.c **** /* USER CODE BEGIN PV */
  60:Core/Src/main.c **** 
  61:Core/Src/main.c **** /* USER CODE END PV */
  62:Core/Src/main.c **** 
  63:Core/Src/main.c **** /* Private function prototypes -----------------------------------------------*/
  64:Core/Src/main.c **** void SystemClock_Config(void);
  65:Core/Src/main.c **** static void MX_GPIO_Init(void);
  66:Core/Src/main.c **** static void MX_I2C1_Init(void);
  67:Core/Src/main.c **** static void MX_TIM1_Init(void);
  68:Core/Src/main.c **** static void MX_TIM2_Init(void);
  69:Core/Src/main.c **** /* USER CODE BEGIN PFP */
  70:Core/Src/main.c **** 
  71:Core/Src/main.c **** /* USER CODE END PFP */
  72:Core/Src/main.c **** 
  73:Core/Src/main.c **** /* Private user code ---------------------------------------------------------*/
  74:Core/Src/main.c **** /* USER CODE BEGIN 0 */
  75:Core/Src/main.c **** int8_t button_status = 0;
  76:Core/Src/main.c **** 
  77:Core/Src/main.c **** const uint64_t sis_tik_frik = 1000;
  78:Core/Src/main.c **** 
  79:Core/Src/main.c **** uint64_t button_delay_counter = 0;
  80:Core/Src/main.c **** 
  81:Core/Src/main.c **** uint16_t number = 0;
  82:Core/Src/main.c **** 
  83:Core/Src/main.c **** #define BUTTON_DELAY 1
  84:Core/Src/main.c **** 
  85:Core/Src/main.c **** #define BUTTON_PUSH 1
  86:Core/Src/main.c **** 
  87:Core/Src/main.c **** #define BUTTON_PUSHED 1 << 1
  88:Core/Src/main.c **** 
  89:Core/Src/main.c **** /* USER CODE END 0 */
  90:Core/Src/main.c **** 
ARM GAS  /tmp/ccl1p6uj.s 			page 3


  91:Core/Src/main.c **** /**
  92:Core/Src/main.c ****   * @brief  The application entry point.
  93:Core/Src/main.c ****   * @retval int
  94:Core/Src/main.c ****   */
  95:Core/Src/main.c **** int main(void)
  96:Core/Src/main.c **** {
  97:Core/Src/main.c ****   /* USER CODE BEGIN 1 */
  98:Core/Src/main.c **** 
  99:Core/Src/main.c ****   /* USER CODE END 1 */
 100:Core/Src/main.c **** 
 101:Core/Src/main.c ****   /* MCU Configuration--------------------------------------------------------*/
 102:Core/Src/main.c **** 
 103:Core/Src/main.c ****   /* Reset of all peripherals, Initializes the Flash interface and the Systick. */
 104:Core/Src/main.c ****   HAL_Init();
 105:Core/Src/main.c **** 
 106:Core/Src/main.c ****   /* USER CODE BEGIN Init */
 107:Core/Src/main.c **** 
 108:Core/Src/main.c ****   /* USER CODE END Init */
 109:Core/Src/main.c **** 
 110:Core/Src/main.c ****   /* Configure the system clock */
 111:Core/Src/main.c ****   SystemClock_Config();
 112:Core/Src/main.c **** 
 113:Core/Src/main.c ****   /* USER CODE BEGIN SysInit */
 114:Core/Src/main.c ****   /* USER CODE END SysInit */
 115:Core/Src/main.c **** 
 116:Core/Src/main.c ****   /* Initialize all configured peripherals */
 117:Core/Src/main.c ****   MX_GPIO_Init();
 118:Core/Src/main.c ****   MX_I2C1_Init();
 119:Core/Src/main.c ****   MX_TIM1_Init();
 120:Core/Src/main.c ****   MX_TIM2_Init();
 121:Core/Src/main.c ****   /* USER CODE BEGIN 2 */
 122:Core/Src/main.c **** 
 123:Core/Src/main.c ****   LL_GPIO_TogglePin(GPIOC, LL_GPIO_PIN_9);
 124:Core/Src/main.c ****   giro_config(hi2c1);
 125:Core/Src/main.c ****   //LL_GPIO_TogglePin(GPIOC, LL_GPIO_PIN_9);
 126:Core/Src/main.c **** 
 127:Core/Src/main.c ****   htim1.Instance->CCR4 = 0;
 128:Core/Src/main.c ****   htim2.Instance->CCR1 = 10;
 129:Core/Src/main.c ****   htim2.Instance->CCR2 = 10;
 130:Core/Src/main.c ****   htim2.Instance->CCR3 = 10;
 131:Core/Src/main.c **** 
 132:Core/Src/main.c ****   HAL_TIM_PWM_Start (&htim1, TIM_CHANNEL_4);
 133:Core/Src/main.c ****   HAL_TIM_PWM_Start (&htim2, TIM_CHANNEL_1);
 134:Core/Src/main.c ****   HAL_TIM_PWM_Start (&htim2, TIM_CHANNEL_2);
 135:Core/Src/main.c ****   HAL_TIM_PWM_Start (&htim2, TIM_CHANNEL_3);
 136:Core/Src/main.c ****   /* USER CODE END 2 */
 137:Core/Src/main.c **** 
 138:Core/Src/main.c ****   /* Infinite loop */
 139:Core/Src/main.c ****   /* USER CODE BEGIN WHILE */
 140:Core/Src/main.c **** 
 141:Core/Src/main.c ****   //500
 142:Core/Src/main.c ****   //1300
 143:Core/Src/main.c ****   while (1)
 144:Core/Src/main.c ****   {
 145:Core/Src/main.c ****     /* USER CODE END WHILE */
 146:Core/Src/main.c **** 
 147:Core/Src/main.c ****     /* USER CODE BEGIN 3 */
ARM GAS  /tmp/ccl1p6uj.s 			page 4


 148:Core/Src/main.c ****   }
 149:Core/Src/main.c ****   /* USER CODE END 3 */
 150:Core/Src/main.c **** }
 151:Core/Src/main.c **** 
 152:Core/Src/main.c **** /**
 153:Core/Src/main.c ****   * @brief System Clock Configuration
 154:Core/Src/main.c ****   * @retval None
 155:Core/Src/main.c ****   */
 156:Core/Src/main.c **** void SystemClock_Config(void)
 157:Core/Src/main.c **** {
 158:Core/Src/main.c ****   RCC_OscInitTypeDef RCC_OscInitStruct = {0};
 159:Core/Src/main.c ****   RCC_ClkInitTypeDef RCC_ClkInitStruct = {0};
 160:Core/Src/main.c ****   RCC_PeriphCLKInitTypeDef PeriphClkInit = {0};
 161:Core/Src/main.c **** 
 162:Core/Src/main.c ****   /** Initializes the RCC Oscillators according to the specified parameters
 163:Core/Src/main.c ****   * in the RCC_OscInitTypeDef structure.
 164:Core/Src/main.c ****   */
 165:Core/Src/main.c ****   RCC_OscInitStruct.OscillatorType = RCC_OSCILLATORTYPE_HSI|RCC_OSCILLATORTYPE_HSE;
 166:Core/Src/main.c ****   RCC_OscInitStruct.HSEState = RCC_HSE_ON;
 167:Core/Src/main.c ****   RCC_OscInitStruct.HSIState = RCC_HSI_ON;
 168:Core/Src/main.c ****   RCC_OscInitStruct.HSICalibrationValue = RCC_HSICALIBRATION_DEFAULT;
 169:Core/Src/main.c ****   RCC_OscInitStruct.PLL.PLLState = RCC_PLL_ON;
 170:Core/Src/main.c ****   RCC_OscInitStruct.PLL.PLLSource = RCC_PLLSOURCE_HSE;
 171:Core/Src/main.c ****   RCC_OscInitStruct.PLL.PLLMUL = RCC_PLL_MUL6;
 172:Core/Src/main.c ****   RCC_OscInitStruct.PLL.PREDIV = RCC_PREDIV_DIV1;
 173:Core/Src/main.c ****   if (HAL_RCC_OscConfig(&RCC_OscInitStruct) != HAL_OK)
 174:Core/Src/main.c ****   {
 175:Core/Src/main.c ****     Error_Handler();
 176:Core/Src/main.c ****   }
 177:Core/Src/main.c **** 
 178:Core/Src/main.c ****   /** Initializes the CPU, AHB and APB buses clocks
 179:Core/Src/main.c ****   */
 180:Core/Src/main.c ****   RCC_ClkInitStruct.ClockType = RCC_CLOCKTYPE_HCLK|RCC_CLOCKTYPE_SYSCLK
 181:Core/Src/main.c ****                               |RCC_CLOCKTYPE_PCLK1;
 182:Core/Src/main.c ****   RCC_ClkInitStruct.SYSCLKSource = RCC_SYSCLKSOURCE_PLLCLK;
 183:Core/Src/main.c ****   RCC_ClkInitStruct.AHBCLKDivider = RCC_SYSCLK_DIV1;
 184:Core/Src/main.c ****   RCC_ClkInitStruct.APB1CLKDivider = RCC_HCLK_DIV1;
 185:Core/Src/main.c **** 
 186:Core/Src/main.c ****   if (HAL_RCC_ClockConfig(&RCC_ClkInitStruct, FLASH_LATENCY_1) != HAL_OK)
 187:Core/Src/main.c ****   {
 188:Core/Src/main.c ****     Error_Handler();
 189:Core/Src/main.c ****   }
 190:Core/Src/main.c ****   PeriphClkInit.PeriphClockSelection = RCC_PERIPHCLK_I2C1;
 191:Core/Src/main.c ****   PeriphClkInit.I2c1ClockSelection = RCC_I2C1CLKSOURCE_HSI;
 192:Core/Src/main.c ****   if (HAL_RCCEx_PeriphCLKConfig(&PeriphClkInit) != HAL_OK)
 193:Core/Src/main.c ****   {
 194:Core/Src/main.c ****     Error_Handler();
 195:Core/Src/main.c ****   }
 196:Core/Src/main.c **** 
 197:Core/Src/main.c ****   LL_InitTick(48000000, sis_tik_frik);
 198:Core/Src/main.c ****   LL_SYSTICK_EnableIT();
 199:Core/Src/main.c **** }
 200:Core/Src/main.c **** 
 201:Core/Src/main.c **** /**
 202:Core/Src/main.c ****   * @brief I2C1 Initialization Function
 203:Core/Src/main.c ****   * @param None
 204:Core/Src/main.c ****   * @retval None
ARM GAS  /tmp/ccl1p6uj.s 			page 5


 205:Core/Src/main.c ****   */
 206:Core/Src/main.c **** static void MX_I2C1_Init(void)
 207:Core/Src/main.c **** {
 208:Core/Src/main.c **** 
 209:Core/Src/main.c ****   /* USER CODE BEGIN I2C1_Init 0 */
 210:Core/Src/main.c **** 
 211:Core/Src/main.c ****   /* USER CODE END I2C1_Init 0 */
 212:Core/Src/main.c **** 
 213:Core/Src/main.c ****   /* USER CODE BEGIN I2C1_Init 1 */
 214:Core/Src/main.c **** 
 215:Core/Src/main.c ****   /* USER CODE END I2C1_Init 1 */
 216:Core/Src/main.c ****   hi2c1.Instance = I2C1;
 217:Core/Src/main.c ****   hi2c1.Init.Timing = 0x0000020B;
 218:Core/Src/main.c ****   hi2c1.Init.OwnAddress1 = 0;
 219:Core/Src/main.c ****   hi2c1.Init.AddressingMode = I2C_ADDRESSINGMODE_7BIT;
 220:Core/Src/main.c ****   hi2c1.Init.DualAddressMode = I2C_DUALADDRESS_DISABLE;
 221:Core/Src/main.c ****   hi2c1.Init.OwnAddress2 = 0;
 222:Core/Src/main.c ****   hi2c1.Init.OwnAddress2Masks = I2C_OA2_NOMASK;
 223:Core/Src/main.c ****   hi2c1.Init.GeneralCallMode = I2C_GENERALCALL_DISABLE;
 224:Core/Src/main.c ****   hi2c1.Init.NoStretchMode = I2C_NOSTRETCH_DISABLE;
 225:Core/Src/main.c ****   if (HAL_I2C_Init(&hi2c1) != HAL_OK)
 226:Core/Src/main.c ****   {
 227:Core/Src/main.c ****     Error_Handler();
 228:Core/Src/main.c ****   }
 229:Core/Src/main.c **** 
 230:Core/Src/main.c ****   /** Configure Analogue filter
 231:Core/Src/main.c ****   */
 232:Core/Src/main.c ****   if (HAL_I2CEx_ConfigAnalogFilter(&hi2c1, I2C_ANALOGFILTER_ENABLE) != HAL_OK)
 233:Core/Src/main.c ****   {
 234:Core/Src/main.c ****     Error_Handler();
 235:Core/Src/main.c ****   }
 236:Core/Src/main.c **** 
 237:Core/Src/main.c ****   /** Configure Digital filter
 238:Core/Src/main.c ****   */
 239:Core/Src/main.c ****   if (HAL_I2CEx_ConfigDigitalFilter(&hi2c1, 0) != HAL_OK)
 240:Core/Src/main.c ****   {
 241:Core/Src/main.c ****     Error_Handler();
 242:Core/Src/main.c ****   }
 243:Core/Src/main.c ****   /* USER CODE BEGIN I2C1_Init 2 */
 244:Core/Src/main.c **** 
 245:Core/Src/main.c ****   /* USER CODE END I2C1_Init 2 */
 246:Core/Src/main.c **** 
 247:Core/Src/main.c **** }
 248:Core/Src/main.c **** 
 249:Core/Src/main.c **** /**
 250:Core/Src/main.c ****   * @brief TIM1 Initialization Function
 251:Core/Src/main.c ****   * @param None
 252:Core/Src/main.c ****   * @retval None
 253:Core/Src/main.c ****   */
 254:Core/Src/main.c **** static void MX_TIM1_Init(void)
 255:Core/Src/main.c **** {
 256:Core/Src/main.c **** 
 257:Core/Src/main.c ****   /* USER CODE BEGIN TIM1_Init 0 */
 258:Core/Src/main.c **** 
 259:Core/Src/main.c ****   /* USER CODE END TIM1_Init 0 */
 260:Core/Src/main.c **** 
 261:Core/Src/main.c ****   TIM_MasterConfigTypeDef sMasterConfig = {0};
ARM GAS  /tmp/ccl1p6uj.s 			page 6


 262:Core/Src/main.c ****   TIM_OC_InitTypeDef sConfigOC = {0};
 263:Core/Src/main.c ****   TIM_BreakDeadTimeConfigTypeDef sBreakDeadTimeConfig = {0};
 264:Core/Src/main.c **** 
 265:Core/Src/main.c ****   /* USER CODE BEGIN TIM1_Init 1 */
 266:Core/Src/main.c **** 
 267:Core/Src/main.c ****   /* USER CODE END TIM1_Init 1 */
 268:Core/Src/main.c ****   htim1.Instance = TIM1;
 269:Core/Src/main.c ****   htim1.Init.Prescaler = 48;
 270:Core/Src/main.c ****   htim1.Init.CounterMode = TIM_COUNTERMODE_UP;
 271:Core/Src/main.c ****   htim1.Init.Period = 1000;
 272:Core/Src/main.c ****   htim1.Init.ClockDivision = TIM_CLOCKDIVISION_DIV1;
 273:Core/Src/main.c ****   htim1.Init.RepetitionCounter = 0;
 274:Core/Src/main.c ****   htim1.Init.AutoReloadPreload = TIM_AUTORELOAD_PRELOAD_DISABLE;
 275:Core/Src/main.c ****   if (HAL_TIM_PWM_Init(&htim1) != HAL_OK)
 276:Core/Src/main.c ****   {
 277:Core/Src/main.c ****     Error_Handler();
 278:Core/Src/main.c ****   }
 279:Core/Src/main.c ****   sMasterConfig.MasterOutputTrigger = TIM_TRGO_RESET;
 280:Core/Src/main.c ****   sMasterConfig.MasterSlaveMode = TIM_MASTERSLAVEMODE_DISABLE;
 281:Core/Src/main.c ****   if (HAL_TIMEx_MasterConfigSynchronization(&htim1, &sMasterConfig) != HAL_OK)
 282:Core/Src/main.c ****   {
 283:Core/Src/main.c ****     Error_Handler();
 284:Core/Src/main.c ****   }
 285:Core/Src/main.c ****   sConfigOC.OCMode = TIM_OCMODE_PWM1;
 286:Core/Src/main.c ****   sConfigOC.Pulse = 0;
 287:Core/Src/main.c ****   sConfigOC.OCPolarity = TIM_OCPOLARITY_HIGH;
 288:Core/Src/main.c ****   sConfigOC.OCFastMode = TIM_OCFAST_DISABLE;
 289:Core/Src/main.c ****   sConfigOC.OCIdleState = TIM_OCIDLESTATE_RESET;
 290:Core/Src/main.c ****   sConfigOC.OCNIdleState = TIM_OCNIDLESTATE_RESET;
 291:Core/Src/main.c ****   if (HAL_TIM_PWM_ConfigChannel(&htim1, &sConfigOC, TIM_CHANNEL_4) != HAL_OK)
 292:Core/Src/main.c ****   {
 293:Core/Src/main.c ****     Error_Handler();
 294:Core/Src/main.c ****   }
 295:Core/Src/main.c ****   sBreakDeadTimeConfig.OffStateRunMode = TIM_OSSR_DISABLE;
 296:Core/Src/main.c ****   sBreakDeadTimeConfig.OffStateIDLEMode = TIM_OSSI_DISABLE;
 297:Core/Src/main.c ****   sBreakDeadTimeConfig.LockLevel = TIM_LOCKLEVEL_OFF;
 298:Core/Src/main.c ****   sBreakDeadTimeConfig.DeadTime = 0;
 299:Core/Src/main.c ****   sBreakDeadTimeConfig.BreakState = TIM_BREAK_DISABLE;
 300:Core/Src/main.c ****   sBreakDeadTimeConfig.BreakPolarity = TIM_BREAKPOLARITY_HIGH;
 301:Core/Src/main.c ****   sBreakDeadTimeConfig.AutomaticOutput = TIM_AUTOMATICOUTPUT_DISABLE;
 302:Core/Src/main.c ****   if (HAL_TIMEx_ConfigBreakDeadTime(&htim1, &sBreakDeadTimeConfig) != HAL_OK)
 303:Core/Src/main.c ****   {
 304:Core/Src/main.c ****     Error_Handler();
 305:Core/Src/main.c ****   }
 306:Core/Src/main.c ****   /* USER CODE BEGIN TIM1_Init 2 */
 307:Core/Src/main.c **** 
 308:Core/Src/main.c ****   /* USER CODE END TIM1_Init 2 */
 309:Core/Src/main.c ****   HAL_TIM_MspPostInit(&htim1);
 310:Core/Src/main.c **** 
 311:Core/Src/main.c **** }
 312:Core/Src/main.c **** 
 313:Core/Src/main.c **** /**
 314:Core/Src/main.c ****   * @brief TIM2 Initialization Function
 315:Core/Src/main.c ****   * @param None
 316:Core/Src/main.c ****   * @retval None
 317:Core/Src/main.c ****   */
 318:Core/Src/main.c **** static void MX_TIM2_Init(void)
ARM GAS  /tmp/ccl1p6uj.s 			page 7


 319:Core/Src/main.c **** {
 320:Core/Src/main.c **** 
 321:Core/Src/main.c ****   /* USER CODE BEGIN TIM2_Init 0 */
 322:Core/Src/main.c **** 
 323:Core/Src/main.c ****   /* USER CODE END TIM2_Init 0 */
 324:Core/Src/main.c **** 
 325:Core/Src/main.c ****   TIM_MasterConfigTypeDef sMasterConfig = {0};
 326:Core/Src/main.c ****   TIM_OC_InitTypeDef sConfigOC = {0};
 327:Core/Src/main.c **** 
 328:Core/Src/main.c ****   /* USER CODE BEGIN TIM2_Init 1 */
 329:Core/Src/main.c **** 
 330:Core/Src/main.c ****   /* USER CODE END TIM2_Init 1 */
 331:Core/Src/main.c ****   htim2.Instance = TIM2;
 332:Core/Src/main.c ****   htim2.Init.Prescaler = 49;
 333:Core/Src/main.c ****   htim2.Init.CounterMode = TIM_COUNTERMODE_UP;
 334:Core/Src/main.c ****   htim2.Init.Period = 20000;
 335:Core/Src/main.c ****   htim2.Init.ClockDivision = TIM_CLOCKDIVISION_DIV1;
 336:Core/Src/main.c ****   htim2.Init.AutoReloadPreload = TIM_AUTORELOAD_PRELOAD_DISABLE;
 337:Core/Src/main.c ****   if (HAL_TIM_PWM_Init(&htim2) != HAL_OK)
 338:Core/Src/main.c ****   {
 339:Core/Src/main.c ****     Error_Handler();
 340:Core/Src/main.c ****   }
 341:Core/Src/main.c ****   sMasterConfig.MasterOutputTrigger = TIM_TRGO_RESET;
 342:Core/Src/main.c ****   sMasterConfig.MasterSlaveMode = TIM_MASTERSLAVEMODE_DISABLE;
 343:Core/Src/main.c ****   if (HAL_TIMEx_MasterConfigSynchronization(&htim2, &sMasterConfig) != HAL_OK)
 344:Core/Src/main.c ****   {
 345:Core/Src/main.c ****     Error_Handler();
 346:Core/Src/main.c ****   }
 347:Core/Src/main.c ****   sConfigOC.OCMode = TIM_OCMODE_PWM1;
 348:Core/Src/main.c ****   sConfigOC.Pulse = 0;
 349:Core/Src/main.c ****   sConfigOC.OCPolarity = TIM_OCPOLARITY_HIGH;
 350:Core/Src/main.c ****   sConfigOC.OCFastMode = TIM_OCFAST_DISABLE;
 351:Core/Src/main.c ****   if (HAL_TIM_PWM_ConfigChannel(&htim2, &sConfigOC, TIM_CHANNEL_1) != HAL_OK)
 352:Core/Src/main.c ****   {
 353:Core/Src/main.c ****     Error_Handler();
 354:Core/Src/main.c ****   }
 355:Core/Src/main.c ****   if (HAL_TIM_PWM_ConfigChannel(&htim2, &sConfigOC, TIM_CHANNEL_2) != HAL_OK)
 356:Core/Src/main.c ****   {
 357:Core/Src/main.c ****     Error_Handler();
 358:Core/Src/main.c ****   }
 359:Core/Src/main.c ****   if (HAL_TIM_PWM_ConfigChannel(&htim2, &sConfigOC, TIM_CHANNEL_3) != HAL_OK)
 360:Core/Src/main.c ****   {
 361:Core/Src/main.c ****     Error_Handler();
 362:Core/Src/main.c ****   }
 363:Core/Src/main.c ****   /* USER CODE BEGIN TIM2_Init 2 */
 364:Core/Src/main.c **** 
 365:Core/Src/main.c ****   /* USER CODE END TIM2_Init 2 */
 366:Core/Src/main.c ****   HAL_TIM_MspPostInit(&htim2);
 367:Core/Src/main.c **** 
 368:Core/Src/main.c **** }
 369:Core/Src/main.c **** 
 370:Core/Src/main.c **** /**
 371:Core/Src/main.c ****   * @brief GPIO Initialization Function
 372:Core/Src/main.c ****   * @param None
 373:Core/Src/main.c ****   * @retval None
 374:Core/Src/main.c ****   */
 375:Core/Src/main.c **** static void MX_GPIO_Init(void)
ARM GAS  /tmp/ccl1p6uj.s 			page 8


 376:Core/Src/main.c **** {
  26              		.loc 1 376 1 view -0
  27              		.cfi_startproc
  28              		@ args = 0, pretend = 0, frame = 40
  29              		@ frame_needed = 0, uses_anonymous_args = 0
  30 0000 70B5     		push	{r4, r5, r6, lr}
  31              	.LCFI0:
  32              		.cfi_def_cfa_offset 16
  33              		.cfi_offset 4, -16
  34              		.cfi_offset 5, -12
  35              		.cfi_offset 6, -8
  36              		.cfi_offset 14, -4
  37 0002 8AB0     		sub	sp, sp, #40
  38              	.LCFI1:
  39              		.cfi_def_cfa_offset 56
 377:Core/Src/main.c ****   GPIO_InitTypeDef GPIO_InitStruct = {0};
  40              		.loc 1 377 3 view .LVU1
  41              		.loc 1 377 20 is_stmt 0 view .LVU2
  42 0004 1422     		movs	r2, #20
  43 0006 0021     		movs	r1, #0
  44 0008 05A8     		add	r0, sp, #20
  45 000a FFF7FEFF 		bl	memset
  46              	.LVL0:
 378:Core/Src/main.c **** 
 379:Core/Src/main.c ****   /* GPIO Ports Clock Enable */
 380:Core/Src/main.c ****   __HAL_RCC_GPIOF_CLK_ENABLE();
  47              		.loc 1 380 3 is_stmt 1 view .LVU3
  48              	.LBB19:
  49              		.loc 1 380 3 view .LVU4
  50              		.loc 1 380 3 view .LVU5
  51 000e 244C     		ldr	r4, .L2
  52 0010 6269     		ldr	r2, [r4, #20]
  53 0012 8021     		movs	r1, #128
  54 0014 C903     		lsls	r1, r1, #15
  55 0016 0A43     		orrs	r2, r1
  56 0018 6261     		str	r2, [r4, #20]
  57              		.loc 1 380 3 view .LVU6
  58 001a 6369     		ldr	r3, [r4, #20]
  59 001c 0B40     		ands	r3, r1
  60 001e 0193     		str	r3, [sp, #4]
  61              		.loc 1 380 3 view .LVU7
  62 0020 019B     		ldr	r3, [sp, #4]
  63              	.LBE19:
  64              		.loc 1 380 3 view .LVU8
 381:Core/Src/main.c ****   __HAL_RCC_GPIOA_CLK_ENABLE();
  65              		.loc 1 381 3 view .LVU9
  66              	.LBB20:
  67              		.loc 1 381 3 view .LVU10
  68              		.loc 1 381 3 view .LVU11
  69 0022 6269     		ldr	r2, [r4, #20]
  70 0024 8021     		movs	r1, #128
  71 0026 8902     		lsls	r1, r1, #10
  72 0028 0A43     		orrs	r2, r1
  73 002a 6261     		str	r2, [r4, #20]
  74              		.loc 1 381 3 view .LVU12
  75 002c 6369     		ldr	r3, [r4, #20]
  76 002e 0B40     		ands	r3, r1
ARM GAS  /tmp/ccl1p6uj.s 			page 9


  77 0030 0293     		str	r3, [sp, #8]
  78              		.loc 1 381 3 view .LVU13
  79 0032 029B     		ldr	r3, [sp, #8]
  80              	.LBE20:
  81              		.loc 1 381 3 view .LVU14
 382:Core/Src/main.c ****   __HAL_RCC_GPIOB_CLK_ENABLE();
  82              		.loc 1 382 3 view .LVU15
  83              	.LBB21:
  84              		.loc 1 382 3 view .LVU16
  85              		.loc 1 382 3 view .LVU17
  86 0034 6369     		ldr	r3, [r4, #20]
  87 0036 8026     		movs	r6, #128
  88 0038 F602     		lsls	r6, r6, #11
  89 003a 3343     		orrs	r3, r6
  90 003c 6361     		str	r3, [r4, #20]
  91              		.loc 1 382 3 view .LVU18
  92 003e 6369     		ldr	r3, [r4, #20]
  93 0040 3340     		ands	r3, r6
  94 0042 0393     		str	r3, [sp, #12]
  95              		.loc 1 382 3 view .LVU19
  96 0044 039B     		ldr	r3, [sp, #12]
  97              	.LBE21:
  98              		.loc 1 382 3 view .LVU20
 383:Core/Src/main.c **** 
 384:Core/Src/main.c ****   /*Configure GPIO pin : PA3 */
 385:Core/Src/main.c ****   GPIO_InitStruct.Pin = GPIO_PIN_3;
  99              		.loc 1 385 3 view .LVU21
 100              		.loc 1 385 23 is_stmt 0 view .LVU22
 101 0046 0823     		movs	r3, #8
 102 0048 0593     		str	r3, [sp, #20]
 386:Core/Src/main.c ****   GPIO_InitStruct.Mode = GPIO_MODE_IT_FALLING;
 103              		.loc 1 386 3 is_stmt 1 view .LVU23
 104              		.loc 1 386 24 is_stmt 0 view .LVU24
 105 004a 8423     		movs	r3, #132
 106 004c 9B03     		lsls	r3, r3, #14
 107 004e 0693     		str	r3, [sp, #24]
 387:Core/Src/main.c ****   GPIO_InitStruct.Pull = GPIO_PULLUP;
 108              		.loc 1 387 3 is_stmt 1 view .LVU25
 109              		.loc 1 387 24 is_stmt 0 view .LVU26
 110 0050 0123     		movs	r3, #1
 111 0052 0793     		str	r3, [sp, #28]
 388:Core/Src/main.c ****   HAL_GPIO_Init(GPIOA, &GPIO_InitStruct);
 112              		.loc 1 388 3 is_stmt 1 view .LVU27
 113 0054 9025     		movs	r5, #144
 114 0056 ED05     		lsls	r5, r5, #23
 115 0058 05A9     		add	r1, sp, #20
 116 005a 2800     		movs	r0, r5
 117 005c FFF7FEFF 		bl	HAL_GPIO_Init
 118              	.LVL1:
 389:Core/Src/main.c **** 
 390:Core/Src/main.c ****   /* EXTI interrupt init*/
 391:Core/Src/main.c ****   HAL_NVIC_SetPriority(EXTI2_3_IRQn, 0, 0);
 119              		.loc 1 391 3 view .LVU28
 120 0060 0022     		movs	r2, #0
 121 0062 0021     		movs	r1, #0
 122 0064 0620     		movs	r0, #6
 123 0066 FFF7FEFF 		bl	HAL_NVIC_SetPriority
ARM GAS  /tmp/ccl1p6uj.s 			page 10


 124              	.LVL2:
 392:Core/Src/main.c ****   HAL_NVIC_EnableIRQ(EXTI2_3_IRQn);
 125              		.loc 1 392 3 view .LVU29
 126 006a 0620     		movs	r0, #6
 127 006c FFF7FEFF 		bl	HAL_NVIC_EnableIRQ
 128              	.LVL3:
 393:Core/Src/main.c **** 
 394:Core/Src/main.c ****   LL_AHB1_GRP1_EnableClock(LL_AHB1_GRP1_PERIPH_GPIOC);
 129              		.loc 1 394 3 view .LVU30
 130              	.LBB22:
 131              	.LBI22:
 132              		.file 2 "Drivers/STM32F0xx_HAL_Driver/Inc/stm32f0xx_ll_bus.h"
   1:Drivers/STM32F0xx_HAL_Driver/Inc/stm32f0xx_ll_bus.h **** /**
   2:Drivers/STM32F0xx_HAL_Driver/Inc/stm32f0xx_ll_bus.h ****   ******************************************************************************
   3:Drivers/STM32F0xx_HAL_Driver/Inc/stm32f0xx_ll_bus.h ****   * @file    stm32f0xx_ll_bus.h
   4:Drivers/STM32F0xx_HAL_Driver/Inc/stm32f0xx_ll_bus.h ****   * @author  MCD Application Team
   5:Drivers/STM32F0xx_HAL_Driver/Inc/stm32f0xx_ll_bus.h ****   * @brief   Header file of BUS LL module.
   6:Drivers/STM32F0xx_HAL_Driver/Inc/stm32f0xx_ll_bus.h **** 
   7:Drivers/STM32F0xx_HAL_Driver/Inc/stm32f0xx_ll_bus.h ****   @verbatim                
   8:Drivers/STM32F0xx_HAL_Driver/Inc/stm32f0xx_ll_bus.h ****                       ##### RCC Limitations #####
   9:Drivers/STM32F0xx_HAL_Driver/Inc/stm32f0xx_ll_bus.h ****   ==============================================================================
  10:Drivers/STM32F0xx_HAL_Driver/Inc/stm32f0xx_ll_bus.h ****     [..]  
  11:Drivers/STM32F0xx_HAL_Driver/Inc/stm32f0xx_ll_bus.h ****       A delay between an RCC peripheral clock enable and the effective peripheral 
  12:Drivers/STM32F0xx_HAL_Driver/Inc/stm32f0xx_ll_bus.h ****       enabling should be taken into account in order to manage the peripheral read/write 
  13:Drivers/STM32F0xx_HAL_Driver/Inc/stm32f0xx_ll_bus.h ****       from/to registers.
  14:Drivers/STM32F0xx_HAL_Driver/Inc/stm32f0xx_ll_bus.h ****       (+) This delay depends on the peripheral mapping.
  15:Drivers/STM32F0xx_HAL_Driver/Inc/stm32f0xx_ll_bus.h ****         (++) AHB & APB peripherals, 1 dummy read is necessary
  16:Drivers/STM32F0xx_HAL_Driver/Inc/stm32f0xx_ll_bus.h **** 
  17:Drivers/STM32F0xx_HAL_Driver/Inc/stm32f0xx_ll_bus.h ****     [..]  
  18:Drivers/STM32F0xx_HAL_Driver/Inc/stm32f0xx_ll_bus.h ****       Workarounds:
  19:Drivers/STM32F0xx_HAL_Driver/Inc/stm32f0xx_ll_bus.h ****       (#) For AHB & APB peripherals, a dummy read to the peripheral register has been
  20:Drivers/STM32F0xx_HAL_Driver/Inc/stm32f0xx_ll_bus.h ****           inserted in each LL_{BUS}_GRP{x}_EnableClock() function.
  21:Drivers/STM32F0xx_HAL_Driver/Inc/stm32f0xx_ll_bus.h **** 
  22:Drivers/STM32F0xx_HAL_Driver/Inc/stm32f0xx_ll_bus.h ****   @endverbatim
  23:Drivers/STM32F0xx_HAL_Driver/Inc/stm32f0xx_ll_bus.h ****   ******************************************************************************
  24:Drivers/STM32F0xx_HAL_Driver/Inc/stm32f0xx_ll_bus.h ****   * @attention
  25:Drivers/STM32F0xx_HAL_Driver/Inc/stm32f0xx_ll_bus.h ****   *
  26:Drivers/STM32F0xx_HAL_Driver/Inc/stm32f0xx_ll_bus.h ****   * <h2><center>&copy; Copyright (c) 2016 STMicroelectronics.
  27:Drivers/STM32F0xx_HAL_Driver/Inc/stm32f0xx_ll_bus.h ****   * All rights reserved.</center></h2>
  28:Drivers/STM32F0xx_HAL_Driver/Inc/stm32f0xx_ll_bus.h ****   *
  29:Drivers/STM32F0xx_HAL_Driver/Inc/stm32f0xx_ll_bus.h ****   * This software component is licensed by ST under BSD 3-Clause license,
  30:Drivers/STM32F0xx_HAL_Driver/Inc/stm32f0xx_ll_bus.h ****   * the "License"; You may not use this file except in compliance with the
  31:Drivers/STM32F0xx_HAL_Driver/Inc/stm32f0xx_ll_bus.h ****   * License. You may obtain a copy of the License at:
  32:Drivers/STM32F0xx_HAL_Driver/Inc/stm32f0xx_ll_bus.h ****   *                        opensource.org/licenses/BSD-3-Clause
  33:Drivers/STM32F0xx_HAL_Driver/Inc/stm32f0xx_ll_bus.h ****   *
  34:Drivers/STM32F0xx_HAL_Driver/Inc/stm32f0xx_ll_bus.h ****   ******************************************************************************
  35:Drivers/STM32F0xx_HAL_Driver/Inc/stm32f0xx_ll_bus.h ****   */
  36:Drivers/STM32F0xx_HAL_Driver/Inc/stm32f0xx_ll_bus.h **** 
  37:Drivers/STM32F0xx_HAL_Driver/Inc/stm32f0xx_ll_bus.h **** /* Define to prevent recursive inclusion -------------------------------------*/
  38:Drivers/STM32F0xx_HAL_Driver/Inc/stm32f0xx_ll_bus.h **** #ifndef __STM32F0xx_LL_BUS_H
  39:Drivers/STM32F0xx_HAL_Driver/Inc/stm32f0xx_ll_bus.h **** #define __STM32F0xx_LL_BUS_H
  40:Drivers/STM32F0xx_HAL_Driver/Inc/stm32f0xx_ll_bus.h **** 
  41:Drivers/STM32F0xx_HAL_Driver/Inc/stm32f0xx_ll_bus.h **** #ifdef __cplusplus
  42:Drivers/STM32F0xx_HAL_Driver/Inc/stm32f0xx_ll_bus.h **** extern "C" {
  43:Drivers/STM32F0xx_HAL_Driver/Inc/stm32f0xx_ll_bus.h **** #endif
  44:Drivers/STM32F0xx_HAL_Driver/Inc/stm32f0xx_ll_bus.h **** 
  45:Drivers/STM32F0xx_HAL_Driver/Inc/stm32f0xx_ll_bus.h **** /* Includes ------------------------------------------------------------------*/
ARM GAS  /tmp/ccl1p6uj.s 			page 11


  46:Drivers/STM32F0xx_HAL_Driver/Inc/stm32f0xx_ll_bus.h **** #include "stm32f0xx.h"
  47:Drivers/STM32F0xx_HAL_Driver/Inc/stm32f0xx_ll_bus.h **** 
  48:Drivers/STM32F0xx_HAL_Driver/Inc/stm32f0xx_ll_bus.h **** /** @addtogroup STM32F0xx_LL_Driver
  49:Drivers/STM32F0xx_HAL_Driver/Inc/stm32f0xx_ll_bus.h ****   * @{
  50:Drivers/STM32F0xx_HAL_Driver/Inc/stm32f0xx_ll_bus.h ****   */
  51:Drivers/STM32F0xx_HAL_Driver/Inc/stm32f0xx_ll_bus.h **** 
  52:Drivers/STM32F0xx_HAL_Driver/Inc/stm32f0xx_ll_bus.h **** #if defined(RCC)
  53:Drivers/STM32F0xx_HAL_Driver/Inc/stm32f0xx_ll_bus.h **** 
  54:Drivers/STM32F0xx_HAL_Driver/Inc/stm32f0xx_ll_bus.h **** /** @defgroup BUS_LL BUS
  55:Drivers/STM32F0xx_HAL_Driver/Inc/stm32f0xx_ll_bus.h ****   * @{
  56:Drivers/STM32F0xx_HAL_Driver/Inc/stm32f0xx_ll_bus.h ****   */
  57:Drivers/STM32F0xx_HAL_Driver/Inc/stm32f0xx_ll_bus.h **** 
  58:Drivers/STM32F0xx_HAL_Driver/Inc/stm32f0xx_ll_bus.h **** /* Private types -------------------------------------------------------------*/
  59:Drivers/STM32F0xx_HAL_Driver/Inc/stm32f0xx_ll_bus.h **** /* Private variables ---------------------------------------------------------*/
  60:Drivers/STM32F0xx_HAL_Driver/Inc/stm32f0xx_ll_bus.h **** 
  61:Drivers/STM32F0xx_HAL_Driver/Inc/stm32f0xx_ll_bus.h **** /* Private constants ---------------------------------------------------------*/
  62:Drivers/STM32F0xx_HAL_Driver/Inc/stm32f0xx_ll_bus.h **** 
  63:Drivers/STM32F0xx_HAL_Driver/Inc/stm32f0xx_ll_bus.h **** /* Private macros ------------------------------------------------------------*/
  64:Drivers/STM32F0xx_HAL_Driver/Inc/stm32f0xx_ll_bus.h **** 
  65:Drivers/STM32F0xx_HAL_Driver/Inc/stm32f0xx_ll_bus.h **** /* Exported types ------------------------------------------------------------*/
  66:Drivers/STM32F0xx_HAL_Driver/Inc/stm32f0xx_ll_bus.h **** /* Exported constants --------------------------------------------------------*/
  67:Drivers/STM32F0xx_HAL_Driver/Inc/stm32f0xx_ll_bus.h **** /** @defgroup BUS_LL_Exported_Constants BUS Exported Constants
  68:Drivers/STM32F0xx_HAL_Driver/Inc/stm32f0xx_ll_bus.h ****   * @{
  69:Drivers/STM32F0xx_HAL_Driver/Inc/stm32f0xx_ll_bus.h ****   */
  70:Drivers/STM32F0xx_HAL_Driver/Inc/stm32f0xx_ll_bus.h **** 
  71:Drivers/STM32F0xx_HAL_Driver/Inc/stm32f0xx_ll_bus.h **** /** @defgroup BUS_LL_EC_AHB1_GRP1_PERIPH  AHB1 GRP1 PERIPH
  72:Drivers/STM32F0xx_HAL_Driver/Inc/stm32f0xx_ll_bus.h ****   * @{
  73:Drivers/STM32F0xx_HAL_Driver/Inc/stm32f0xx_ll_bus.h ****   */
  74:Drivers/STM32F0xx_HAL_Driver/Inc/stm32f0xx_ll_bus.h **** #define LL_AHB1_GRP1_PERIPH_ALL            (uint32_t)0xFFFFFFFFU
  75:Drivers/STM32F0xx_HAL_Driver/Inc/stm32f0xx_ll_bus.h **** #define LL_AHB1_GRP1_PERIPH_DMA1           RCC_AHBENR_DMA1EN
  76:Drivers/STM32F0xx_HAL_Driver/Inc/stm32f0xx_ll_bus.h **** #if defined(DMA2)
  77:Drivers/STM32F0xx_HAL_Driver/Inc/stm32f0xx_ll_bus.h **** #define LL_AHB1_GRP1_PERIPH_DMA2           RCC_AHBENR_DMA2EN
  78:Drivers/STM32F0xx_HAL_Driver/Inc/stm32f0xx_ll_bus.h **** #endif /*DMA2*/
  79:Drivers/STM32F0xx_HAL_Driver/Inc/stm32f0xx_ll_bus.h **** #define LL_AHB1_GRP1_PERIPH_SRAM           RCC_AHBENR_SRAMEN
  80:Drivers/STM32F0xx_HAL_Driver/Inc/stm32f0xx_ll_bus.h **** #define LL_AHB1_GRP1_PERIPH_FLASH          RCC_AHBENR_FLITFEN
  81:Drivers/STM32F0xx_HAL_Driver/Inc/stm32f0xx_ll_bus.h **** #define LL_AHB1_GRP1_PERIPH_CRC            RCC_AHBENR_CRCEN
  82:Drivers/STM32F0xx_HAL_Driver/Inc/stm32f0xx_ll_bus.h **** #define LL_AHB1_GRP1_PERIPH_GPIOA          RCC_AHBENR_GPIOAEN
  83:Drivers/STM32F0xx_HAL_Driver/Inc/stm32f0xx_ll_bus.h **** #define LL_AHB1_GRP1_PERIPH_GPIOB          RCC_AHBENR_GPIOBEN
  84:Drivers/STM32F0xx_HAL_Driver/Inc/stm32f0xx_ll_bus.h **** #define LL_AHB1_GRP1_PERIPH_GPIOC          RCC_AHBENR_GPIOCEN
  85:Drivers/STM32F0xx_HAL_Driver/Inc/stm32f0xx_ll_bus.h **** #if defined(GPIOD)
  86:Drivers/STM32F0xx_HAL_Driver/Inc/stm32f0xx_ll_bus.h **** #define LL_AHB1_GRP1_PERIPH_GPIOD          RCC_AHBENR_GPIODEN
  87:Drivers/STM32F0xx_HAL_Driver/Inc/stm32f0xx_ll_bus.h **** #endif /*GPIOD*/
  88:Drivers/STM32F0xx_HAL_Driver/Inc/stm32f0xx_ll_bus.h **** #if defined(GPIOE)
  89:Drivers/STM32F0xx_HAL_Driver/Inc/stm32f0xx_ll_bus.h **** #define LL_AHB1_GRP1_PERIPH_GPIOE          RCC_AHBENR_GPIOEEN
  90:Drivers/STM32F0xx_HAL_Driver/Inc/stm32f0xx_ll_bus.h **** #endif /*GPIOE*/
  91:Drivers/STM32F0xx_HAL_Driver/Inc/stm32f0xx_ll_bus.h **** #define LL_AHB1_GRP1_PERIPH_GPIOF          RCC_AHBENR_GPIOFEN
  92:Drivers/STM32F0xx_HAL_Driver/Inc/stm32f0xx_ll_bus.h **** #if defined(TSC)
  93:Drivers/STM32F0xx_HAL_Driver/Inc/stm32f0xx_ll_bus.h **** #define LL_AHB1_GRP1_PERIPH_TSC            RCC_AHBENR_TSCEN
  94:Drivers/STM32F0xx_HAL_Driver/Inc/stm32f0xx_ll_bus.h **** #endif /*TSC*/
  95:Drivers/STM32F0xx_HAL_Driver/Inc/stm32f0xx_ll_bus.h **** /**
  96:Drivers/STM32F0xx_HAL_Driver/Inc/stm32f0xx_ll_bus.h ****   * @}
  97:Drivers/STM32F0xx_HAL_Driver/Inc/stm32f0xx_ll_bus.h ****   */
  98:Drivers/STM32F0xx_HAL_Driver/Inc/stm32f0xx_ll_bus.h **** 
  99:Drivers/STM32F0xx_HAL_Driver/Inc/stm32f0xx_ll_bus.h **** /** @defgroup BUS_LL_EC_APB1_GRP1_PERIPH  APB1 GRP1 PERIPH
 100:Drivers/STM32F0xx_HAL_Driver/Inc/stm32f0xx_ll_bus.h ****   * @{
 101:Drivers/STM32F0xx_HAL_Driver/Inc/stm32f0xx_ll_bus.h ****   */
 102:Drivers/STM32F0xx_HAL_Driver/Inc/stm32f0xx_ll_bus.h **** #define LL_APB1_GRP1_PERIPH_ALL            (uint32_t)0xFFFFFFFFU
ARM GAS  /tmp/ccl1p6uj.s 			page 12


 103:Drivers/STM32F0xx_HAL_Driver/Inc/stm32f0xx_ll_bus.h **** #if defined(TIM2)
 104:Drivers/STM32F0xx_HAL_Driver/Inc/stm32f0xx_ll_bus.h **** #define LL_APB1_GRP1_PERIPH_TIM2           RCC_APB1ENR_TIM2EN
 105:Drivers/STM32F0xx_HAL_Driver/Inc/stm32f0xx_ll_bus.h **** #endif /*TIM2*/
 106:Drivers/STM32F0xx_HAL_Driver/Inc/stm32f0xx_ll_bus.h **** #define LL_APB1_GRP1_PERIPH_TIM3           RCC_APB1ENR_TIM3EN
 107:Drivers/STM32F0xx_HAL_Driver/Inc/stm32f0xx_ll_bus.h **** #if defined(TIM6)
 108:Drivers/STM32F0xx_HAL_Driver/Inc/stm32f0xx_ll_bus.h **** #define LL_APB1_GRP1_PERIPH_TIM6           RCC_APB1ENR_TIM6EN
 109:Drivers/STM32F0xx_HAL_Driver/Inc/stm32f0xx_ll_bus.h **** #endif /*TIM6*/
 110:Drivers/STM32F0xx_HAL_Driver/Inc/stm32f0xx_ll_bus.h **** #if defined(TIM7)
 111:Drivers/STM32F0xx_HAL_Driver/Inc/stm32f0xx_ll_bus.h **** #define LL_APB1_GRP1_PERIPH_TIM7           RCC_APB1ENR_TIM7EN
 112:Drivers/STM32F0xx_HAL_Driver/Inc/stm32f0xx_ll_bus.h **** #endif /*TIM7*/
 113:Drivers/STM32F0xx_HAL_Driver/Inc/stm32f0xx_ll_bus.h **** #define LL_APB1_GRP1_PERIPH_TIM14          RCC_APB1ENR_TIM14EN
 114:Drivers/STM32F0xx_HAL_Driver/Inc/stm32f0xx_ll_bus.h **** #define LL_APB1_GRP1_PERIPH_WWDG           RCC_APB1ENR_WWDGEN
 115:Drivers/STM32F0xx_HAL_Driver/Inc/stm32f0xx_ll_bus.h **** #if defined(SPI2)
 116:Drivers/STM32F0xx_HAL_Driver/Inc/stm32f0xx_ll_bus.h **** #define LL_APB1_GRP1_PERIPH_SPI2           RCC_APB1ENR_SPI2EN
 117:Drivers/STM32F0xx_HAL_Driver/Inc/stm32f0xx_ll_bus.h **** #endif /*SPI2*/
 118:Drivers/STM32F0xx_HAL_Driver/Inc/stm32f0xx_ll_bus.h **** #if defined(USART2)
 119:Drivers/STM32F0xx_HAL_Driver/Inc/stm32f0xx_ll_bus.h **** #define LL_APB1_GRP1_PERIPH_USART2         RCC_APB1ENR_USART2EN
 120:Drivers/STM32F0xx_HAL_Driver/Inc/stm32f0xx_ll_bus.h **** #endif /* USART2 */
 121:Drivers/STM32F0xx_HAL_Driver/Inc/stm32f0xx_ll_bus.h **** #if defined(USART3)
 122:Drivers/STM32F0xx_HAL_Driver/Inc/stm32f0xx_ll_bus.h **** #define LL_APB1_GRP1_PERIPH_USART3         RCC_APB1ENR_USART3EN
 123:Drivers/STM32F0xx_HAL_Driver/Inc/stm32f0xx_ll_bus.h **** #endif /* USART3 */
 124:Drivers/STM32F0xx_HAL_Driver/Inc/stm32f0xx_ll_bus.h **** #if defined(USART4)
 125:Drivers/STM32F0xx_HAL_Driver/Inc/stm32f0xx_ll_bus.h **** #define LL_APB1_GRP1_PERIPH_USART4         RCC_APB1ENR_USART4EN
 126:Drivers/STM32F0xx_HAL_Driver/Inc/stm32f0xx_ll_bus.h **** #endif /* USART4 */
 127:Drivers/STM32F0xx_HAL_Driver/Inc/stm32f0xx_ll_bus.h **** #if defined(USART5)
 128:Drivers/STM32F0xx_HAL_Driver/Inc/stm32f0xx_ll_bus.h **** #define LL_APB1_GRP1_PERIPH_USART5         RCC_APB1ENR_USART5EN
 129:Drivers/STM32F0xx_HAL_Driver/Inc/stm32f0xx_ll_bus.h **** #endif /* USART5 */
 130:Drivers/STM32F0xx_HAL_Driver/Inc/stm32f0xx_ll_bus.h **** #define LL_APB1_GRP1_PERIPH_I2C1           RCC_APB1ENR_I2C1EN
 131:Drivers/STM32F0xx_HAL_Driver/Inc/stm32f0xx_ll_bus.h **** #if defined(I2C2)
 132:Drivers/STM32F0xx_HAL_Driver/Inc/stm32f0xx_ll_bus.h **** #define LL_APB1_GRP1_PERIPH_I2C2           RCC_APB1ENR_I2C2EN
 133:Drivers/STM32F0xx_HAL_Driver/Inc/stm32f0xx_ll_bus.h **** #endif /*I2C2*/
 134:Drivers/STM32F0xx_HAL_Driver/Inc/stm32f0xx_ll_bus.h **** #if defined(USB)
 135:Drivers/STM32F0xx_HAL_Driver/Inc/stm32f0xx_ll_bus.h **** #define LL_APB1_GRP1_PERIPH_USB            RCC_APB1ENR_USBEN
 136:Drivers/STM32F0xx_HAL_Driver/Inc/stm32f0xx_ll_bus.h **** #endif /* USB */
 137:Drivers/STM32F0xx_HAL_Driver/Inc/stm32f0xx_ll_bus.h **** #if defined(CAN)
 138:Drivers/STM32F0xx_HAL_Driver/Inc/stm32f0xx_ll_bus.h **** #define LL_APB1_GRP1_PERIPH_CAN            RCC_APB1ENR_CANEN
 139:Drivers/STM32F0xx_HAL_Driver/Inc/stm32f0xx_ll_bus.h **** #endif /*CAN*/
 140:Drivers/STM32F0xx_HAL_Driver/Inc/stm32f0xx_ll_bus.h **** #if defined(CRS)
 141:Drivers/STM32F0xx_HAL_Driver/Inc/stm32f0xx_ll_bus.h **** #define LL_APB1_GRP1_PERIPH_CRS            RCC_APB1ENR_CRSEN
 142:Drivers/STM32F0xx_HAL_Driver/Inc/stm32f0xx_ll_bus.h **** #endif /*CRS*/
 143:Drivers/STM32F0xx_HAL_Driver/Inc/stm32f0xx_ll_bus.h **** #define LL_APB1_GRP1_PERIPH_PWR            RCC_APB1ENR_PWREN
 144:Drivers/STM32F0xx_HAL_Driver/Inc/stm32f0xx_ll_bus.h **** #if defined(DAC)
 145:Drivers/STM32F0xx_HAL_Driver/Inc/stm32f0xx_ll_bus.h **** #define LL_APB1_GRP1_PERIPH_DAC1           RCC_APB1ENR_DACEN
 146:Drivers/STM32F0xx_HAL_Driver/Inc/stm32f0xx_ll_bus.h **** #endif /*DAC*/
 147:Drivers/STM32F0xx_HAL_Driver/Inc/stm32f0xx_ll_bus.h **** #if defined(CEC)
 148:Drivers/STM32F0xx_HAL_Driver/Inc/stm32f0xx_ll_bus.h **** #define LL_APB1_GRP1_PERIPH_CEC            RCC_APB1ENR_CECEN
 149:Drivers/STM32F0xx_HAL_Driver/Inc/stm32f0xx_ll_bus.h **** #endif /*CEC*/
 150:Drivers/STM32F0xx_HAL_Driver/Inc/stm32f0xx_ll_bus.h **** /**
 151:Drivers/STM32F0xx_HAL_Driver/Inc/stm32f0xx_ll_bus.h ****   * @}
 152:Drivers/STM32F0xx_HAL_Driver/Inc/stm32f0xx_ll_bus.h ****   */
 153:Drivers/STM32F0xx_HAL_Driver/Inc/stm32f0xx_ll_bus.h **** 
 154:Drivers/STM32F0xx_HAL_Driver/Inc/stm32f0xx_ll_bus.h **** /** @defgroup BUS_LL_EC_APB1_GRP2_PERIPH  APB1 GRP2 PERIPH
 155:Drivers/STM32F0xx_HAL_Driver/Inc/stm32f0xx_ll_bus.h ****   * @{
 156:Drivers/STM32F0xx_HAL_Driver/Inc/stm32f0xx_ll_bus.h ****   */
 157:Drivers/STM32F0xx_HAL_Driver/Inc/stm32f0xx_ll_bus.h **** #define LL_APB1_GRP2_PERIPH_ALL            (uint32_t)0xFFFFFFFFU
 158:Drivers/STM32F0xx_HAL_Driver/Inc/stm32f0xx_ll_bus.h **** #define LL_APB1_GRP2_PERIPH_SYSCFG         RCC_APB2ENR_SYSCFGEN
 159:Drivers/STM32F0xx_HAL_Driver/Inc/stm32f0xx_ll_bus.h **** #define LL_APB1_GRP2_PERIPH_ADC1           RCC_APB2ENR_ADC1EN
ARM GAS  /tmp/ccl1p6uj.s 			page 13


 160:Drivers/STM32F0xx_HAL_Driver/Inc/stm32f0xx_ll_bus.h **** #if defined(USART8)
 161:Drivers/STM32F0xx_HAL_Driver/Inc/stm32f0xx_ll_bus.h **** #define LL_APB1_GRP2_PERIPH_USART8         RCC_APB2ENR_USART8EN
 162:Drivers/STM32F0xx_HAL_Driver/Inc/stm32f0xx_ll_bus.h **** #endif /*USART8*/
 163:Drivers/STM32F0xx_HAL_Driver/Inc/stm32f0xx_ll_bus.h **** #if defined(USART7)
 164:Drivers/STM32F0xx_HAL_Driver/Inc/stm32f0xx_ll_bus.h **** #define LL_APB1_GRP2_PERIPH_USART7         RCC_APB2ENR_USART7EN
 165:Drivers/STM32F0xx_HAL_Driver/Inc/stm32f0xx_ll_bus.h **** #endif /*USART7*/
 166:Drivers/STM32F0xx_HAL_Driver/Inc/stm32f0xx_ll_bus.h **** #if defined(USART6)
 167:Drivers/STM32F0xx_HAL_Driver/Inc/stm32f0xx_ll_bus.h **** #define LL_APB1_GRP2_PERIPH_USART6         RCC_APB2ENR_USART6EN
 168:Drivers/STM32F0xx_HAL_Driver/Inc/stm32f0xx_ll_bus.h **** #endif /*USART6*/
 169:Drivers/STM32F0xx_HAL_Driver/Inc/stm32f0xx_ll_bus.h **** #define LL_APB1_GRP2_PERIPH_TIM1           RCC_APB2ENR_TIM1EN
 170:Drivers/STM32F0xx_HAL_Driver/Inc/stm32f0xx_ll_bus.h **** #define LL_APB1_GRP2_PERIPH_SPI1           RCC_APB2ENR_SPI1EN
 171:Drivers/STM32F0xx_HAL_Driver/Inc/stm32f0xx_ll_bus.h **** #define LL_APB1_GRP2_PERIPH_USART1         RCC_APB2ENR_USART1EN
 172:Drivers/STM32F0xx_HAL_Driver/Inc/stm32f0xx_ll_bus.h **** #if defined(TIM15)
 173:Drivers/STM32F0xx_HAL_Driver/Inc/stm32f0xx_ll_bus.h **** #define LL_APB1_GRP2_PERIPH_TIM15          RCC_APB2ENR_TIM15EN
 174:Drivers/STM32F0xx_HAL_Driver/Inc/stm32f0xx_ll_bus.h **** #endif /*TIM15*/
 175:Drivers/STM32F0xx_HAL_Driver/Inc/stm32f0xx_ll_bus.h **** #define LL_APB1_GRP2_PERIPH_TIM16          RCC_APB2ENR_TIM16EN
 176:Drivers/STM32F0xx_HAL_Driver/Inc/stm32f0xx_ll_bus.h **** #define LL_APB1_GRP2_PERIPH_TIM17          RCC_APB2ENR_TIM17EN
 177:Drivers/STM32F0xx_HAL_Driver/Inc/stm32f0xx_ll_bus.h **** #define LL_APB1_GRP2_PERIPH_DBGMCU         RCC_APB2ENR_DBGMCUEN
 178:Drivers/STM32F0xx_HAL_Driver/Inc/stm32f0xx_ll_bus.h **** /**
 179:Drivers/STM32F0xx_HAL_Driver/Inc/stm32f0xx_ll_bus.h ****   * @}
 180:Drivers/STM32F0xx_HAL_Driver/Inc/stm32f0xx_ll_bus.h ****   */
 181:Drivers/STM32F0xx_HAL_Driver/Inc/stm32f0xx_ll_bus.h **** 
 182:Drivers/STM32F0xx_HAL_Driver/Inc/stm32f0xx_ll_bus.h **** /**
 183:Drivers/STM32F0xx_HAL_Driver/Inc/stm32f0xx_ll_bus.h ****   * @}
 184:Drivers/STM32F0xx_HAL_Driver/Inc/stm32f0xx_ll_bus.h ****   */
 185:Drivers/STM32F0xx_HAL_Driver/Inc/stm32f0xx_ll_bus.h **** 
 186:Drivers/STM32F0xx_HAL_Driver/Inc/stm32f0xx_ll_bus.h **** /* Exported macro ------------------------------------------------------------*/
 187:Drivers/STM32F0xx_HAL_Driver/Inc/stm32f0xx_ll_bus.h **** /* Exported functions --------------------------------------------------------*/
 188:Drivers/STM32F0xx_HAL_Driver/Inc/stm32f0xx_ll_bus.h **** /** @defgroup BUS_LL_Exported_Functions BUS Exported Functions
 189:Drivers/STM32F0xx_HAL_Driver/Inc/stm32f0xx_ll_bus.h ****   * @{
 190:Drivers/STM32F0xx_HAL_Driver/Inc/stm32f0xx_ll_bus.h ****   */
 191:Drivers/STM32F0xx_HAL_Driver/Inc/stm32f0xx_ll_bus.h **** 
 192:Drivers/STM32F0xx_HAL_Driver/Inc/stm32f0xx_ll_bus.h **** /** @defgroup BUS_LL_EF_AHB1 AHB1
 193:Drivers/STM32F0xx_HAL_Driver/Inc/stm32f0xx_ll_bus.h ****   * @{
 194:Drivers/STM32F0xx_HAL_Driver/Inc/stm32f0xx_ll_bus.h ****   */
 195:Drivers/STM32F0xx_HAL_Driver/Inc/stm32f0xx_ll_bus.h **** 
 196:Drivers/STM32F0xx_HAL_Driver/Inc/stm32f0xx_ll_bus.h **** /**
 197:Drivers/STM32F0xx_HAL_Driver/Inc/stm32f0xx_ll_bus.h ****   * @brief  Enable AHB1 peripherals clock.
 198:Drivers/STM32F0xx_HAL_Driver/Inc/stm32f0xx_ll_bus.h ****   * @rmtoll AHBENR       DMA1EN        LL_AHB1_GRP1_EnableClock\n
 199:Drivers/STM32F0xx_HAL_Driver/Inc/stm32f0xx_ll_bus.h ****   *         AHBENR       DMA2EN        LL_AHB1_GRP1_EnableClock\n
 200:Drivers/STM32F0xx_HAL_Driver/Inc/stm32f0xx_ll_bus.h ****   *         AHBENR       SRAMEN        LL_AHB1_GRP1_EnableClock\n
 201:Drivers/STM32F0xx_HAL_Driver/Inc/stm32f0xx_ll_bus.h ****   *         AHBENR       FLITFEN       LL_AHB1_GRP1_EnableClock\n
 202:Drivers/STM32F0xx_HAL_Driver/Inc/stm32f0xx_ll_bus.h ****   *         AHBENR       CRCEN         LL_AHB1_GRP1_EnableClock\n
 203:Drivers/STM32F0xx_HAL_Driver/Inc/stm32f0xx_ll_bus.h ****   *         AHBENR       GPIOAEN       LL_AHB1_GRP1_EnableClock\n
 204:Drivers/STM32F0xx_HAL_Driver/Inc/stm32f0xx_ll_bus.h ****   *         AHBENR       GPIOBEN       LL_AHB1_GRP1_EnableClock\n
 205:Drivers/STM32F0xx_HAL_Driver/Inc/stm32f0xx_ll_bus.h ****   *         AHBENR       GPIOCEN       LL_AHB1_GRP1_EnableClock\n
 206:Drivers/STM32F0xx_HAL_Driver/Inc/stm32f0xx_ll_bus.h ****   *         AHBENR       GPIODEN       LL_AHB1_GRP1_EnableClock\n
 207:Drivers/STM32F0xx_HAL_Driver/Inc/stm32f0xx_ll_bus.h ****   *         AHBENR       GPIOEEN       LL_AHB1_GRP1_EnableClock\n
 208:Drivers/STM32F0xx_HAL_Driver/Inc/stm32f0xx_ll_bus.h ****   *         AHBENR       GPIOFEN       LL_AHB1_GRP1_EnableClock\n
 209:Drivers/STM32F0xx_HAL_Driver/Inc/stm32f0xx_ll_bus.h ****   *         AHBENR       TSCEN         LL_AHB1_GRP1_EnableClock
 210:Drivers/STM32F0xx_HAL_Driver/Inc/stm32f0xx_ll_bus.h ****   * @param  Periphs This parameter can be a combination of the following values:
 211:Drivers/STM32F0xx_HAL_Driver/Inc/stm32f0xx_ll_bus.h ****   *         @arg @ref LL_AHB1_GRP1_PERIPH_DMA1
 212:Drivers/STM32F0xx_HAL_Driver/Inc/stm32f0xx_ll_bus.h ****   *         @arg @ref LL_AHB1_GRP1_PERIPH_DMA2 (*)
 213:Drivers/STM32F0xx_HAL_Driver/Inc/stm32f0xx_ll_bus.h ****   *         @arg @ref LL_AHB1_GRP1_PERIPH_SRAM
 214:Drivers/STM32F0xx_HAL_Driver/Inc/stm32f0xx_ll_bus.h ****   *         @arg @ref LL_AHB1_GRP1_PERIPH_FLASH
 215:Drivers/STM32F0xx_HAL_Driver/Inc/stm32f0xx_ll_bus.h ****   *         @arg @ref LL_AHB1_GRP1_PERIPH_CRC
 216:Drivers/STM32F0xx_HAL_Driver/Inc/stm32f0xx_ll_bus.h ****   *         @arg @ref LL_AHB1_GRP1_PERIPH_GPIOA
ARM GAS  /tmp/ccl1p6uj.s 			page 14


 217:Drivers/STM32F0xx_HAL_Driver/Inc/stm32f0xx_ll_bus.h ****   *         @arg @ref LL_AHB1_GRP1_PERIPH_GPIOB
 218:Drivers/STM32F0xx_HAL_Driver/Inc/stm32f0xx_ll_bus.h ****   *         @arg @ref LL_AHB1_GRP1_PERIPH_GPIOC
 219:Drivers/STM32F0xx_HAL_Driver/Inc/stm32f0xx_ll_bus.h ****   *         @arg @ref LL_AHB1_GRP1_PERIPH_GPIOD (*)
 220:Drivers/STM32F0xx_HAL_Driver/Inc/stm32f0xx_ll_bus.h ****   *         @arg @ref LL_AHB1_GRP1_PERIPH_GPIOE (*)
 221:Drivers/STM32F0xx_HAL_Driver/Inc/stm32f0xx_ll_bus.h ****   *         @arg @ref LL_AHB1_GRP1_PERIPH_GPIOF
 222:Drivers/STM32F0xx_HAL_Driver/Inc/stm32f0xx_ll_bus.h ****   *         @arg @ref LL_AHB1_GRP1_PERIPH_TSC (*)
 223:Drivers/STM32F0xx_HAL_Driver/Inc/stm32f0xx_ll_bus.h ****   *
 224:Drivers/STM32F0xx_HAL_Driver/Inc/stm32f0xx_ll_bus.h ****   *         (*) value not defined in all devices.
 225:Drivers/STM32F0xx_HAL_Driver/Inc/stm32f0xx_ll_bus.h ****   * @retval None
 226:Drivers/STM32F0xx_HAL_Driver/Inc/stm32f0xx_ll_bus.h **** */
 227:Drivers/STM32F0xx_HAL_Driver/Inc/stm32f0xx_ll_bus.h **** __STATIC_INLINE void LL_AHB1_GRP1_EnableClock(uint32_t Periphs)
 133              		.loc 2 227 22 view .LVU31
 134              	.LBB23:
 228:Drivers/STM32F0xx_HAL_Driver/Inc/stm32f0xx_ll_bus.h **** {
 229:Drivers/STM32F0xx_HAL_Driver/Inc/stm32f0xx_ll_bus.h ****   __IO uint32_t tmpreg;
 135              		.loc 2 229 3 view .LVU32
 230:Drivers/STM32F0xx_HAL_Driver/Inc/stm32f0xx_ll_bus.h ****   SET_BIT(RCC->AHBENR, Periphs);
 136              		.loc 2 230 3 view .LVU33
 137 0070 6269     		ldr	r2, [r4, #20]
 138 0072 8021     		movs	r1, #128
 139 0074 0903     		lsls	r1, r1, #12
 140 0076 0A43     		orrs	r2, r1
 141 0078 6261     		str	r2, [r4, #20]
 231:Drivers/STM32F0xx_HAL_Driver/Inc/stm32f0xx_ll_bus.h ****   /* Delay after an RCC peripheral clock enabling */
 232:Drivers/STM32F0xx_HAL_Driver/Inc/stm32f0xx_ll_bus.h ****   tmpreg = READ_BIT(RCC->AHBENR, Periphs);
 142              		.loc 2 232 3 view .LVU34
 143              		.loc 2 232 12 is_stmt 0 view .LVU35
 144 007a 6369     		ldr	r3, [r4, #20]
 145 007c 0B40     		ands	r3, r1
 146              		.loc 2 232 10 view .LVU36
 147 007e 0493     		str	r3, [sp, #16]
 233:Drivers/STM32F0xx_HAL_Driver/Inc/stm32f0xx_ll_bus.h ****   (void)tmpreg;
 148              		.loc 2 233 3 is_stmt 1 view .LVU37
 149 0080 049B     		ldr	r3, [sp, #16]
 150              	.LVL4:
 151              		.loc 2 233 3 is_stmt 0 view .LVU38
 152              	.LBE23:
 153              	.LBE22:
 395:Core/Src/main.c ****   LL_GPIO_SetPinMode(GPIOA, LL_GPIO_PIN_8, LL_GPIO_MODE_OUTPUT);
 154              		.loc 1 395 3 is_stmt 1 view .LVU39
 155              	.LBB24:
 156              	.LBI24:
 157              		.file 3 "Drivers/STM32F0xx_HAL_Driver/Inc/stm32f0xx_ll_gpio.h"
   1:Drivers/STM32F0xx_HAL_Driver/Inc/stm32f0xx_ll_gpio.h **** /**
   2:Drivers/STM32F0xx_HAL_Driver/Inc/stm32f0xx_ll_gpio.h ****   ******************************************************************************
   3:Drivers/STM32F0xx_HAL_Driver/Inc/stm32f0xx_ll_gpio.h ****   * @file    stm32f0xx_ll_gpio.h
   4:Drivers/STM32F0xx_HAL_Driver/Inc/stm32f0xx_ll_gpio.h ****   * @author  MCD Application Team
   5:Drivers/STM32F0xx_HAL_Driver/Inc/stm32f0xx_ll_gpio.h ****   * @brief   Header file of GPIO LL module.
   6:Drivers/STM32F0xx_HAL_Driver/Inc/stm32f0xx_ll_gpio.h ****   ******************************************************************************
   7:Drivers/STM32F0xx_HAL_Driver/Inc/stm32f0xx_ll_gpio.h ****   * @attention
   8:Drivers/STM32F0xx_HAL_Driver/Inc/stm32f0xx_ll_gpio.h ****   *
   9:Drivers/STM32F0xx_HAL_Driver/Inc/stm32f0xx_ll_gpio.h ****   * <h2><center>&copy; Copyright (c) 2016 STMicroelectronics.
  10:Drivers/STM32F0xx_HAL_Driver/Inc/stm32f0xx_ll_gpio.h ****   * All rights reserved.</center></h2>
  11:Drivers/STM32F0xx_HAL_Driver/Inc/stm32f0xx_ll_gpio.h ****   *
  12:Drivers/STM32F0xx_HAL_Driver/Inc/stm32f0xx_ll_gpio.h ****   * This software component is licensed by ST under BSD 3-Clause license,
  13:Drivers/STM32F0xx_HAL_Driver/Inc/stm32f0xx_ll_gpio.h ****   * the "License"; You may not use this file except in compliance with the
  14:Drivers/STM32F0xx_HAL_Driver/Inc/stm32f0xx_ll_gpio.h ****   * License. You may obtain a copy of the License at:
ARM GAS  /tmp/ccl1p6uj.s 			page 15


  15:Drivers/STM32F0xx_HAL_Driver/Inc/stm32f0xx_ll_gpio.h ****   *                        opensource.org/licenses/BSD-3-Clause
  16:Drivers/STM32F0xx_HAL_Driver/Inc/stm32f0xx_ll_gpio.h ****   *
  17:Drivers/STM32F0xx_HAL_Driver/Inc/stm32f0xx_ll_gpio.h ****   ******************************************************************************
  18:Drivers/STM32F0xx_HAL_Driver/Inc/stm32f0xx_ll_gpio.h ****   */
  19:Drivers/STM32F0xx_HAL_Driver/Inc/stm32f0xx_ll_gpio.h **** 
  20:Drivers/STM32F0xx_HAL_Driver/Inc/stm32f0xx_ll_gpio.h **** /* Define to prevent recursive inclusion -------------------------------------*/
  21:Drivers/STM32F0xx_HAL_Driver/Inc/stm32f0xx_ll_gpio.h **** #ifndef __STM32F0xx_LL_GPIO_H
  22:Drivers/STM32F0xx_HAL_Driver/Inc/stm32f0xx_ll_gpio.h **** #define __STM32F0xx_LL_GPIO_H
  23:Drivers/STM32F0xx_HAL_Driver/Inc/stm32f0xx_ll_gpio.h **** 
  24:Drivers/STM32F0xx_HAL_Driver/Inc/stm32f0xx_ll_gpio.h **** #ifdef __cplusplus
  25:Drivers/STM32F0xx_HAL_Driver/Inc/stm32f0xx_ll_gpio.h **** extern "C" {
  26:Drivers/STM32F0xx_HAL_Driver/Inc/stm32f0xx_ll_gpio.h **** #endif
  27:Drivers/STM32F0xx_HAL_Driver/Inc/stm32f0xx_ll_gpio.h **** 
  28:Drivers/STM32F0xx_HAL_Driver/Inc/stm32f0xx_ll_gpio.h **** /* Includes ------------------------------------------------------------------*/
  29:Drivers/STM32F0xx_HAL_Driver/Inc/stm32f0xx_ll_gpio.h **** #include "stm32f0xx.h"
  30:Drivers/STM32F0xx_HAL_Driver/Inc/stm32f0xx_ll_gpio.h **** 
  31:Drivers/STM32F0xx_HAL_Driver/Inc/stm32f0xx_ll_gpio.h **** /** @addtogroup STM32F0xx_LL_Driver
  32:Drivers/STM32F0xx_HAL_Driver/Inc/stm32f0xx_ll_gpio.h ****   * @{
  33:Drivers/STM32F0xx_HAL_Driver/Inc/stm32f0xx_ll_gpio.h ****   */
  34:Drivers/STM32F0xx_HAL_Driver/Inc/stm32f0xx_ll_gpio.h **** 
  35:Drivers/STM32F0xx_HAL_Driver/Inc/stm32f0xx_ll_gpio.h **** #if defined (GPIOA) || defined (GPIOB) || defined (GPIOC) || defined (GPIOD) || defined (GPIOE) || 
  36:Drivers/STM32F0xx_HAL_Driver/Inc/stm32f0xx_ll_gpio.h **** 
  37:Drivers/STM32F0xx_HAL_Driver/Inc/stm32f0xx_ll_gpio.h **** /** @defgroup GPIO_LL GPIO
  38:Drivers/STM32F0xx_HAL_Driver/Inc/stm32f0xx_ll_gpio.h ****   * @{
  39:Drivers/STM32F0xx_HAL_Driver/Inc/stm32f0xx_ll_gpio.h ****   */
  40:Drivers/STM32F0xx_HAL_Driver/Inc/stm32f0xx_ll_gpio.h **** 
  41:Drivers/STM32F0xx_HAL_Driver/Inc/stm32f0xx_ll_gpio.h **** /* Private types -------------------------------------------------------------*/
  42:Drivers/STM32F0xx_HAL_Driver/Inc/stm32f0xx_ll_gpio.h **** /* Private variables ---------------------------------------------------------*/
  43:Drivers/STM32F0xx_HAL_Driver/Inc/stm32f0xx_ll_gpio.h **** /* Private constants ---------------------------------------------------------*/
  44:Drivers/STM32F0xx_HAL_Driver/Inc/stm32f0xx_ll_gpio.h **** /* Private macros ------------------------------------------------------------*/
  45:Drivers/STM32F0xx_HAL_Driver/Inc/stm32f0xx_ll_gpio.h **** #if defined(USE_FULL_LL_DRIVER)
  46:Drivers/STM32F0xx_HAL_Driver/Inc/stm32f0xx_ll_gpio.h **** /** @defgroup GPIO_LL_Private_Macros GPIO Private Macros
  47:Drivers/STM32F0xx_HAL_Driver/Inc/stm32f0xx_ll_gpio.h ****   * @{
  48:Drivers/STM32F0xx_HAL_Driver/Inc/stm32f0xx_ll_gpio.h ****   */
  49:Drivers/STM32F0xx_HAL_Driver/Inc/stm32f0xx_ll_gpio.h **** 
  50:Drivers/STM32F0xx_HAL_Driver/Inc/stm32f0xx_ll_gpio.h **** /**
  51:Drivers/STM32F0xx_HAL_Driver/Inc/stm32f0xx_ll_gpio.h ****   * @}
  52:Drivers/STM32F0xx_HAL_Driver/Inc/stm32f0xx_ll_gpio.h ****   */
  53:Drivers/STM32F0xx_HAL_Driver/Inc/stm32f0xx_ll_gpio.h **** #endif /*USE_FULL_LL_DRIVER*/
  54:Drivers/STM32F0xx_HAL_Driver/Inc/stm32f0xx_ll_gpio.h **** 
  55:Drivers/STM32F0xx_HAL_Driver/Inc/stm32f0xx_ll_gpio.h **** /* Exported types ------------------------------------------------------------*/
  56:Drivers/STM32F0xx_HAL_Driver/Inc/stm32f0xx_ll_gpio.h **** #if defined(USE_FULL_LL_DRIVER)
  57:Drivers/STM32F0xx_HAL_Driver/Inc/stm32f0xx_ll_gpio.h **** /** @defgroup GPIO_LL_ES_INIT GPIO Exported Init structures
  58:Drivers/STM32F0xx_HAL_Driver/Inc/stm32f0xx_ll_gpio.h ****   * @{
  59:Drivers/STM32F0xx_HAL_Driver/Inc/stm32f0xx_ll_gpio.h ****   */
  60:Drivers/STM32F0xx_HAL_Driver/Inc/stm32f0xx_ll_gpio.h **** 
  61:Drivers/STM32F0xx_HAL_Driver/Inc/stm32f0xx_ll_gpio.h **** /**
  62:Drivers/STM32F0xx_HAL_Driver/Inc/stm32f0xx_ll_gpio.h ****   * @brief LL GPIO Init Structure definition
  63:Drivers/STM32F0xx_HAL_Driver/Inc/stm32f0xx_ll_gpio.h ****   */
  64:Drivers/STM32F0xx_HAL_Driver/Inc/stm32f0xx_ll_gpio.h **** typedef struct
  65:Drivers/STM32F0xx_HAL_Driver/Inc/stm32f0xx_ll_gpio.h **** {
  66:Drivers/STM32F0xx_HAL_Driver/Inc/stm32f0xx_ll_gpio.h ****   uint32_t Pin;          /*!< Specifies the GPIO pins to be configured.
  67:Drivers/STM32F0xx_HAL_Driver/Inc/stm32f0xx_ll_gpio.h ****                               This parameter can be any value of @ref GPIO_LL_EC_PIN */
  68:Drivers/STM32F0xx_HAL_Driver/Inc/stm32f0xx_ll_gpio.h **** 
  69:Drivers/STM32F0xx_HAL_Driver/Inc/stm32f0xx_ll_gpio.h ****   uint32_t Mode;         /*!< Specifies the operating mode for the selected pins.
  70:Drivers/STM32F0xx_HAL_Driver/Inc/stm32f0xx_ll_gpio.h ****                               This parameter can be a value of @ref GPIO_LL_EC_MODE.
  71:Drivers/STM32F0xx_HAL_Driver/Inc/stm32f0xx_ll_gpio.h **** 
ARM GAS  /tmp/ccl1p6uj.s 			page 16


  72:Drivers/STM32F0xx_HAL_Driver/Inc/stm32f0xx_ll_gpio.h ****                               GPIO HW configuration can be modified afterwards using unitary functi
  73:Drivers/STM32F0xx_HAL_Driver/Inc/stm32f0xx_ll_gpio.h **** 
  74:Drivers/STM32F0xx_HAL_Driver/Inc/stm32f0xx_ll_gpio.h ****   uint32_t Speed;        /*!< Specifies the speed for the selected pins.
  75:Drivers/STM32F0xx_HAL_Driver/Inc/stm32f0xx_ll_gpio.h ****                               This parameter can be a value of @ref GPIO_LL_EC_SPEED.
  76:Drivers/STM32F0xx_HAL_Driver/Inc/stm32f0xx_ll_gpio.h **** 
  77:Drivers/STM32F0xx_HAL_Driver/Inc/stm32f0xx_ll_gpio.h ****                               GPIO HW configuration can be modified afterwards using unitary functi
  78:Drivers/STM32F0xx_HAL_Driver/Inc/stm32f0xx_ll_gpio.h **** 
  79:Drivers/STM32F0xx_HAL_Driver/Inc/stm32f0xx_ll_gpio.h ****   uint32_t OutputType;   /*!< Specifies the operating output type for the selected pins.
  80:Drivers/STM32F0xx_HAL_Driver/Inc/stm32f0xx_ll_gpio.h ****                               This parameter can be a value of @ref GPIO_LL_EC_OUTPUT.
  81:Drivers/STM32F0xx_HAL_Driver/Inc/stm32f0xx_ll_gpio.h **** 
  82:Drivers/STM32F0xx_HAL_Driver/Inc/stm32f0xx_ll_gpio.h ****                               GPIO HW configuration can be modified afterwards using unitary functi
  83:Drivers/STM32F0xx_HAL_Driver/Inc/stm32f0xx_ll_gpio.h **** 
  84:Drivers/STM32F0xx_HAL_Driver/Inc/stm32f0xx_ll_gpio.h ****   uint32_t Pull;         /*!< Specifies the operating Pull-up/Pull down for the selected pins.
  85:Drivers/STM32F0xx_HAL_Driver/Inc/stm32f0xx_ll_gpio.h ****                               This parameter can be a value of @ref GPIO_LL_EC_PULL.
  86:Drivers/STM32F0xx_HAL_Driver/Inc/stm32f0xx_ll_gpio.h **** 
  87:Drivers/STM32F0xx_HAL_Driver/Inc/stm32f0xx_ll_gpio.h ****                               GPIO HW configuration can be modified afterwards using unitary functi
  88:Drivers/STM32F0xx_HAL_Driver/Inc/stm32f0xx_ll_gpio.h **** 
  89:Drivers/STM32F0xx_HAL_Driver/Inc/stm32f0xx_ll_gpio.h ****   uint32_t Alternate;    /*!< Specifies the Peripheral to be connected to the selected pins.
  90:Drivers/STM32F0xx_HAL_Driver/Inc/stm32f0xx_ll_gpio.h ****                               This parameter can be a value of @ref GPIO_LL_EC_AF.
  91:Drivers/STM32F0xx_HAL_Driver/Inc/stm32f0xx_ll_gpio.h **** 
  92:Drivers/STM32F0xx_HAL_Driver/Inc/stm32f0xx_ll_gpio.h ****                               GPIO HW configuration can be modified afterwards using unitary functi
  93:Drivers/STM32F0xx_HAL_Driver/Inc/stm32f0xx_ll_gpio.h **** } LL_GPIO_InitTypeDef;
  94:Drivers/STM32F0xx_HAL_Driver/Inc/stm32f0xx_ll_gpio.h **** 
  95:Drivers/STM32F0xx_HAL_Driver/Inc/stm32f0xx_ll_gpio.h **** /**
  96:Drivers/STM32F0xx_HAL_Driver/Inc/stm32f0xx_ll_gpio.h ****   * @}
  97:Drivers/STM32F0xx_HAL_Driver/Inc/stm32f0xx_ll_gpio.h ****   */
  98:Drivers/STM32F0xx_HAL_Driver/Inc/stm32f0xx_ll_gpio.h **** #endif /* USE_FULL_LL_DRIVER */
  99:Drivers/STM32F0xx_HAL_Driver/Inc/stm32f0xx_ll_gpio.h **** 
 100:Drivers/STM32F0xx_HAL_Driver/Inc/stm32f0xx_ll_gpio.h **** /* Exported constants --------------------------------------------------------*/
 101:Drivers/STM32F0xx_HAL_Driver/Inc/stm32f0xx_ll_gpio.h **** /** @defgroup GPIO_LL_Exported_Constants GPIO Exported Constants
 102:Drivers/STM32F0xx_HAL_Driver/Inc/stm32f0xx_ll_gpio.h ****   * @{
 103:Drivers/STM32F0xx_HAL_Driver/Inc/stm32f0xx_ll_gpio.h ****   */
 104:Drivers/STM32F0xx_HAL_Driver/Inc/stm32f0xx_ll_gpio.h **** 
 105:Drivers/STM32F0xx_HAL_Driver/Inc/stm32f0xx_ll_gpio.h **** /** @defgroup GPIO_LL_EC_PIN PIN
 106:Drivers/STM32F0xx_HAL_Driver/Inc/stm32f0xx_ll_gpio.h ****   * @{
 107:Drivers/STM32F0xx_HAL_Driver/Inc/stm32f0xx_ll_gpio.h ****   */
 108:Drivers/STM32F0xx_HAL_Driver/Inc/stm32f0xx_ll_gpio.h **** #define LL_GPIO_PIN_0                      GPIO_BSRR_BS_0 /*!< Select pin 0 */
 109:Drivers/STM32F0xx_HAL_Driver/Inc/stm32f0xx_ll_gpio.h **** #define LL_GPIO_PIN_1                      GPIO_BSRR_BS_1 /*!< Select pin 1 */
 110:Drivers/STM32F0xx_HAL_Driver/Inc/stm32f0xx_ll_gpio.h **** #define LL_GPIO_PIN_2                      GPIO_BSRR_BS_2 /*!< Select pin 2 */
 111:Drivers/STM32F0xx_HAL_Driver/Inc/stm32f0xx_ll_gpio.h **** #define LL_GPIO_PIN_3                      GPIO_BSRR_BS_3 /*!< Select pin 3 */
 112:Drivers/STM32F0xx_HAL_Driver/Inc/stm32f0xx_ll_gpio.h **** #define LL_GPIO_PIN_4                      GPIO_BSRR_BS_4 /*!< Select pin 4 */
 113:Drivers/STM32F0xx_HAL_Driver/Inc/stm32f0xx_ll_gpio.h **** #define LL_GPIO_PIN_5                      GPIO_BSRR_BS_5 /*!< Select pin 5 */
 114:Drivers/STM32F0xx_HAL_Driver/Inc/stm32f0xx_ll_gpio.h **** #define LL_GPIO_PIN_6                      GPIO_BSRR_BS_6 /*!< Select pin 6 */
 115:Drivers/STM32F0xx_HAL_Driver/Inc/stm32f0xx_ll_gpio.h **** #define LL_GPIO_PIN_7                      GPIO_BSRR_BS_7 /*!< Select pin 7 */
 116:Drivers/STM32F0xx_HAL_Driver/Inc/stm32f0xx_ll_gpio.h **** #define LL_GPIO_PIN_8                      GPIO_BSRR_BS_8 /*!< Select pin 8 */
 117:Drivers/STM32F0xx_HAL_Driver/Inc/stm32f0xx_ll_gpio.h **** #define LL_GPIO_PIN_9                      GPIO_BSRR_BS_9 /*!< Select pin 9 */
 118:Drivers/STM32F0xx_HAL_Driver/Inc/stm32f0xx_ll_gpio.h **** #define LL_GPIO_PIN_10                     GPIO_BSRR_BS_10 /*!< Select pin 10 */
 119:Drivers/STM32F0xx_HAL_Driver/Inc/stm32f0xx_ll_gpio.h **** #define LL_GPIO_PIN_11                     GPIO_BSRR_BS_11 /*!< Select pin 11 */
 120:Drivers/STM32F0xx_HAL_Driver/Inc/stm32f0xx_ll_gpio.h **** #define LL_GPIO_PIN_12                     GPIO_BSRR_BS_12 /*!< Select pin 12 */
 121:Drivers/STM32F0xx_HAL_Driver/Inc/stm32f0xx_ll_gpio.h **** #define LL_GPIO_PIN_13                     GPIO_BSRR_BS_13 /*!< Select pin 13 */
 122:Drivers/STM32F0xx_HAL_Driver/Inc/stm32f0xx_ll_gpio.h **** #define LL_GPIO_PIN_14                     GPIO_BSRR_BS_14 /*!< Select pin 14 */
 123:Drivers/STM32F0xx_HAL_Driver/Inc/stm32f0xx_ll_gpio.h **** #define LL_GPIO_PIN_15                     GPIO_BSRR_BS_15 /*!< Select pin 15 */
 124:Drivers/STM32F0xx_HAL_Driver/Inc/stm32f0xx_ll_gpio.h **** #define LL_GPIO_PIN_ALL                    (GPIO_BSRR_BS_0 | GPIO_BSRR_BS_1  | GPIO_BSRR_BS_2  | \
 125:Drivers/STM32F0xx_HAL_Driver/Inc/stm32f0xx_ll_gpio.h ****                                            GPIO_BSRR_BS_3  | GPIO_BSRR_BS_4  | GPIO_BSRR_BS_5  | \
 126:Drivers/STM32F0xx_HAL_Driver/Inc/stm32f0xx_ll_gpio.h ****                                            GPIO_BSRR_BS_6  | GPIO_BSRR_BS_7  | GPIO_BSRR_BS_8  | \
 127:Drivers/STM32F0xx_HAL_Driver/Inc/stm32f0xx_ll_gpio.h ****                                            GPIO_BSRR_BS_9  | GPIO_BSRR_BS_10 | GPIO_BSRR_BS_11 | \
 128:Drivers/STM32F0xx_HAL_Driver/Inc/stm32f0xx_ll_gpio.h ****                                            GPIO_BSRR_BS_12 | GPIO_BSRR_BS_13 | GPIO_BSRR_BS_14 | \
ARM GAS  /tmp/ccl1p6uj.s 			page 17


 129:Drivers/STM32F0xx_HAL_Driver/Inc/stm32f0xx_ll_gpio.h ****                                            GPIO_BSRR_BS_15) /*!< Select all pins */
 130:Drivers/STM32F0xx_HAL_Driver/Inc/stm32f0xx_ll_gpio.h **** /**
 131:Drivers/STM32F0xx_HAL_Driver/Inc/stm32f0xx_ll_gpio.h ****   * @}
 132:Drivers/STM32F0xx_HAL_Driver/Inc/stm32f0xx_ll_gpio.h ****   */
 133:Drivers/STM32F0xx_HAL_Driver/Inc/stm32f0xx_ll_gpio.h **** 
 134:Drivers/STM32F0xx_HAL_Driver/Inc/stm32f0xx_ll_gpio.h **** /** @defgroup GPIO_LL_EC_MODE Mode
 135:Drivers/STM32F0xx_HAL_Driver/Inc/stm32f0xx_ll_gpio.h ****   * @{
 136:Drivers/STM32F0xx_HAL_Driver/Inc/stm32f0xx_ll_gpio.h ****   */
 137:Drivers/STM32F0xx_HAL_Driver/Inc/stm32f0xx_ll_gpio.h **** #define LL_GPIO_MODE_INPUT                 (0x00000000U) /*!< Select input mode */
 138:Drivers/STM32F0xx_HAL_Driver/Inc/stm32f0xx_ll_gpio.h **** #define LL_GPIO_MODE_OUTPUT                GPIO_MODER_MODER0_0  /*!< Select output mode */
 139:Drivers/STM32F0xx_HAL_Driver/Inc/stm32f0xx_ll_gpio.h **** #define LL_GPIO_MODE_ALTERNATE             GPIO_MODER_MODER0_1  /*!< Select alternate function mode
 140:Drivers/STM32F0xx_HAL_Driver/Inc/stm32f0xx_ll_gpio.h **** #define LL_GPIO_MODE_ANALOG                GPIO_MODER_MODER0    /*!< Select analog mode */
 141:Drivers/STM32F0xx_HAL_Driver/Inc/stm32f0xx_ll_gpio.h **** /**
 142:Drivers/STM32F0xx_HAL_Driver/Inc/stm32f0xx_ll_gpio.h ****   * @}
 143:Drivers/STM32F0xx_HAL_Driver/Inc/stm32f0xx_ll_gpio.h ****   */
 144:Drivers/STM32F0xx_HAL_Driver/Inc/stm32f0xx_ll_gpio.h **** 
 145:Drivers/STM32F0xx_HAL_Driver/Inc/stm32f0xx_ll_gpio.h **** /** @defgroup GPIO_LL_EC_OUTPUT Output Type
 146:Drivers/STM32F0xx_HAL_Driver/Inc/stm32f0xx_ll_gpio.h ****   * @{
 147:Drivers/STM32F0xx_HAL_Driver/Inc/stm32f0xx_ll_gpio.h ****   */
 148:Drivers/STM32F0xx_HAL_Driver/Inc/stm32f0xx_ll_gpio.h **** #define LL_GPIO_OUTPUT_PUSHPULL            (0x00000000U) /*!< Select push-pull as output type */
 149:Drivers/STM32F0xx_HAL_Driver/Inc/stm32f0xx_ll_gpio.h **** #define LL_GPIO_OUTPUT_OPENDRAIN           GPIO_OTYPER_OT_0 /*!< Select open-drain as output type *
 150:Drivers/STM32F0xx_HAL_Driver/Inc/stm32f0xx_ll_gpio.h **** /**
 151:Drivers/STM32F0xx_HAL_Driver/Inc/stm32f0xx_ll_gpio.h ****   * @}
 152:Drivers/STM32F0xx_HAL_Driver/Inc/stm32f0xx_ll_gpio.h ****   */
 153:Drivers/STM32F0xx_HAL_Driver/Inc/stm32f0xx_ll_gpio.h **** 
 154:Drivers/STM32F0xx_HAL_Driver/Inc/stm32f0xx_ll_gpio.h **** /** @defgroup GPIO_LL_EC_SPEED Output Speed
 155:Drivers/STM32F0xx_HAL_Driver/Inc/stm32f0xx_ll_gpio.h ****   * @{
 156:Drivers/STM32F0xx_HAL_Driver/Inc/stm32f0xx_ll_gpio.h ****   */
 157:Drivers/STM32F0xx_HAL_Driver/Inc/stm32f0xx_ll_gpio.h **** #define LL_GPIO_SPEED_FREQ_LOW             (0x00000000U) /*!< Select I/O low output speed    */
 158:Drivers/STM32F0xx_HAL_Driver/Inc/stm32f0xx_ll_gpio.h **** #define LL_GPIO_SPEED_FREQ_MEDIUM          GPIO_OSPEEDR_OSPEEDR0_0 /*!< Select I/O medium output sp
 159:Drivers/STM32F0xx_HAL_Driver/Inc/stm32f0xx_ll_gpio.h **** #define LL_GPIO_SPEED_FREQ_HIGH            GPIO_OSPEEDR_OSPEEDR0   /*!< Select I/O high output spee
 160:Drivers/STM32F0xx_HAL_Driver/Inc/stm32f0xx_ll_gpio.h **** /**
 161:Drivers/STM32F0xx_HAL_Driver/Inc/stm32f0xx_ll_gpio.h ****   * @}
 162:Drivers/STM32F0xx_HAL_Driver/Inc/stm32f0xx_ll_gpio.h ****   */
 163:Drivers/STM32F0xx_HAL_Driver/Inc/stm32f0xx_ll_gpio.h **** #define LL_GPIO_SPEED_LOW                  LL_GPIO_SPEED_FREQ_LOW
 164:Drivers/STM32F0xx_HAL_Driver/Inc/stm32f0xx_ll_gpio.h **** #define LL_GPIO_SPEED_MEDIUM               LL_GPIO_SPEED_FREQ_MEDIUM
 165:Drivers/STM32F0xx_HAL_Driver/Inc/stm32f0xx_ll_gpio.h **** #define LL_GPIO_SPEED_HIGH                 LL_GPIO_SPEED_FREQ_HIGH
 166:Drivers/STM32F0xx_HAL_Driver/Inc/stm32f0xx_ll_gpio.h **** 
 167:Drivers/STM32F0xx_HAL_Driver/Inc/stm32f0xx_ll_gpio.h **** /** @defgroup GPIO_LL_EC_PULL Pull Up Pull Down
 168:Drivers/STM32F0xx_HAL_Driver/Inc/stm32f0xx_ll_gpio.h ****   * @{
 169:Drivers/STM32F0xx_HAL_Driver/Inc/stm32f0xx_ll_gpio.h ****   */
 170:Drivers/STM32F0xx_HAL_Driver/Inc/stm32f0xx_ll_gpio.h **** #define LL_GPIO_PULL_NO                    (0x00000000U) /*!< Select I/O no pull */
 171:Drivers/STM32F0xx_HAL_Driver/Inc/stm32f0xx_ll_gpio.h **** #define LL_GPIO_PULL_UP                    GPIO_PUPDR_PUPDR0_0 /*!< Select I/O pull up */
 172:Drivers/STM32F0xx_HAL_Driver/Inc/stm32f0xx_ll_gpio.h **** #define LL_GPIO_PULL_DOWN                  GPIO_PUPDR_PUPDR0_1 /*!< Select I/O pull down */
 173:Drivers/STM32F0xx_HAL_Driver/Inc/stm32f0xx_ll_gpio.h **** /**
 174:Drivers/STM32F0xx_HAL_Driver/Inc/stm32f0xx_ll_gpio.h ****   * @}
 175:Drivers/STM32F0xx_HAL_Driver/Inc/stm32f0xx_ll_gpio.h ****   */
 176:Drivers/STM32F0xx_HAL_Driver/Inc/stm32f0xx_ll_gpio.h **** 
 177:Drivers/STM32F0xx_HAL_Driver/Inc/stm32f0xx_ll_gpio.h **** /** @defgroup GPIO_LL_EC_AF Alternate Function
 178:Drivers/STM32F0xx_HAL_Driver/Inc/stm32f0xx_ll_gpio.h ****   * @{
 179:Drivers/STM32F0xx_HAL_Driver/Inc/stm32f0xx_ll_gpio.h ****   */
 180:Drivers/STM32F0xx_HAL_Driver/Inc/stm32f0xx_ll_gpio.h **** #define LL_GPIO_AF_0                       (0x0000000U) /*!< Select alternate function 0 */
 181:Drivers/STM32F0xx_HAL_Driver/Inc/stm32f0xx_ll_gpio.h **** #define LL_GPIO_AF_1                       (0x0000001U) /*!< Select alternate function 1 */
 182:Drivers/STM32F0xx_HAL_Driver/Inc/stm32f0xx_ll_gpio.h **** #define LL_GPIO_AF_2                       (0x0000002U) /*!< Select alternate function 2 */
 183:Drivers/STM32F0xx_HAL_Driver/Inc/stm32f0xx_ll_gpio.h **** #define LL_GPIO_AF_3                       (0x0000003U) /*!< Select alternate function 3 */
 184:Drivers/STM32F0xx_HAL_Driver/Inc/stm32f0xx_ll_gpio.h **** #define LL_GPIO_AF_4                       (0x0000004U) /*!< Select alternate function 4 */
 185:Drivers/STM32F0xx_HAL_Driver/Inc/stm32f0xx_ll_gpio.h **** #define LL_GPIO_AF_5                       (0x0000005U) /*!< Select alternate function 5 */
ARM GAS  /tmp/ccl1p6uj.s 			page 18


 186:Drivers/STM32F0xx_HAL_Driver/Inc/stm32f0xx_ll_gpio.h **** #define LL_GPIO_AF_6                       (0x0000006U) /*!< Select alternate function 6 */
 187:Drivers/STM32F0xx_HAL_Driver/Inc/stm32f0xx_ll_gpio.h **** #define LL_GPIO_AF_7                       (0x0000007U) /*!< Select alternate function 7 */
 188:Drivers/STM32F0xx_HAL_Driver/Inc/stm32f0xx_ll_gpio.h **** /**
 189:Drivers/STM32F0xx_HAL_Driver/Inc/stm32f0xx_ll_gpio.h ****   * @}
 190:Drivers/STM32F0xx_HAL_Driver/Inc/stm32f0xx_ll_gpio.h ****   */
 191:Drivers/STM32F0xx_HAL_Driver/Inc/stm32f0xx_ll_gpio.h **** 
 192:Drivers/STM32F0xx_HAL_Driver/Inc/stm32f0xx_ll_gpio.h **** /**
 193:Drivers/STM32F0xx_HAL_Driver/Inc/stm32f0xx_ll_gpio.h ****   * @}
 194:Drivers/STM32F0xx_HAL_Driver/Inc/stm32f0xx_ll_gpio.h ****   */
 195:Drivers/STM32F0xx_HAL_Driver/Inc/stm32f0xx_ll_gpio.h **** 
 196:Drivers/STM32F0xx_HAL_Driver/Inc/stm32f0xx_ll_gpio.h **** /* Exported macro ------------------------------------------------------------*/
 197:Drivers/STM32F0xx_HAL_Driver/Inc/stm32f0xx_ll_gpio.h **** /** @defgroup GPIO_LL_Exported_Macros GPIO Exported Macros
 198:Drivers/STM32F0xx_HAL_Driver/Inc/stm32f0xx_ll_gpio.h ****   * @{
 199:Drivers/STM32F0xx_HAL_Driver/Inc/stm32f0xx_ll_gpio.h ****   */
 200:Drivers/STM32F0xx_HAL_Driver/Inc/stm32f0xx_ll_gpio.h **** 
 201:Drivers/STM32F0xx_HAL_Driver/Inc/stm32f0xx_ll_gpio.h **** /** @defgroup GPIO_LL_EM_WRITE_READ Common Write and read registers Macros
 202:Drivers/STM32F0xx_HAL_Driver/Inc/stm32f0xx_ll_gpio.h ****   * @{
 203:Drivers/STM32F0xx_HAL_Driver/Inc/stm32f0xx_ll_gpio.h ****   */
 204:Drivers/STM32F0xx_HAL_Driver/Inc/stm32f0xx_ll_gpio.h **** 
 205:Drivers/STM32F0xx_HAL_Driver/Inc/stm32f0xx_ll_gpio.h **** /**
 206:Drivers/STM32F0xx_HAL_Driver/Inc/stm32f0xx_ll_gpio.h ****   * @brief  Write a value in GPIO register
 207:Drivers/STM32F0xx_HAL_Driver/Inc/stm32f0xx_ll_gpio.h ****   * @param  __INSTANCE__ GPIO Instance
 208:Drivers/STM32F0xx_HAL_Driver/Inc/stm32f0xx_ll_gpio.h ****   * @param  __REG__ Register to be written
 209:Drivers/STM32F0xx_HAL_Driver/Inc/stm32f0xx_ll_gpio.h ****   * @param  __VALUE__ Value to be written in the register
 210:Drivers/STM32F0xx_HAL_Driver/Inc/stm32f0xx_ll_gpio.h ****   * @retval None
 211:Drivers/STM32F0xx_HAL_Driver/Inc/stm32f0xx_ll_gpio.h ****   */
 212:Drivers/STM32F0xx_HAL_Driver/Inc/stm32f0xx_ll_gpio.h **** #define LL_GPIO_WriteReg(__INSTANCE__, __REG__, __VALUE__) WRITE_REG(__INSTANCE__->__REG__, (__VALU
 213:Drivers/STM32F0xx_HAL_Driver/Inc/stm32f0xx_ll_gpio.h **** 
 214:Drivers/STM32F0xx_HAL_Driver/Inc/stm32f0xx_ll_gpio.h **** /**
 215:Drivers/STM32F0xx_HAL_Driver/Inc/stm32f0xx_ll_gpio.h ****   * @brief  Read a value in GPIO register
 216:Drivers/STM32F0xx_HAL_Driver/Inc/stm32f0xx_ll_gpio.h ****   * @param  __INSTANCE__ GPIO Instance
 217:Drivers/STM32F0xx_HAL_Driver/Inc/stm32f0xx_ll_gpio.h ****   * @param  __REG__ Register to be read
 218:Drivers/STM32F0xx_HAL_Driver/Inc/stm32f0xx_ll_gpio.h ****   * @retval Register value
 219:Drivers/STM32F0xx_HAL_Driver/Inc/stm32f0xx_ll_gpio.h ****   */
 220:Drivers/STM32F0xx_HAL_Driver/Inc/stm32f0xx_ll_gpio.h **** #define LL_GPIO_ReadReg(__INSTANCE__, __REG__) READ_REG(__INSTANCE__->__REG__)
 221:Drivers/STM32F0xx_HAL_Driver/Inc/stm32f0xx_ll_gpio.h **** /**
 222:Drivers/STM32F0xx_HAL_Driver/Inc/stm32f0xx_ll_gpio.h ****   * @}
 223:Drivers/STM32F0xx_HAL_Driver/Inc/stm32f0xx_ll_gpio.h ****   */
 224:Drivers/STM32F0xx_HAL_Driver/Inc/stm32f0xx_ll_gpio.h **** 
 225:Drivers/STM32F0xx_HAL_Driver/Inc/stm32f0xx_ll_gpio.h **** /**
 226:Drivers/STM32F0xx_HAL_Driver/Inc/stm32f0xx_ll_gpio.h ****   * @}
 227:Drivers/STM32F0xx_HAL_Driver/Inc/stm32f0xx_ll_gpio.h ****   */
 228:Drivers/STM32F0xx_HAL_Driver/Inc/stm32f0xx_ll_gpio.h **** 
 229:Drivers/STM32F0xx_HAL_Driver/Inc/stm32f0xx_ll_gpio.h **** /* Exported functions --------------------------------------------------------*/
 230:Drivers/STM32F0xx_HAL_Driver/Inc/stm32f0xx_ll_gpio.h **** /** @defgroup GPIO_LL_Exported_Functions GPIO Exported Functions
 231:Drivers/STM32F0xx_HAL_Driver/Inc/stm32f0xx_ll_gpio.h ****   * @{
 232:Drivers/STM32F0xx_HAL_Driver/Inc/stm32f0xx_ll_gpio.h ****   */
 233:Drivers/STM32F0xx_HAL_Driver/Inc/stm32f0xx_ll_gpio.h **** 
 234:Drivers/STM32F0xx_HAL_Driver/Inc/stm32f0xx_ll_gpio.h **** /** @defgroup GPIO_LL_EF_Port_Configuration Port Configuration
 235:Drivers/STM32F0xx_HAL_Driver/Inc/stm32f0xx_ll_gpio.h ****   * @{
 236:Drivers/STM32F0xx_HAL_Driver/Inc/stm32f0xx_ll_gpio.h ****   */
 237:Drivers/STM32F0xx_HAL_Driver/Inc/stm32f0xx_ll_gpio.h **** 
 238:Drivers/STM32F0xx_HAL_Driver/Inc/stm32f0xx_ll_gpio.h **** /**
 239:Drivers/STM32F0xx_HAL_Driver/Inc/stm32f0xx_ll_gpio.h ****   * @brief  Configure gpio mode for a dedicated pin on dedicated port.
 240:Drivers/STM32F0xx_HAL_Driver/Inc/stm32f0xx_ll_gpio.h ****   * @note   I/O mode can be Input mode, General purpose output, Alternate function mode or Analog.
 241:Drivers/STM32F0xx_HAL_Driver/Inc/stm32f0xx_ll_gpio.h ****   * @note   Warning: only one pin can be passed as parameter.
 242:Drivers/STM32F0xx_HAL_Driver/Inc/stm32f0xx_ll_gpio.h ****   * @rmtoll MODER        MODEy         LL_GPIO_SetPinMode
ARM GAS  /tmp/ccl1p6uj.s 			page 19


 243:Drivers/STM32F0xx_HAL_Driver/Inc/stm32f0xx_ll_gpio.h ****   * @param  GPIOx GPIO Port
 244:Drivers/STM32F0xx_HAL_Driver/Inc/stm32f0xx_ll_gpio.h ****   * @param  Pin This parameter can be one of the following values:
 245:Drivers/STM32F0xx_HAL_Driver/Inc/stm32f0xx_ll_gpio.h ****   *         @arg @ref LL_GPIO_PIN_0
 246:Drivers/STM32F0xx_HAL_Driver/Inc/stm32f0xx_ll_gpio.h ****   *         @arg @ref LL_GPIO_PIN_1
 247:Drivers/STM32F0xx_HAL_Driver/Inc/stm32f0xx_ll_gpio.h ****   *         @arg @ref LL_GPIO_PIN_2
 248:Drivers/STM32F0xx_HAL_Driver/Inc/stm32f0xx_ll_gpio.h ****   *         @arg @ref LL_GPIO_PIN_3
 249:Drivers/STM32F0xx_HAL_Driver/Inc/stm32f0xx_ll_gpio.h ****   *         @arg @ref LL_GPIO_PIN_4
 250:Drivers/STM32F0xx_HAL_Driver/Inc/stm32f0xx_ll_gpio.h ****   *         @arg @ref LL_GPIO_PIN_5
 251:Drivers/STM32F0xx_HAL_Driver/Inc/stm32f0xx_ll_gpio.h ****   *         @arg @ref LL_GPIO_PIN_6
 252:Drivers/STM32F0xx_HAL_Driver/Inc/stm32f0xx_ll_gpio.h ****   *         @arg @ref LL_GPIO_PIN_7
 253:Drivers/STM32F0xx_HAL_Driver/Inc/stm32f0xx_ll_gpio.h ****   *         @arg @ref LL_GPIO_PIN_8
 254:Drivers/STM32F0xx_HAL_Driver/Inc/stm32f0xx_ll_gpio.h ****   *         @arg @ref LL_GPIO_PIN_9
 255:Drivers/STM32F0xx_HAL_Driver/Inc/stm32f0xx_ll_gpio.h ****   *         @arg @ref LL_GPIO_PIN_10
 256:Drivers/STM32F0xx_HAL_Driver/Inc/stm32f0xx_ll_gpio.h ****   *         @arg @ref LL_GPIO_PIN_11
 257:Drivers/STM32F0xx_HAL_Driver/Inc/stm32f0xx_ll_gpio.h ****   *         @arg @ref LL_GPIO_PIN_12
 258:Drivers/STM32F0xx_HAL_Driver/Inc/stm32f0xx_ll_gpio.h ****   *         @arg @ref LL_GPIO_PIN_13
 259:Drivers/STM32F0xx_HAL_Driver/Inc/stm32f0xx_ll_gpio.h ****   *         @arg @ref LL_GPIO_PIN_14
 260:Drivers/STM32F0xx_HAL_Driver/Inc/stm32f0xx_ll_gpio.h ****   *         @arg @ref LL_GPIO_PIN_15
 261:Drivers/STM32F0xx_HAL_Driver/Inc/stm32f0xx_ll_gpio.h ****   * @param  Mode This parameter can be one of the following values:
 262:Drivers/STM32F0xx_HAL_Driver/Inc/stm32f0xx_ll_gpio.h ****   *         @arg @ref LL_GPIO_MODE_INPUT
 263:Drivers/STM32F0xx_HAL_Driver/Inc/stm32f0xx_ll_gpio.h ****   *         @arg @ref LL_GPIO_MODE_OUTPUT
 264:Drivers/STM32F0xx_HAL_Driver/Inc/stm32f0xx_ll_gpio.h ****   *         @arg @ref LL_GPIO_MODE_ALTERNATE
 265:Drivers/STM32F0xx_HAL_Driver/Inc/stm32f0xx_ll_gpio.h ****   *         @arg @ref LL_GPIO_MODE_ANALOG
 266:Drivers/STM32F0xx_HAL_Driver/Inc/stm32f0xx_ll_gpio.h ****   * @retval None
 267:Drivers/STM32F0xx_HAL_Driver/Inc/stm32f0xx_ll_gpio.h ****   */
 268:Drivers/STM32F0xx_HAL_Driver/Inc/stm32f0xx_ll_gpio.h **** __STATIC_INLINE void LL_GPIO_SetPinMode(GPIO_TypeDef *GPIOx, uint32_t Pin, uint32_t Mode)
 158              		.loc 3 268 22 view .LVU40
 159              	.LBB25:
 269:Drivers/STM32F0xx_HAL_Driver/Inc/stm32f0xx_ll_gpio.h **** {
 270:Drivers/STM32F0xx_HAL_Driver/Inc/stm32f0xx_ll_gpio.h ****   MODIFY_REG(GPIOx->MODER, ((Pin * Pin) * GPIO_MODER_MODER0), ((Pin * Pin) * Mode));
 160              		.loc 3 270 3 view .LVU41
 161 0082 2B68     		ldr	r3, [r5]
 162 0084 074A     		ldr	r2, .L2+4
 163 0086 1A40     		ands	r2, r3
 164 0088 8023     		movs	r3, #128
 165 008a 5B02     		lsls	r3, r3, #9
 166 008c 1343     		orrs	r3, r2
 167 008e 2B60     		str	r3, [r5]
 168              	.LVL5:
 169              		.loc 3 270 3 is_stmt 0 view .LVU42
 170              	.LBE25:
 171              	.LBE24:
 396:Core/Src/main.c ****   LL_GPIO_SetPinMode(GPIOA, LL_GPIO_PIN_9, LL_GPIO_MODE_OUTPUT);
 172              		.loc 1 396 3 is_stmt 1 view .LVU43
 173              	.LBB26:
 174              	.LBI26:
 268:Drivers/STM32F0xx_HAL_Driver/Inc/stm32f0xx_ll_gpio.h **** {
 175              		.loc 3 268 22 view .LVU44
 176              	.LBB27:
 177              		.loc 3 270 3 view .LVU45
 178 0090 2B68     		ldr	r3, [r5]
 179 0092 054A     		ldr	r2, .L2+8
 180 0094 1340     		ands	r3, r2
 181 0096 1E43     		orrs	r6, r3
 182 0098 2E60     		str	r6, [r5]
 183              	.LVL6:
 184              		.loc 3 270 3 is_stmt 0 view .LVU46
ARM GAS  /tmp/ccl1p6uj.s 			page 20


 185              	.LBE27:
 186              	.LBE26:
 397:Core/Src/main.c **** }
 187              		.loc 1 397 1 view .LVU47
 188 009a 0AB0     		add	sp, sp, #40
 189              		@ sp needed
 190 009c 70BD     		pop	{r4, r5, r6, pc}
 191              	.L3:
 192 009e C046     		.align	2
 193              	.L2:
 194 00a0 00100240 		.word	1073876992
 195 00a4 FFFFFCFF 		.word	-196609
 196 00a8 FFFFF3FF 		.word	-786433
 197              		.cfi_endproc
 198              	.LFE252:
 200              		.section	.text.Error_Handler,"ax",%progbits
 201              		.align	1
 202              		.global	Error_Handler
 203              		.syntax unified
 204              		.code	16
 205              		.thumb_func
 207              	Error_Handler:
 208              	.LFB253:
 398:Core/Src/main.c **** 
 399:Core/Src/main.c **** /* USER CODE BEGIN 4 */
 400:Core/Src/main.c **** 
 401:Core/Src/main.c **** /* USER CODE END 4 */
 402:Core/Src/main.c **** 
 403:Core/Src/main.c **** /**
 404:Core/Src/main.c ****   * @brief  This function is executed in case of error occurrence.
 405:Core/Src/main.c ****   * @retval None
 406:Core/Src/main.c ****   */
 407:Core/Src/main.c **** void Error_Handler(void)
 408:Core/Src/main.c **** {
 209              		.loc 1 408 1 is_stmt 1 view -0
 210              		.cfi_startproc
 211              		@ Volatile: function does not return.
 212              		@ args = 0, pretend = 0, frame = 0
 213              		@ frame_needed = 0, uses_anonymous_args = 0
 214              		@ link register save eliminated.
 409:Core/Src/main.c ****   /* USER CODE BEGIN Error_Handler_Debug */
 410:Core/Src/main.c ****   /* User can add his own implementation to report the HAL error return state */
 411:Core/Src/main.c ****   __disable_irq();
 215              		.loc 1 411 3 view .LVU49
 216              	.LBB28:
 217              	.LBI28:
 218              		.file 4 "Drivers/CMSIS/Include/cmsis_gcc.h"
   1:Drivers/CMSIS/Include/cmsis_gcc.h **** /**************************************************************************//**
   2:Drivers/CMSIS/Include/cmsis_gcc.h ****  * @file     cmsis_gcc.h
   3:Drivers/CMSIS/Include/cmsis_gcc.h ****  * @brief    CMSIS compiler GCC header file
   4:Drivers/CMSIS/Include/cmsis_gcc.h ****  * @version  V5.0.4
   5:Drivers/CMSIS/Include/cmsis_gcc.h ****  * @date     09. April 2018
   6:Drivers/CMSIS/Include/cmsis_gcc.h ****  ******************************************************************************/
   7:Drivers/CMSIS/Include/cmsis_gcc.h **** /*
   8:Drivers/CMSIS/Include/cmsis_gcc.h ****  * Copyright (c) 2009-2018 Arm Limited. All rights reserved.
   9:Drivers/CMSIS/Include/cmsis_gcc.h ****  *
  10:Drivers/CMSIS/Include/cmsis_gcc.h ****  * SPDX-License-Identifier: Apache-2.0
ARM GAS  /tmp/ccl1p6uj.s 			page 21


  11:Drivers/CMSIS/Include/cmsis_gcc.h ****  *
  12:Drivers/CMSIS/Include/cmsis_gcc.h ****  * Licensed under the Apache License, Version 2.0 (the License); you may
  13:Drivers/CMSIS/Include/cmsis_gcc.h ****  * not use this file except in compliance with the License.
  14:Drivers/CMSIS/Include/cmsis_gcc.h ****  * You may obtain a copy of the License at
  15:Drivers/CMSIS/Include/cmsis_gcc.h ****  *
  16:Drivers/CMSIS/Include/cmsis_gcc.h ****  * www.apache.org/licenses/LICENSE-2.0
  17:Drivers/CMSIS/Include/cmsis_gcc.h ****  *
  18:Drivers/CMSIS/Include/cmsis_gcc.h ****  * Unless required by applicable law or agreed to in writing, software
  19:Drivers/CMSIS/Include/cmsis_gcc.h ****  * distributed under the License is distributed on an AS IS BASIS, WITHOUT
  20:Drivers/CMSIS/Include/cmsis_gcc.h ****  * WARRANTIES OR CONDITIONS OF ANY KIND, either express or implied.
  21:Drivers/CMSIS/Include/cmsis_gcc.h ****  * See the License for the specific language governing permissions and
  22:Drivers/CMSIS/Include/cmsis_gcc.h ****  * limitations under the License.
  23:Drivers/CMSIS/Include/cmsis_gcc.h ****  */
  24:Drivers/CMSIS/Include/cmsis_gcc.h **** 
  25:Drivers/CMSIS/Include/cmsis_gcc.h **** #ifndef __CMSIS_GCC_H
  26:Drivers/CMSIS/Include/cmsis_gcc.h **** #define __CMSIS_GCC_H
  27:Drivers/CMSIS/Include/cmsis_gcc.h **** 
  28:Drivers/CMSIS/Include/cmsis_gcc.h **** /* ignore some GCC warnings */
  29:Drivers/CMSIS/Include/cmsis_gcc.h **** #pragma GCC diagnostic push
  30:Drivers/CMSIS/Include/cmsis_gcc.h **** #pragma GCC diagnostic ignored "-Wsign-conversion"
  31:Drivers/CMSIS/Include/cmsis_gcc.h **** #pragma GCC diagnostic ignored "-Wconversion"
  32:Drivers/CMSIS/Include/cmsis_gcc.h **** #pragma GCC diagnostic ignored "-Wunused-parameter"
  33:Drivers/CMSIS/Include/cmsis_gcc.h **** 
  34:Drivers/CMSIS/Include/cmsis_gcc.h **** /* Fallback for __has_builtin */
  35:Drivers/CMSIS/Include/cmsis_gcc.h **** #ifndef __has_builtin
  36:Drivers/CMSIS/Include/cmsis_gcc.h ****   #define __has_builtin(x) (0)
  37:Drivers/CMSIS/Include/cmsis_gcc.h **** #endif
  38:Drivers/CMSIS/Include/cmsis_gcc.h **** 
  39:Drivers/CMSIS/Include/cmsis_gcc.h **** /* CMSIS compiler specific defines */
  40:Drivers/CMSIS/Include/cmsis_gcc.h **** #ifndef   __ASM
  41:Drivers/CMSIS/Include/cmsis_gcc.h ****   #define __ASM                                  __asm
  42:Drivers/CMSIS/Include/cmsis_gcc.h **** #endif
  43:Drivers/CMSIS/Include/cmsis_gcc.h **** #ifndef   __INLINE
  44:Drivers/CMSIS/Include/cmsis_gcc.h ****   #define __INLINE                               inline
  45:Drivers/CMSIS/Include/cmsis_gcc.h **** #endif
  46:Drivers/CMSIS/Include/cmsis_gcc.h **** #ifndef   __STATIC_INLINE
  47:Drivers/CMSIS/Include/cmsis_gcc.h ****   #define __STATIC_INLINE                        static inline
  48:Drivers/CMSIS/Include/cmsis_gcc.h **** #endif
  49:Drivers/CMSIS/Include/cmsis_gcc.h **** #ifndef   __STATIC_FORCEINLINE                 
  50:Drivers/CMSIS/Include/cmsis_gcc.h ****   #define __STATIC_FORCEINLINE                   __attribute__((always_inline)) static inline
  51:Drivers/CMSIS/Include/cmsis_gcc.h **** #endif                                           
  52:Drivers/CMSIS/Include/cmsis_gcc.h **** #ifndef   __NO_RETURN
  53:Drivers/CMSIS/Include/cmsis_gcc.h ****   #define __NO_RETURN                            __attribute__((__noreturn__))
  54:Drivers/CMSIS/Include/cmsis_gcc.h **** #endif
  55:Drivers/CMSIS/Include/cmsis_gcc.h **** #ifndef   __USED
  56:Drivers/CMSIS/Include/cmsis_gcc.h ****   #define __USED                                 __attribute__((used))
  57:Drivers/CMSIS/Include/cmsis_gcc.h **** #endif
  58:Drivers/CMSIS/Include/cmsis_gcc.h **** #ifndef   __WEAK
  59:Drivers/CMSIS/Include/cmsis_gcc.h ****   #define __WEAK                                 __attribute__((weak))
  60:Drivers/CMSIS/Include/cmsis_gcc.h **** #endif
  61:Drivers/CMSIS/Include/cmsis_gcc.h **** #ifndef   __PACKED
  62:Drivers/CMSIS/Include/cmsis_gcc.h ****   #define __PACKED                               __attribute__((packed, aligned(1)))
  63:Drivers/CMSIS/Include/cmsis_gcc.h **** #endif
  64:Drivers/CMSIS/Include/cmsis_gcc.h **** #ifndef   __PACKED_STRUCT
  65:Drivers/CMSIS/Include/cmsis_gcc.h ****   #define __PACKED_STRUCT                        struct __attribute__((packed, aligned(1)))
  66:Drivers/CMSIS/Include/cmsis_gcc.h **** #endif
  67:Drivers/CMSIS/Include/cmsis_gcc.h **** #ifndef   __PACKED_UNION
ARM GAS  /tmp/ccl1p6uj.s 			page 22


  68:Drivers/CMSIS/Include/cmsis_gcc.h ****   #define __PACKED_UNION                         union __attribute__((packed, aligned(1)))
  69:Drivers/CMSIS/Include/cmsis_gcc.h **** #endif
  70:Drivers/CMSIS/Include/cmsis_gcc.h **** #ifndef   __UNALIGNED_UINT32        /* deprecated */
  71:Drivers/CMSIS/Include/cmsis_gcc.h ****   #pragma GCC diagnostic push
  72:Drivers/CMSIS/Include/cmsis_gcc.h ****   #pragma GCC diagnostic ignored "-Wpacked"
  73:Drivers/CMSIS/Include/cmsis_gcc.h ****   #pragma GCC diagnostic ignored "-Wattributes"
  74:Drivers/CMSIS/Include/cmsis_gcc.h ****   struct __attribute__((packed)) T_UINT32 { uint32_t v; };
  75:Drivers/CMSIS/Include/cmsis_gcc.h ****   #pragma GCC diagnostic pop
  76:Drivers/CMSIS/Include/cmsis_gcc.h ****   #define __UNALIGNED_UINT32(x)                  (((struct T_UINT32 *)(x))->v)
  77:Drivers/CMSIS/Include/cmsis_gcc.h **** #endif
  78:Drivers/CMSIS/Include/cmsis_gcc.h **** #ifndef   __UNALIGNED_UINT16_WRITE
  79:Drivers/CMSIS/Include/cmsis_gcc.h ****   #pragma GCC diagnostic push
  80:Drivers/CMSIS/Include/cmsis_gcc.h ****   #pragma GCC diagnostic ignored "-Wpacked"
  81:Drivers/CMSIS/Include/cmsis_gcc.h ****   #pragma GCC diagnostic ignored "-Wattributes"
  82:Drivers/CMSIS/Include/cmsis_gcc.h ****   __PACKED_STRUCT T_UINT16_WRITE { uint16_t v; };
  83:Drivers/CMSIS/Include/cmsis_gcc.h ****   #pragma GCC diagnostic pop
  84:Drivers/CMSIS/Include/cmsis_gcc.h ****   #define __UNALIGNED_UINT16_WRITE(addr, val)    (void)((((struct T_UINT16_WRITE *)(void *)(addr))-
  85:Drivers/CMSIS/Include/cmsis_gcc.h **** #endif
  86:Drivers/CMSIS/Include/cmsis_gcc.h **** #ifndef   __UNALIGNED_UINT16_READ
  87:Drivers/CMSIS/Include/cmsis_gcc.h ****   #pragma GCC diagnostic push
  88:Drivers/CMSIS/Include/cmsis_gcc.h ****   #pragma GCC diagnostic ignored "-Wpacked"
  89:Drivers/CMSIS/Include/cmsis_gcc.h ****   #pragma GCC diagnostic ignored "-Wattributes"
  90:Drivers/CMSIS/Include/cmsis_gcc.h ****   __PACKED_STRUCT T_UINT16_READ { uint16_t v; };
  91:Drivers/CMSIS/Include/cmsis_gcc.h ****   #pragma GCC diagnostic pop
  92:Drivers/CMSIS/Include/cmsis_gcc.h ****   #define __UNALIGNED_UINT16_READ(addr)          (((const struct T_UINT16_READ *)(const void *)(add
  93:Drivers/CMSIS/Include/cmsis_gcc.h **** #endif
  94:Drivers/CMSIS/Include/cmsis_gcc.h **** #ifndef   __UNALIGNED_UINT32_WRITE
  95:Drivers/CMSIS/Include/cmsis_gcc.h ****   #pragma GCC diagnostic push
  96:Drivers/CMSIS/Include/cmsis_gcc.h ****   #pragma GCC diagnostic ignored "-Wpacked"
  97:Drivers/CMSIS/Include/cmsis_gcc.h ****   #pragma GCC diagnostic ignored "-Wattributes"
  98:Drivers/CMSIS/Include/cmsis_gcc.h ****   __PACKED_STRUCT T_UINT32_WRITE { uint32_t v; };
  99:Drivers/CMSIS/Include/cmsis_gcc.h ****   #pragma GCC diagnostic pop
 100:Drivers/CMSIS/Include/cmsis_gcc.h ****   #define __UNALIGNED_UINT32_WRITE(addr, val)    (void)((((struct T_UINT32_WRITE *)(void *)(addr))-
 101:Drivers/CMSIS/Include/cmsis_gcc.h **** #endif
 102:Drivers/CMSIS/Include/cmsis_gcc.h **** #ifndef   __UNALIGNED_UINT32_READ
 103:Drivers/CMSIS/Include/cmsis_gcc.h ****   #pragma GCC diagnostic push
 104:Drivers/CMSIS/Include/cmsis_gcc.h ****   #pragma GCC diagnostic ignored "-Wpacked"
 105:Drivers/CMSIS/Include/cmsis_gcc.h ****   #pragma GCC diagnostic ignored "-Wattributes"
 106:Drivers/CMSIS/Include/cmsis_gcc.h ****   __PACKED_STRUCT T_UINT32_READ { uint32_t v; };
 107:Drivers/CMSIS/Include/cmsis_gcc.h ****   #pragma GCC diagnostic pop
 108:Drivers/CMSIS/Include/cmsis_gcc.h ****   #define __UNALIGNED_UINT32_READ(addr)          (((const struct T_UINT32_READ *)(const void *)(add
 109:Drivers/CMSIS/Include/cmsis_gcc.h **** #endif
 110:Drivers/CMSIS/Include/cmsis_gcc.h **** #ifndef   __ALIGNED
 111:Drivers/CMSIS/Include/cmsis_gcc.h ****   #define __ALIGNED(x)                           __attribute__((aligned(x)))
 112:Drivers/CMSIS/Include/cmsis_gcc.h **** #endif
 113:Drivers/CMSIS/Include/cmsis_gcc.h **** #ifndef   __RESTRICT
 114:Drivers/CMSIS/Include/cmsis_gcc.h ****   #define __RESTRICT                             __restrict
 115:Drivers/CMSIS/Include/cmsis_gcc.h **** #endif
 116:Drivers/CMSIS/Include/cmsis_gcc.h **** 
 117:Drivers/CMSIS/Include/cmsis_gcc.h **** 
 118:Drivers/CMSIS/Include/cmsis_gcc.h **** /* ###########################  Core Function Access  ########################### */
 119:Drivers/CMSIS/Include/cmsis_gcc.h **** /** \ingroup  CMSIS_Core_FunctionInterface
 120:Drivers/CMSIS/Include/cmsis_gcc.h ****     \defgroup CMSIS_Core_RegAccFunctions CMSIS Core Register Access Functions
 121:Drivers/CMSIS/Include/cmsis_gcc.h ****   @{
 122:Drivers/CMSIS/Include/cmsis_gcc.h ****  */
 123:Drivers/CMSIS/Include/cmsis_gcc.h **** 
 124:Drivers/CMSIS/Include/cmsis_gcc.h **** /**
ARM GAS  /tmp/ccl1p6uj.s 			page 23


 125:Drivers/CMSIS/Include/cmsis_gcc.h ****   \brief   Enable IRQ Interrupts
 126:Drivers/CMSIS/Include/cmsis_gcc.h ****   \details Enables IRQ interrupts by clearing the I-bit in the CPSR.
 127:Drivers/CMSIS/Include/cmsis_gcc.h ****            Can only be executed in Privileged modes.
 128:Drivers/CMSIS/Include/cmsis_gcc.h ****  */
 129:Drivers/CMSIS/Include/cmsis_gcc.h **** __STATIC_FORCEINLINE void __enable_irq(void)
 130:Drivers/CMSIS/Include/cmsis_gcc.h **** {
 131:Drivers/CMSIS/Include/cmsis_gcc.h ****   __ASM volatile ("cpsie i" : : : "memory");
 132:Drivers/CMSIS/Include/cmsis_gcc.h **** }
 133:Drivers/CMSIS/Include/cmsis_gcc.h **** 
 134:Drivers/CMSIS/Include/cmsis_gcc.h **** 
 135:Drivers/CMSIS/Include/cmsis_gcc.h **** /**
 136:Drivers/CMSIS/Include/cmsis_gcc.h ****   \brief   Disable IRQ Interrupts
 137:Drivers/CMSIS/Include/cmsis_gcc.h ****   \details Disables IRQ interrupts by setting the I-bit in the CPSR.
 138:Drivers/CMSIS/Include/cmsis_gcc.h ****            Can only be executed in Privileged modes.
 139:Drivers/CMSIS/Include/cmsis_gcc.h ****  */
 140:Drivers/CMSIS/Include/cmsis_gcc.h **** __STATIC_FORCEINLINE void __disable_irq(void)
 219              		.loc 4 140 27 view .LVU50
 220              	.LBB29:
 141:Drivers/CMSIS/Include/cmsis_gcc.h **** {
 142:Drivers/CMSIS/Include/cmsis_gcc.h ****   __ASM volatile ("cpsid i" : : : "memory");
 221              		.loc 4 142 3 view .LVU51
 222              		.syntax divided
 223              	@ 142 "Drivers/CMSIS/Include/cmsis_gcc.h" 1
 224 0000 72B6     		cpsid i
 225              	@ 0 "" 2
 226              		.thumb
 227              		.syntax unified
 228              	.L5:
 229              	.LBE29:
 230              	.LBE28:
 412:Core/Src/main.c ****   while (1)
 231              		.loc 1 412 3 discriminator 1 view .LVU52
 413:Core/Src/main.c ****   {
 414:Core/Src/main.c ****   }
 232              		.loc 1 414 3 discriminator 1 view .LVU53
 412:Core/Src/main.c ****   while (1)
 233              		.loc 1 412 9 discriminator 1 view .LVU54
 234 0002 FEE7     		b	.L5
 235              		.cfi_endproc
 236              	.LFE253:
 238              		.section	.text.MX_I2C1_Init,"ax",%progbits
 239              		.align	1
 240              		.syntax unified
 241              		.code	16
 242              		.thumb_func
 244              	MX_I2C1_Init:
 245              	.LFB249:
 207:Core/Src/main.c **** 
 246              		.loc 1 207 1 view -0
 247              		.cfi_startproc
 248              		@ args = 0, pretend = 0, frame = 0
 249              		@ frame_needed = 0, uses_anonymous_args = 0
 250 0000 10B5     		push	{r4, lr}
 251              	.LCFI2:
 252              		.cfi_def_cfa_offset 8
 253              		.cfi_offset 4, -8
 254              		.cfi_offset 14, -4
ARM GAS  /tmp/ccl1p6uj.s 			page 24


 216:Core/Src/main.c ****   hi2c1.Init.Timing = 0x0000020B;
 255              		.loc 1 216 3 view .LVU56
 216:Core/Src/main.c ****   hi2c1.Init.Timing = 0x0000020B;
 256              		.loc 1 216 18 is_stmt 0 view .LVU57
 257 0002 1248     		ldr	r0, .L13
 258 0004 124B     		ldr	r3, .L13+4
 259 0006 0360     		str	r3, [r0]
 217:Core/Src/main.c ****   hi2c1.Init.OwnAddress1 = 0;
 260              		.loc 1 217 3 is_stmt 1 view .LVU58
 217:Core/Src/main.c ****   hi2c1.Init.OwnAddress1 = 0;
 261              		.loc 1 217 21 is_stmt 0 view .LVU59
 262 0008 124B     		ldr	r3, .L13+8
 263 000a 4360     		str	r3, [r0, #4]
 218:Core/Src/main.c ****   hi2c1.Init.AddressingMode = I2C_ADDRESSINGMODE_7BIT;
 264              		.loc 1 218 3 is_stmt 1 view .LVU60
 218:Core/Src/main.c ****   hi2c1.Init.AddressingMode = I2C_ADDRESSINGMODE_7BIT;
 265              		.loc 1 218 26 is_stmt 0 view .LVU61
 266 000c 0023     		movs	r3, #0
 267 000e 8360     		str	r3, [r0, #8]
 219:Core/Src/main.c ****   hi2c1.Init.DualAddressMode = I2C_DUALADDRESS_DISABLE;
 268              		.loc 1 219 3 is_stmt 1 view .LVU62
 219:Core/Src/main.c ****   hi2c1.Init.DualAddressMode = I2C_DUALADDRESS_DISABLE;
 269              		.loc 1 219 29 is_stmt 0 view .LVU63
 270 0010 0122     		movs	r2, #1
 271 0012 C260     		str	r2, [r0, #12]
 220:Core/Src/main.c ****   hi2c1.Init.OwnAddress2 = 0;
 272              		.loc 1 220 3 is_stmt 1 view .LVU64
 220:Core/Src/main.c ****   hi2c1.Init.OwnAddress2 = 0;
 273              		.loc 1 220 30 is_stmt 0 view .LVU65
 274 0014 0361     		str	r3, [r0, #16]
 221:Core/Src/main.c ****   hi2c1.Init.OwnAddress2Masks = I2C_OA2_NOMASK;
 275              		.loc 1 221 3 is_stmt 1 view .LVU66
 221:Core/Src/main.c ****   hi2c1.Init.OwnAddress2Masks = I2C_OA2_NOMASK;
 276              		.loc 1 221 26 is_stmt 0 view .LVU67
 277 0016 4361     		str	r3, [r0, #20]
 222:Core/Src/main.c ****   hi2c1.Init.GeneralCallMode = I2C_GENERALCALL_DISABLE;
 278              		.loc 1 222 3 is_stmt 1 view .LVU68
 222:Core/Src/main.c ****   hi2c1.Init.GeneralCallMode = I2C_GENERALCALL_DISABLE;
 279              		.loc 1 222 31 is_stmt 0 view .LVU69
 280 0018 8361     		str	r3, [r0, #24]
 223:Core/Src/main.c ****   hi2c1.Init.NoStretchMode = I2C_NOSTRETCH_DISABLE;
 281              		.loc 1 223 3 is_stmt 1 view .LVU70
 223:Core/Src/main.c ****   hi2c1.Init.NoStretchMode = I2C_NOSTRETCH_DISABLE;
 282              		.loc 1 223 30 is_stmt 0 view .LVU71
 283 001a C361     		str	r3, [r0, #28]
 224:Core/Src/main.c ****   if (HAL_I2C_Init(&hi2c1) != HAL_OK)
 284              		.loc 1 224 3 is_stmt 1 view .LVU72
 224:Core/Src/main.c ****   if (HAL_I2C_Init(&hi2c1) != HAL_OK)
 285              		.loc 1 224 28 is_stmt 0 view .LVU73
 286 001c 0362     		str	r3, [r0, #32]
 225:Core/Src/main.c ****   {
 287              		.loc 1 225 3 is_stmt 1 view .LVU74
 225:Core/Src/main.c ****   {
 288              		.loc 1 225 7 is_stmt 0 view .LVU75
 289 001e FFF7FEFF 		bl	HAL_I2C_Init
 290              	.LVL7:
 225:Core/Src/main.c ****   {
ARM GAS  /tmp/ccl1p6uj.s 			page 25


 291              		.loc 1 225 6 view .LVU76
 292 0022 0028     		cmp	r0, #0
 293 0024 0CD1     		bne	.L10
 232:Core/Src/main.c ****   {
 294              		.loc 1 232 3 is_stmt 1 view .LVU77
 232:Core/Src/main.c ****   {
 295              		.loc 1 232 7 is_stmt 0 view .LVU78
 296 0026 0021     		movs	r1, #0
 297 0028 0848     		ldr	r0, .L13
 298 002a FFF7FEFF 		bl	HAL_I2CEx_ConfigAnalogFilter
 299              	.LVL8:
 232:Core/Src/main.c ****   {
 300              		.loc 1 232 6 view .LVU79
 301 002e 0028     		cmp	r0, #0
 302 0030 08D1     		bne	.L11
 239:Core/Src/main.c ****   {
 303              		.loc 1 239 3 is_stmt 1 view .LVU80
 239:Core/Src/main.c ****   {
 304              		.loc 1 239 7 is_stmt 0 view .LVU81
 305 0032 0021     		movs	r1, #0
 306 0034 0548     		ldr	r0, .L13
 307 0036 FFF7FEFF 		bl	HAL_I2CEx_ConfigDigitalFilter
 308              	.LVL9:
 239:Core/Src/main.c ****   {
 309              		.loc 1 239 6 view .LVU82
 310 003a 0028     		cmp	r0, #0
 311 003c 04D1     		bne	.L12
 247:Core/Src/main.c **** 
 312              		.loc 1 247 1 view .LVU83
 313              		@ sp needed
 314 003e 10BD     		pop	{r4, pc}
 315              	.L10:
 227:Core/Src/main.c ****   }
 316              		.loc 1 227 5 is_stmt 1 view .LVU84
 317 0040 FFF7FEFF 		bl	Error_Handler
 318              	.LVL10:
 319              	.L11:
 234:Core/Src/main.c ****   }
 320              		.loc 1 234 5 view .LVU85
 321 0044 FFF7FEFF 		bl	Error_Handler
 322              	.LVL11:
 323              	.L12:
 241:Core/Src/main.c ****   }
 324              		.loc 1 241 5 view .LVU86
 325 0048 FFF7FEFF 		bl	Error_Handler
 326              	.LVL12:
 327              	.L14:
 328              		.align	2
 329              	.L13:
 330 004c 00000000 		.word	.LANCHOR0
 331 0050 00540040 		.word	1073763328
 332 0054 0B020000 		.word	523
 333              		.cfi_endproc
 334              	.LFE249:
 336              		.section	.text.MX_TIM1_Init,"ax",%progbits
 337              		.align	1
 338              		.syntax unified
ARM GAS  /tmp/ccl1p6uj.s 			page 26


 339              		.code	16
 340              		.thumb_func
 342              	MX_TIM1_Init:
 343              	.LFB250:
 255:Core/Src/main.c **** 
 344              		.loc 1 255 1 view -0
 345              		.cfi_startproc
 346              		@ args = 0, pretend = 0, frame = 72
 347              		@ frame_needed = 0, uses_anonymous_args = 0
 348 0000 00B5     		push	{lr}
 349              	.LCFI3:
 350              		.cfi_def_cfa_offset 4
 351              		.cfi_offset 14, -4
 352 0002 93B0     		sub	sp, sp, #76
 353              	.LCFI4:
 354              		.cfi_def_cfa_offset 80
 261:Core/Src/main.c ****   TIM_OC_InitTypeDef sConfigOC = {0};
 355              		.loc 1 261 3 view .LVU88
 261:Core/Src/main.c ****   TIM_OC_InitTypeDef sConfigOC = {0};
 356              		.loc 1 261 27 is_stmt 0 view .LVU89
 357 0004 0822     		movs	r2, #8
 358 0006 0021     		movs	r1, #0
 359 0008 10A8     		add	r0, sp, #64
 360 000a FFF7FEFF 		bl	memset
 361              	.LVL13:
 262:Core/Src/main.c ****   TIM_BreakDeadTimeConfigTypeDef sBreakDeadTimeConfig = {0};
 362              		.loc 1 262 3 is_stmt 1 view .LVU90
 262:Core/Src/main.c ****   TIM_BreakDeadTimeConfigTypeDef sBreakDeadTimeConfig = {0};
 363              		.loc 1 262 22 is_stmt 0 view .LVU91
 364 000e 1C22     		movs	r2, #28
 365 0010 0021     		movs	r1, #0
 366 0012 09A8     		add	r0, sp, #36
 367 0014 FFF7FEFF 		bl	memset
 368              	.LVL14:
 263:Core/Src/main.c **** 
 369              		.loc 1 263 3 is_stmt 1 view .LVU92
 263:Core/Src/main.c **** 
 370              		.loc 1 263 34 is_stmt 0 view .LVU93
 371 0018 2022     		movs	r2, #32
 372 001a 0021     		movs	r1, #0
 373 001c 01A8     		add	r0, sp, #4
 374 001e FFF7FEFF 		bl	memset
 375              	.LVL15:
 268:Core/Src/main.c ****   htim1.Init.Prescaler = 48;
 376              		.loc 1 268 3 is_stmt 1 view .LVU94
 268:Core/Src/main.c ****   htim1.Init.Prescaler = 48;
 377              		.loc 1 268 18 is_stmt 0 view .LVU95
 378 0022 2348     		ldr	r0, .L24
 379 0024 234B     		ldr	r3, .L24+4
 380 0026 0360     		str	r3, [r0]
 269:Core/Src/main.c ****   htim1.Init.CounterMode = TIM_COUNTERMODE_UP;
 381              		.loc 1 269 3 is_stmt 1 view .LVU96
 269:Core/Src/main.c ****   htim1.Init.CounterMode = TIM_COUNTERMODE_UP;
 382              		.loc 1 269 24 is_stmt 0 view .LVU97
 383 0028 3023     		movs	r3, #48
 384 002a 4360     		str	r3, [r0, #4]
 270:Core/Src/main.c ****   htim1.Init.Period = 1000;
ARM GAS  /tmp/ccl1p6uj.s 			page 27


 385              		.loc 1 270 3 is_stmt 1 view .LVU98
 270:Core/Src/main.c ****   htim1.Init.Period = 1000;
 386              		.loc 1 270 26 is_stmt 0 view .LVU99
 387 002c 0023     		movs	r3, #0
 388 002e 8360     		str	r3, [r0, #8]
 271:Core/Src/main.c ****   htim1.Init.ClockDivision = TIM_CLOCKDIVISION_DIV1;
 389              		.loc 1 271 3 is_stmt 1 view .LVU100
 271:Core/Src/main.c ****   htim1.Init.ClockDivision = TIM_CLOCKDIVISION_DIV1;
 390              		.loc 1 271 21 is_stmt 0 view .LVU101
 391 0030 FA22     		movs	r2, #250
 392 0032 9200     		lsls	r2, r2, #2
 393 0034 C260     		str	r2, [r0, #12]
 272:Core/Src/main.c ****   htim1.Init.RepetitionCounter = 0;
 394              		.loc 1 272 3 is_stmt 1 view .LVU102
 272:Core/Src/main.c ****   htim1.Init.RepetitionCounter = 0;
 395              		.loc 1 272 28 is_stmt 0 view .LVU103
 396 0036 0361     		str	r3, [r0, #16]
 273:Core/Src/main.c ****   htim1.Init.AutoReloadPreload = TIM_AUTORELOAD_PRELOAD_DISABLE;
 397              		.loc 1 273 3 is_stmt 1 view .LVU104
 273:Core/Src/main.c ****   htim1.Init.AutoReloadPreload = TIM_AUTORELOAD_PRELOAD_DISABLE;
 398              		.loc 1 273 32 is_stmt 0 view .LVU105
 399 0038 4361     		str	r3, [r0, #20]
 274:Core/Src/main.c ****   if (HAL_TIM_PWM_Init(&htim1) != HAL_OK)
 400              		.loc 1 274 3 is_stmt 1 view .LVU106
 274:Core/Src/main.c ****   if (HAL_TIM_PWM_Init(&htim1) != HAL_OK)
 401              		.loc 1 274 32 is_stmt 0 view .LVU107
 402 003a 8361     		str	r3, [r0, #24]
 275:Core/Src/main.c ****   {
 403              		.loc 1 275 3 is_stmt 1 view .LVU108
 275:Core/Src/main.c ****   {
 404              		.loc 1 275 7 is_stmt 0 view .LVU109
 405 003c FFF7FEFF 		bl	HAL_TIM_PWM_Init
 406              	.LVL16:
 275:Core/Src/main.c ****   {
 407              		.loc 1 275 6 view .LVU110
 408 0040 0028     		cmp	r0, #0
 409 0042 2CD1     		bne	.L20
 279:Core/Src/main.c ****   sMasterConfig.MasterSlaveMode = TIM_MASTERSLAVEMODE_DISABLE;
 410              		.loc 1 279 3 is_stmt 1 view .LVU111
 279:Core/Src/main.c ****   sMasterConfig.MasterSlaveMode = TIM_MASTERSLAVEMODE_DISABLE;
 411              		.loc 1 279 37 is_stmt 0 view .LVU112
 412 0044 0023     		movs	r3, #0
 413 0046 1093     		str	r3, [sp, #64]
 280:Core/Src/main.c ****   if (HAL_TIMEx_MasterConfigSynchronization(&htim1, &sMasterConfig) != HAL_OK)
 414              		.loc 1 280 3 is_stmt 1 view .LVU113
 280:Core/Src/main.c ****   if (HAL_TIMEx_MasterConfigSynchronization(&htim1, &sMasterConfig) != HAL_OK)
 415              		.loc 1 280 33 is_stmt 0 view .LVU114
 416 0048 1193     		str	r3, [sp, #68]
 281:Core/Src/main.c ****   {
 417              		.loc 1 281 3 is_stmt 1 view .LVU115
 281:Core/Src/main.c ****   {
 418              		.loc 1 281 7 is_stmt 0 view .LVU116
 419 004a 10A9     		add	r1, sp, #64
 420 004c 1848     		ldr	r0, .L24
 421 004e FFF7FEFF 		bl	HAL_TIMEx_MasterConfigSynchronization
 422              	.LVL17:
 281:Core/Src/main.c ****   {
ARM GAS  /tmp/ccl1p6uj.s 			page 28


 423              		.loc 1 281 6 view .LVU117
 424 0052 0028     		cmp	r0, #0
 425 0054 25D1     		bne	.L21
 285:Core/Src/main.c ****   sConfigOC.Pulse = 0;
 426              		.loc 1 285 3 is_stmt 1 view .LVU118
 285:Core/Src/main.c ****   sConfigOC.Pulse = 0;
 427              		.loc 1 285 20 is_stmt 0 view .LVU119
 428 0056 6023     		movs	r3, #96
 429 0058 0993     		str	r3, [sp, #36]
 286:Core/Src/main.c ****   sConfigOC.OCPolarity = TIM_OCPOLARITY_HIGH;
 430              		.loc 1 286 3 is_stmt 1 view .LVU120
 286:Core/Src/main.c ****   sConfigOC.OCPolarity = TIM_OCPOLARITY_HIGH;
 431              		.loc 1 286 19 is_stmt 0 view .LVU121
 432 005a 0023     		movs	r3, #0
 433 005c 0A93     		str	r3, [sp, #40]
 287:Core/Src/main.c ****   sConfigOC.OCFastMode = TIM_OCFAST_DISABLE;
 434              		.loc 1 287 3 is_stmt 1 view .LVU122
 287:Core/Src/main.c ****   sConfigOC.OCFastMode = TIM_OCFAST_DISABLE;
 435              		.loc 1 287 24 is_stmt 0 view .LVU123
 436 005e 0B93     		str	r3, [sp, #44]
 288:Core/Src/main.c ****   sConfigOC.OCIdleState = TIM_OCIDLESTATE_RESET;
 437              		.loc 1 288 3 is_stmt 1 view .LVU124
 288:Core/Src/main.c ****   sConfigOC.OCIdleState = TIM_OCIDLESTATE_RESET;
 438              		.loc 1 288 24 is_stmt 0 view .LVU125
 439 0060 0D93     		str	r3, [sp, #52]
 289:Core/Src/main.c ****   sConfigOC.OCNIdleState = TIM_OCNIDLESTATE_RESET;
 440              		.loc 1 289 3 is_stmt 1 view .LVU126
 289:Core/Src/main.c ****   sConfigOC.OCNIdleState = TIM_OCNIDLESTATE_RESET;
 441              		.loc 1 289 25 is_stmt 0 view .LVU127
 442 0062 0E93     		str	r3, [sp, #56]
 290:Core/Src/main.c ****   if (HAL_TIM_PWM_ConfigChannel(&htim1, &sConfigOC, TIM_CHANNEL_4) != HAL_OK)
 443              		.loc 1 290 3 is_stmt 1 view .LVU128
 290:Core/Src/main.c ****   if (HAL_TIM_PWM_ConfigChannel(&htim1, &sConfigOC, TIM_CHANNEL_4) != HAL_OK)
 444              		.loc 1 290 26 is_stmt 0 view .LVU129
 445 0064 0F93     		str	r3, [sp, #60]
 291:Core/Src/main.c ****   {
 446              		.loc 1 291 3 is_stmt 1 view .LVU130
 291:Core/Src/main.c ****   {
 447              		.loc 1 291 7 is_stmt 0 view .LVU131
 448 0066 0C22     		movs	r2, #12
 449 0068 09A9     		add	r1, sp, #36
 450 006a 1148     		ldr	r0, .L24
 451 006c FFF7FEFF 		bl	HAL_TIM_PWM_ConfigChannel
 452              	.LVL18:
 291:Core/Src/main.c ****   {
 453              		.loc 1 291 6 view .LVU132
 454 0070 0028     		cmp	r0, #0
 455 0072 18D1     		bne	.L22
 295:Core/Src/main.c ****   sBreakDeadTimeConfig.OffStateIDLEMode = TIM_OSSI_DISABLE;
 456              		.loc 1 295 3 is_stmt 1 view .LVU133
 295:Core/Src/main.c ****   sBreakDeadTimeConfig.OffStateIDLEMode = TIM_OSSI_DISABLE;
 457              		.loc 1 295 40 is_stmt 0 view .LVU134
 458 0074 0023     		movs	r3, #0
 459 0076 0193     		str	r3, [sp, #4]
 296:Core/Src/main.c ****   sBreakDeadTimeConfig.LockLevel = TIM_LOCKLEVEL_OFF;
 460              		.loc 1 296 3 is_stmt 1 view .LVU135
 296:Core/Src/main.c ****   sBreakDeadTimeConfig.LockLevel = TIM_LOCKLEVEL_OFF;
ARM GAS  /tmp/ccl1p6uj.s 			page 29


 461              		.loc 1 296 41 is_stmt 0 view .LVU136
 462 0078 0293     		str	r3, [sp, #8]
 297:Core/Src/main.c ****   sBreakDeadTimeConfig.DeadTime = 0;
 463              		.loc 1 297 3 is_stmt 1 view .LVU137
 297:Core/Src/main.c ****   sBreakDeadTimeConfig.DeadTime = 0;
 464              		.loc 1 297 34 is_stmt 0 view .LVU138
 465 007a 0393     		str	r3, [sp, #12]
 298:Core/Src/main.c ****   sBreakDeadTimeConfig.BreakState = TIM_BREAK_DISABLE;
 466              		.loc 1 298 3 is_stmt 1 view .LVU139
 298:Core/Src/main.c ****   sBreakDeadTimeConfig.BreakState = TIM_BREAK_DISABLE;
 467              		.loc 1 298 33 is_stmt 0 view .LVU140
 468 007c 0493     		str	r3, [sp, #16]
 299:Core/Src/main.c ****   sBreakDeadTimeConfig.BreakPolarity = TIM_BREAKPOLARITY_HIGH;
 469              		.loc 1 299 3 is_stmt 1 view .LVU141
 299:Core/Src/main.c ****   sBreakDeadTimeConfig.BreakPolarity = TIM_BREAKPOLARITY_HIGH;
 470              		.loc 1 299 35 is_stmt 0 view .LVU142
 471 007e 0593     		str	r3, [sp, #20]
 300:Core/Src/main.c ****   sBreakDeadTimeConfig.AutomaticOutput = TIM_AUTOMATICOUTPUT_DISABLE;
 472              		.loc 1 300 3 is_stmt 1 view .LVU143
 300:Core/Src/main.c ****   sBreakDeadTimeConfig.AutomaticOutput = TIM_AUTOMATICOUTPUT_DISABLE;
 473              		.loc 1 300 38 is_stmt 0 view .LVU144
 474 0080 8022     		movs	r2, #128
 475 0082 9201     		lsls	r2, r2, #6
 476 0084 0692     		str	r2, [sp, #24]
 301:Core/Src/main.c ****   if (HAL_TIMEx_ConfigBreakDeadTime(&htim1, &sBreakDeadTimeConfig) != HAL_OK)
 477              		.loc 1 301 3 is_stmt 1 view .LVU145
 301:Core/Src/main.c ****   if (HAL_TIMEx_ConfigBreakDeadTime(&htim1, &sBreakDeadTimeConfig) != HAL_OK)
 478              		.loc 1 301 40 is_stmt 0 view .LVU146
 479 0086 0893     		str	r3, [sp, #32]
 302:Core/Src/main.c ****   {
 480              		.loc 1 302 3 is_stmt 1 view .LVU147
 302:Core/Src/main.c ****   {
 481              		.loc 1 302 7 is_stmt 0 view .LVU148
 482 0088 01A9     		add	r1, sp, #4
 483 008a 0948     		ldr	r0, .L24
 484 008c FFF7FEFF 		bl	HAL_TIMEx_ConfigBreakDeadTime
 485              	.LVL19:
 302:Core/Src/main.c ****   {
 486              		.loc 1 302 6 view .LVU149
 487 0090 0028     		cmp	r0, #0
 488 0092 0AD1     		bne	.L23
 309:Core/Src/main.c **** 
 489              		.loc 1 309 3 is_stmt 1 view .LVU150
 490 0094 0648     		ldr	r0, .L24
 491 0096 FFF7FEFF 		bl	HAL_TIM_MspPostInit
 492              	.LVL20:
 311:Core/Src/main.c **** 
 493              		.loc 1 311 1 is_stmt 0 view .LVU151
 494 009a 13B0     		add	sp, sp, #76
 495              		@ sp needed
 496 009c 00BD     		pop	{pc}
 497              	.L20:
 277:Core/Src/main.c ****   }
 498              		.loc 1 277 5 is_stmt 1 view .LVU152
 499 009e FFF7FEFF 		bl	Error_Handler
 500              	.LVL21:
 501              	.L21:
ARM GAS  /tmp/ccl1p6uj.s 			page 30


 283:Core/Src/main.c ****   }
 502              		.loc 1 283 5 view .LVU153
 503 00a2 FFF7FEFF 		bl	Error_Handler
 504              	.LVL22:
 505              	.L22:
 293:Core/Src/main.c ****   }
 506              		.loc 1 293 5 view .LVU154
 507 00a6 FFF7FEFF 		bl	Error_Handler
 508              	.LVL23:
 509              	.L23:
 304:Core/Src/main.c ****   }
 510              		.loc 1 304 5 view .LVU155
 511 00aa FFF7FEFF 		bl	Error_Handler
 512              	.LVL24:
 513              	.L25:
 514 00ae C046     		.align	2
 515              	.L24:
 516 00b0 00000000 		.word	.LANCHOR1
 517 00b4 002C0140 		.word	1073818624
 518              		.cfi_endproc
 519              	.LFE250:
 521              		.section	.text.MX_TIM2_Init,"ax",%progbits
 522              		.align	1
 523              		.syntax unified
 524              		.code	16
 525              		.thumb_func
 527              	MX_TIM2_Init:
 528              	.LFB251:
 319:Core/Src/main.c **** 
 529              		.loc 1 319 1 view -0
 530              		.cfi_startproc
 531              		@ args = 0, pretend = 0, frame = 40
 532              		@ frame_needed = 0, uses_anonymous_args = 0
 533 0000 00B5     		push	{lr}
 534              	.LCFI5:
 535              		.cfi_def_cfa_offset 4
 536              		.cfi_offset 14, -4
 537 0002 8BB0     		sub	sp, sp, #44
 538              	.LCFI6:
 539              		.cfi_def_cfa_offset 48
 325:Core/Src/main.c ****   TIM_OC_InitTypeDef sConfigOC = {0};
 540              		.loc 1 325 3 view .LVU157
 325:Core/Src/main.c ****   TIM_OC_InitTypeDef sConfigOC = {0};
 541              		.loc 1 325 27 is_stmt 0 view .LVU158
 542 0004 0822     		movs	r2, #8
 543 0006 0021     		movs	r1, #0
 544 0008 08A8     		add	r0, sp, #32
 545 000a FFF7FEFF 		bl	memset
 546              	.LVL25:
 326:Core/Src/main.c **** 
 547              		.loc 1 326 3 is_stmt 1 view .LVU159
 326:Core/Src/main.c **** 
 548              		.loc 1 326 22 is_stmt 0 view .LVU160
 549 000e 1C22     		movs	r2, #28
 550 0010 0021     		movs	r1, #0
 551 0012 01A8     		add	r0, sp, #4
 552 0014 FFF7FEFF 		bl	memset
ARM GAS  /tmp/ccl1p6uj.s 			page 31


 553              	.LVL26:
 331:Core/Src/main.c ****   htim2.Init.Prescaler = 49;
 554              		.loc 1 331 3 is_stmt 1 view .LVU161
 331:Core/Src/main.c ****   htim2.Init.Prescaler = 49;
 555              		.loc 1 331 18 is_stmt 0 view .LVU162
 556 0018 2148     		ldr	r0, .L37
 557 001a 8023     		movs	r3, #128
 558 001c DB05     		lsls	r3, r3, #23
 559 001e 0360     		str	r3, [r0]
 332:Core/Src/main.c ****   htim2.Init.CounterMode = TIM_COUNTERMODE_UP;
 560              		.loc 1 332 3 is_stmt 1 view .LVU163
 332:Core/Src/main.c ****   htim2.Init.CounterMode = TIM_COUNTERMODE_UP;
 561              		.loc 1 332 24 is_stmt 0 view .LVU164
 562 0020 3123     		movs	r3, #49
 563 0022 4360     		str	r3, [r0, #4]
 333:Core/Src/main.c ****   htim2.Init.Period = 20000;
 564              		.loc 1 333 3 is_stmt 1 view .LVU165
 333:Core/Src/main.c ****   htim2.Init.Period = 20000;
 565              		.loc 1 333 26 is_stmt 0 view .LVU166
 566 0024 0023     		movs	r3, #0
 567 0026 8360     		str	r3, [r0, #8]
 334:Core/Src/main.c ****   htim2.Init.ClockDivision = TIM_CLOCKDIVISION_DIV1;
 568              		.loc 1 334 3 is_stmt 1 view .LVU167
 334:Core/Src/main.c ****   htim2.Init.ClockDivision = TIM_CLOCKDIVISION_DIV1;
 569              		.loc 1 334 21 is_stmt 0 view .LVU168
 570 0028 1E4A     		ldr	r2, .L37+4
 571 002a C260     		str	r2, [r0, #12]
 335:Core/Src/main.c ****   htim2.Init.AutoReloadPreload = TIM_AUTORELOAD_PRELOAD_DISABLE;
 572              		.loc 1 335 3 is_stmt 1 view .LVU169
 335:Core/Src/main.c ****   htim2.Init.AutoReloadPreload = TIM_AUTORELOAD_PRELOAD_DISABLE;
 573              		.loc 1 335 28 is_stmt 0 view .LVU170
 574 002c 0361     		str	r3, [r0, #16]
 336:Core/Src/main.c ****   if (HAL_TIM_PWM_Init(&htim2) != HAL_OK)
 575              		.loc 1 336 3 is_stmt 1 view .LVU171
 336:Core/Src/main.c ****   if (HAL_TIM_PWM_Init(&htim2) != HAL_OK)
 576              		.loc 1 336 32 is_stmt 0 view .LVU172
 577 002e 8361     		str	r3, [r0, #24]
 337:Core/Src/main.c ****   {
 578              		.loc 1 337 3 is_stmt 1 view .LVU173
 337:Core/Src/main.c ****   {
 579              		.loc 1 337 7 is_stmt 0 view .LVU174
 580 0030 FFF7FEFF 		bl	HAL_TIM_PWM_Init
 581              	.LVL27:
 337:Core/Src/main.c ****   {
 582              		.loc 1 337 6 view .LVU175
 583 0034 0028     		cmp	r0, #0
 584 0036 28D1     		bne	.L32
 341:Core/Src/main.c ****   sMasterConfig.MasterSlaveMode = TIM_MASTERSLAVEMODE_DISABLE;
 585              		.loc 1 341 3 is_stmt 1 view .LVU176
 341:Core/Src/main.c ****   sMasterConfig.MasterSlaveMode = TIM_MASTERSLAVEMODE_DISABLE;
 586              		.loc 1 341 37 is_stmt 0 view .LVU177
 587 0038 0023     		movs	r3, #0
 588 003a 0893     		str	r3, [sp, #32]
 342:Core/Src/main.c ****   if (HAL_TIMEx_MasterConfigSynchronization(&htim2, &sMasterConfig) != HAL_OK)
 589              		.loc 1 342 3 is_stmt 1 view .LVU178
 342:Core/Src/main.c ****   if (HAL_TIMEx_MasterConfigSynchronization(&htim2, &sMasterConfig) != HAL_OK)
 590              		.loc 1 342 33 is_stmt 0 view .LVU179
ARM GAS  /tmp/ccl1p6uj.s 			page 32


 591 003c 0993     		str	r3, [sp, #36]
 343:Core/Src/main.c ****   {
 592              		.loc 1 343 3 is_stmt 1 view .LVU180
 343:Core/Src/main.c ****   {
 593              		.loc 1 343 7 is_stmt 0 view .LVU181
 594 003e 08A9     		add	r1, sp, #32
 595 0040 1748     		ldr	r0, .L37
 596 0042 FFF7FEFF 		bl	HAL_TIMEx_MasterConfigSynchronization
 597              	.LVL28:
 343:Core/Src/main.c ****   {
 598              		.loc 1 343 6 view .LVU182
 599 0046 0028     		cmp	r0, #0
 600 0048 21D1     		bne	.L33
 347:Core/Src/main.c ****   sConfigOC.Pulse = 0;
 601              		.loc 1 347 3 is_stmt 1 view .LVU183
 347:Core/Src/main.c ****   sConfigOC.Pulse = 0;
 602              		.loc 1 347 20 is_stmt 0 view .LVU184
 603 004a 6023     		movs	r3, #96
 604 004c 0193     		str	r3, [sp, #4]
 348:Core/Src/main.c ****   sConfigOC.OCPolarity = TIM_OCPOLARITY_HIGH;
 605              		.loc 1 348 3 is_stmt 1 view .LVU185
 348:Core/Src/main.c ****   sConfigOC.OCPolarity = TIM_OCPOLARITY_HIGH;
 606              		.loc 1 348 19 is_stmt 0 view .LVU186
 607 004e 0023     		movs	r3, #0
 608 0050 0293     		str	r3, [sp, #8]
 349:Core/Src/main.c ****   sConfigOC.OCFastMode = TIM_OCFAST_DISABLE;
 609              		.loc 1 349 3 is_stmt 1 view .LVU187
 349:Core/Src/main.c ****   sConfigOC.OCFastMode = TIM_OCFAST_DISABLE;
 610              		.loc 1 349 24 is_stmt 0 view .LVU188
 611 0052 0393     		str	r3, [sp, #12]
 350:Core/Src/main.c ****   if (HAL_TIM_PWM_ConfigChannel(&htim2, &sConfigOC, TIM_CHANNEL_1) != HAL_OK)
 612              		.loc 1 350 3 is_stmt 1 view .LVU189
 350:Core/Src/main.c ****   if (HAL_TIM_PWM_ConfigChannel(&htim2, &sConfigOC, TIM_CHANNEL_1) != HAL_OK)
 613              		.loc 1 350 24 is_stmt 0 view .LVU190
 614 0054 0593     		str	r3, [sp, #20]
 351:Core/Src/main.c ****   {
 615              		.loc 1 351 3 is_stmt 1 view .LVU191
 351:Core/Src/main.c ****   {
 616              		.loc 1 351 7 is_stmt 0 view .LVU192
 617 0056 0022     		movs	r2, #0
 618 0058 01A9     		add	r1, sp, #4
 619 005a 1148     		ldr	r0, .L37
 620 005c FFF7FEFF 		bl	HAL_TIM_PWM_ConfigChannel
 621              	.LVL29:
 351:Core/Src/main.c ****   {
 622              		.loc 1 351 6 view .LVU193
 623 0060 0028     		cmp	r0, #0
 624 0062 16D1     		bne	.L34
 355:Core/Src/main.c ****   {
 625              		.loc 1 355 3 is_stmt 1 view .LVU194
 355:Core/Src/main.c ****   {
 626              		.loc 1 355 7 is_stmt 0 view .LVU195
 627 0064 0422     		movs	r2, #4
 628 0066 01A9     		add	r1, sp, #4
 629 0068 0D48     		ldr	r0, .L37
 630 006a FFF7FEFF 		bl	HAL_TIM_PWM_ConfigChannel
 631              	.LVL30:
ARM GAS  /tmp/ccl1p6uj.s 			page 33


 355:Core/Src/main.c ****   {
 632              		.loc 1 355 6 view .LVU196
 633 006e 0028     		cmp	r0, #0
 634 0070 11D1     		bne	.L35
 359:Core/Src/main.c ****   {
 635              		.loc 1 359 3 is_stmt 1 view .LVU197
 359:Core/Src/main.c ****   {
 636              		.loc 1 359 7 is_stmt 0 view .LVU198
 637 0072 0822     		movs	r2, #8
 638 0074 01A9     		add	r1, sp, #4
 639 0076 0A48     		ldr	r0, .L37
 640 0078 FFF7FEFF 		bl	HAL_TIM_PWM_ConfigChannel
 641              	.LVL31:
 359:Core/Src/main.c ****   {
 642              		.loc 1 359 6 view .LVU199
 643 007c 0028     		cmp	r0, #0
 644 007e 0CD1     		bne	.L36
 366:Core/Src/main.c **** 
 645              		.loc 1 366 3 is_stmt 1 view .LVU200
 646 0080 0748     		ldr	r0, .L37
 647 0082 FFF7FEFF 		bl	HAL_TIM_MspPostInit
 648              	.LVL32:
 368:Core/Src/main.c **** 
 649              		.loc 1 368 1 is_stmt 0 view .LVU201
 650 0086 0BB0     		add	sp, sp, #44
 651              		@ sp needed
 652 0088 00BD     		pop	{pc}
 653              	.L32:
 339:Core/Src/main.c ****   }
 654              		.loc 1 339 5 is_stmt 1 view .LVU202
 655 008a FFF7FEFF 		bl	Error_Handler
 656              	.LVL33:
 657              	.L33:
 345:Core/Src/main.c ****   }
 658              		.loc 1 345 5 view .LVU203
 659 008e FFF7FEFF 		bl	Error_Handler
 660              	.LVL34:
 661              	.L34:
 353:Core/Src/main.c ****   }
 662              		.loc 1 353 5 view .LVU204
 663 0092 FFF7FEFF 		bl	Error_Handler
 664              	.LVL35:
 665              	.L35:
 357:Core/Src/main.c ****   }
 666              		.loc 1 357 5 view .LVU205
 667 0096 FFF7FEFF 		bl	Error_Handler
 668              	.LVL36:
 669              	.L36:
 361:Core/Src/main.c ****   }
 670              		.loc 1 361 5 view .LVU206
 671 009a FFF7FEFF 		bl	Error_Handler
 672              	.LVL37:
 673              	.L38:
 674 009e C046     		.align	2
 675              	.L37:
 676 00a0 00000000 		.word	.LANCHOR2
 677 00a4 204E0000 		.word	20000
ARM GAS  /tmp/ccl1p6uj.s 			page 34


 678              		.cfi_endproc
 679              	.LFE251:
 681              		.section	.text.SystemClock_Config,"ax",%progbits
 682              		.align	1
 683              		.global	SystemClock_Config
 684              		.syntax unified
 685              		.code	16
 686              		.thumb_func
 688              	SystemClock_Config:
 689              	.LFB248:
 157:Core/Src/main.c ****   RCC_OscInitTypeDef RCC_OscInitStruct = {0};
 690              		.loc 1 157 1 view -0
 691              		.cfi_startproc
 692              		@ args = 0, pretend = 0, frame = 88
 693              		@ frame_needed = 0, uses_anonymous_args = 0
 694 0000 00B5     		push	{lr}
 695              	.LCFI7:
 696              		.cfi_def_cfa_offset 4
 697              		.cfi_offset 14, -4
 698 0002 97B0     		sub	sp, sp, #92
 699              	.LCFI8:
 700              		.cfi_def_cfa_offset 96
 158:Core/Src/main.c ****   RCC_ClkInitTypeDef RCC_ClkInitStruct = {0};
 701              		.loc 1 158 3 view .LVU208
 158:Core/Src/main.c ****   RCC_ClkInitTypeDef RCC_ClkInitStruct = {0};
 702              		.loc 1 158 22 is_stmt 0 view .LVU209
 703 0004 3022     		movs	r2, #48
 704 0006 0021     		movs	r1, #0
 705 0008 0AA8     		add	r0, sp, #40
 706 000a FFF7FEFF 		bl	memset
 707              	.LVL38:
 159:Core/Src/main.c ****   RCC_PeriphCLKInitTypeDef PeriphClkInit = {0};
 708              		.loc 1 159 3 is_stmt 1 view .LVU210
 159:Core/Src/main.c ****   RCC_PeriphCLKInitTypeDef PeriphClkInit = {0};
 709              		.loc 1 159 22 is_stmt 0 view .LVU211
 710 000e 1022     		movs	r2, #16
 711 0010 0021     		movs	r1, #0
 712 0012 06A8     		add	r0, sp, #24
 713 0014 FFF7FEFF 		bl	memset
 714              	.LVL39:
 160:Core/Src/main.c **** 
 715              		.loc 1 160 3 is_stmt 1 view .LVU212
 160:Core/Src/main.c **** 
 716              		.loc 1 160 28 is_stmt 0 view .LVU213
 717 0018 1422     		movs	r2, #20
 718 001a 0021     		movs	r1, #0
 719 001c 01A8     		add	r0, sp, #4
 720 001e FFF7FEFF 		bl	memset
 721              	.LVL40:
 165:Core/Src/main.c ****   RCC_OscInitStruct.HSEState = RCC_HSE_ON;
 722              		.loc 1 165 3 is_stmt 1 view .LVU214
 165:Core/Src/main.c ****   RCC_OscInitStruct.HSEState = RCC_HSE_ON;
 723              		.loc 1 165 36 is_stmt 0 view .LVU215
 724 0022 0323     		movs	r3, #3
 725 0024 0A93     		str	r3, [sp, #40]
 166:Core/Src/main.c ****   RCC_OscInitStruct.HSIState = RCC_HSI_ON;
 726              		.loc 1 166 3 is_stmt 1 view .LVU216
ARM GAS  /tmp/ccl1p6uj.s 			page 35


 166:Core/Src/main.c ****   RCC_OscInitStruct.HSIState = RCC_HSI_ON;
 727              		.loc 1 166 30 is_stmt 0 view .LVU217
 728 0026 023B     		subs	r3, r3, #2
 729 0028 0B93     		str	r3, [sp, #44]
 167:Core/Src/main.c ****   RCC_OscInitStruct.HSICalibrationValue = RCC_HSICALIBRATION_DEFAULT;
 730              		.loc 1 167 3 is_stmt 1 view .LVU218
 167:Core/Src/main.c ****   RCC_OscInitStruct.HSICalibrationValue = RCC_HSICALIBRATION_DEFAULT;
 731              		.loc 1 167 30 is_stmt 0 view .LVU219
 732 002a 0D93     		str	r3, [sp, #52]
 168:Core/Src/main.c ****   RCC_OscInitStruct.PLL.PLLState = RCC_PLL_ON;
 733              		.loc 1 168 3 is_stmt 1 view .LVU220
 168:Core/Src/main.c ****   RCC_OscInitStruct.PLL.PLLState = RCC_PLL_ON;
 734              		.loc 1 168 41 is_stmt 0 view .LVU221
 735 002c 0F33     		adds	r3, r3, #15
 736 002e 0E93     		str	r3, [sp, #56]
 169:Core/Src/main.c ****   RCC_OscInitStruct.PLL.PLLSource = RCC_PLLSOURCE_HSE;
 737              		.loc 1 169 3 is_stmt 1 view .LVU222
 169:Core/Src/main.c ****   RCC_OscInitStruct.PLL.PLLSource = RCC_PLLSOURCE_HSE;
 738              		.loc 1 169 34 is_stmt 0 view .LVU223
 739 0030 0E3B     		subs	r3, r3, #14
 740 0032 1293     		str	r3, [sp, #72]
 170:Core/Src/main.c ****   RCC_OscInitStruct.PLL.PLLMUL = RCC_PLL_MUL6;
 741              		.loc 1 170 3 is_stmt 1 view .LVU224
 170:Core/Src/main.c ****   RCC_OscInitStruct.PLL.PLLMUL = RCC_PLL_MUL6;
 742              		.loc 1 170 35 is_stmt 0 view .LVU225
 743 0034 8023     		movs	r3, #128
 744 0036 5B02     		lsls	r3, r3, #9
 745 0038 1393     		str	r3, [sp, #76]
 171:Core/Src/main.c ****   RCC_OscInitStruct.PLL.PREDIV = RCC_PREDIV_DIV1;
 746              		.loc 1 171 3 is_stmt 1 view .LVU226
 171:Core/Src/main.c ****   RCC_OscInitStruct.PLL.PREDIV = RCC_PREDIV_DIV1;
 747              		.loc 1 171 32 is_stmt 0 view .LVU227
 748 003a 8023     		movs	r3, #128
 749 003c 5B03     		lsls	r3, r3, #13
 750 003e 1493     		str	r3, [sp, #80]
 172:Core/Src/main.c ****   if (HAL_RCC_OscConfig(&RCC_OscInitStruct) != HAL_OK)
 751              		.loc 1 172 3 is_stmt 1 view .LVU228
 173:Core/Src/main.c ****   {
 752              		.loc 1 173 3 view .LVU229
 173:Core/Src/main.c ****   {
 753              		.loc 1 173 7 is_stmt 0 view .LVU230
 754 0040 0AA8     		add	r0, sp, #40
 755 0042 FFF7FEFF 		bl	HAL_RCC_OscConfig
 756              	.LVL41:
 173:Core/Src/main.c ****   {
 757              		.loc 1 173 6 view .LVU231
 758 0046 0028     		cmp	r0, #0
 759 0048 22D1     		bne	.L43
 180:Core/Src/main.c ****                               |RCC_CLOCKTYPE_PCLK1;
 760              		.loc 1 180 3 is_stmt 1 view .LVU232
 180:Core/Src/main.c ****                               |RCC_CLOCKTYPE_PCLK1;
 761              		.loc 1 180 31 is_stmt 0 view .LVU233
 762 004a 0723     		movs	r3, #7
 763 004c 0693     		str	r3, [sp, #24]
 182:Core/Src/main.c ****   RCC_ClkInitStruct.AHBCLKDivider = RCC_SYSCLK_DIV1;
 764              		.loc 1 182 3 is_stmt 1 view .LVU234
 182:Core/Src/main.c ****   RCC_ClkInitStruct.AHBCLKDivider = RCC_SYSCLK_DIV1;
ARM GAS  /tmp/ccl1p6uj.s 			page 36


 765              		.loc 1 182 34 is_stmt 0 view .LVU235
 766 004e 053B     		subs	r3, r3, #5
 767 0050 0793     		str	r3, [sp, #28]
 183:Core/Src/main.c ****   RCC_ClkInitStruct.APB1CLKDivider = RCC_HCLK_DIV1;
 768              		.loc 1 183 3 is_stmt 1 view .LVU236
 183:Core/Src/main.c ****   RCC_ClkInitStruct.APB1CLKDivider = RCC_HCLK_DIV1;
 769              		.loc 1 183 35 is_stmt 0 view .LVU237
 770 0052 0023     		movs	r3, #0
 771 0054 0893     		str	r3, [sp, #32]
 184:Core/Src/main.c **** 
 772              		.loc 1 184 3 is_stmt 1 view .LVU238
 184:Core/Src/main.c **** 
 773              		.loc 1 184 36 is_stmt 0 view .LVU239
 774 0056 0993     		str	r3, [sp, #36]
 186:Core/Src/main.c ****   {
 775              		.loc 1 186 3 is_stmt 1 view .LVU240
 186:Core/Src/main.c ****   {
 776              		.loc 1 186 7 is_stmt 0 view .LVU241
 777 0058 0121     		movs	r1, #1
 778 005a 06A8     		add	r0, sp, #24
 779 005c FFF7FEFF 		bl	HAL_RCC_ClockConfig
 780              	.LVL42:
 186:Core/Src/main.c ****   {
 781              		.loc 1 186 6 view .LVU242
 782 0060 0028     		cmp	r0, #0
 783 0062 17D1     		bne	.L44
 190:Core/Src/main.c ****   PeriphClkInit.I2c1ClockSelection = RCC_I2C1CLKSOURCE_HSI;
 784              		.loc 1 190 3 is_stmt 1 view .LVU243
 190:Core/Src/main.c ****   PeriphClkInit.I2c1ClockSelection = RCC_I2C1CLKSOURCE_HSI;
 785              		.loc 1 190 38 is_stmt 0 view .LVU244
 786 0064 2023     		movs	r3, #32
 787 0066 0193     		str	r3, [sp, #4]
 191:Core/Src/main.c ****   if (HAL_RCCEx_PeriphCLKConfig(&PeriphClkInit) != HAL_OK)
 788              		.loc 1 191 3 is_stmt 1 view .LVU245
 191:Core/Src/main.c ****   if (HAL_RCCEx_PeriphCLKConfig(&PeriphClkInit) != HAL_OK)
 789              		.loc 1 191 36 is_stmt 0 view .LVU246
 790 0068 0023     		movs	r3, #0
 791 006a 0493     		str	r3, [sp, #16]
 192:Core/Src/main.c ****   {
 792              		.loc 1 192 3 is_stmt 1 view .LVU247
 192:Core/Src/main.c ****   {
 793              		.loc 1 192 7 is_stmt 0 view .LVU248
 794 006c 01A8     		add	r0, sp, #4
 795 006e FFF7FEFF 		bl	HAL_RCCEx_PeriphCLKConfig
 796              	.LVL43:
 192:Core/Src/main.c ****   {
 797              		.loc 1 192 6 view .LVU249
 798 0072 0028     		cmp	r0, #0
 799 0074 10D1     		bne	.L45
 197:Core/Src/main.c ****   LL_SYSTICK_EnableIT();
 800              		.loc 1 197 3 is_stmt 1 view .LVU250
 801              	.LVL44:
 802              	.LBB30:
 803              	.LBI30:
 804              		.file 5 "Drivers/STM32F0xx_HAL_Driver/Inc/stm32f0xx_ll_utils.h"
   1:Drivers/STM32F0xx_HAL_Driver/Inc/stm32f0xx_ll_utils.h **** /**
   2:Drivers/STM32F0xx_HAL_Driver/Inc/stm32f0xx_ll_utils.h ****   ******************************************************************************
ARM GAS  /tmp/ccl1p6uj.s 			page 37


   3:Drivers/STM32F0xx_HAL_Driver/Inc/stm32f0xx_ll_utils.h ****   * @file    stm32f0xx_ll_utils.h
   4:Drivers/STM32F0xx_HAL_Driver/Inc/stm32f0xx_ll_utils.h ****   * @author  MCD Application Team
   5:Drivers/STM32F0xx_HAL_Driver/Inc/stm32f0xx_ll_utils.h ****   * @brief   Header file of UTILS LL module.
   6:Drivers/STM32F0xx_HAL_Driver/Inc/stm32f0xx_ll_utils.h ****   @verbatim
   7:Drivers/STM32F0xx_HAL_Driver/Inc/stm32f0xx_ll_utils.h ****   ==============================================================================
   8:Drivers/STM32F0xx_HAL_Driver/Inc/stm32f0xx_ll_utils.h ****                      ##### How to use this driver #####
   9:Drivers/STM32F0xx_HAL_Driver/Inc/stm32f0xx_ll_utils.h ****   ==============================================================================
  10:Drivers/STM32F0xx_HAL_Driver/Inc/stm32f0xx_ll_utils.h ****     [..]
  11:Drivers/STM32F0xx_HAL_Driver/Inc/stm32f0xx_ll_utils.h ****     The LL UTILS driver contains a set of generic APIs that can be
  12:Drivers/STM32F0xx_HAL_Driver/Inc/stm32f0xx_ll_utils.h ****     used by user:
  13:Drivers/STM32F0xx_HAL_Driver/Inc/stm32f0xx_ll_utils.h ****       (+) Device electronic signature
  14:Drivers/STM32F0xx_HAL_Driver/Inc/stm32f0xx_ll_utils.h ****       (+) Timing functions
  15:Drivers/STM32F0xx_HAL_Driver/Inc/stm32f0xx_ll_utils.h ****       (+) PLL configuration functions
  16:Drivers/STM32F0xx_HAL_Driver/Inc/stm32f0xx_ll_utils.h **** 
  17:Drivers/STM32F0xx_HAL_Driver/Inc/stm32f0xx_ll_utils.h ****   @endverbatim
  18:Drivers/STM32F0xx_HAL_Driver/Inc/stm32f0xx_ll_utils.h ****   ******************************************************************************
  19:Drivers/STM32F0xx_HAL_Driver/Inc/stm32f0xx_ll_utils.h ****   * @attention
  20:Drivers/STM32F0xx_HAL_Driver/Inc/stm32f0xx_ll_utils.h ****   *
  21:Drivers/STM32F0xx_HAL_Driver/Inc/stm32f0xx_ll_utils.h ****   * <h2><center>&copy; Copyright (c) 2016 STMicroelectronics.
  22:Drivers/STM32F0xx_HAL_Driver/Inc/stm32f0xx_ll_utils.h ****   * All rights reserved.</center></h2>
  23:Drivers/STM32F0xx_HAL_Driver/Inc/stm32f0xx_ll_utils.h ****   *
  24:Drivers/STM32F0xx_HAL_Driver/Inc/stm32f0xx_ll_utils.h ****   * This software component is licensed by ST under BSD 3-Clause license,
  25:Drivers/STM32F0xx_HAL_Driver/Inc/stm32f0xx_ll_utils.h ****   * the "License"; You may not use this file except in compliance with the
  26:Drivers/STM32F0xx_HAL_Driver/Inc/stm32f0xx_ll_utils.h ****   * License. You may obtain a copy of the License at:
  27:Drivers/STM32F0xx_HAL_Driver/Inc/stm32f0xx_ll_utils.h ****   *                        opensource.org/licenses/BSD-3-Clause
  28:Drivers/STM32F0xx_HAL_Driver/Inc/stm32f0xx_ll_utils.h ****   *
  29:Drivers/STM32F0xx_HAL_Driver/Inc/stm32f0xx_ll_utils.h ****   ******************************************************************************
  30:Drivers/STM32F0xx_HAL_Driver/Inc/stm32f0xx_ll_utils.h ****   */
  31:Drivers/STM32F0xx_HAL_Driver/Inc/stm32f0xx_ll_utils.h **** 
  32:Drivers/STM32F0xx_HAL_Driver/Inc/stm32f0xx_ll_utils.h **** /* Define to prevent recursive inclusion -------------------------------------*/
  33:Drivers/STM32F0xx_HAL_Driver/Inc/stm32f0xx_ll_utils.h **** #ifndef __STM32F0xx_LL_UTILS_H
  34:Drivers/STM32F0xx_HAL_Driver/Inc/stm32f0xx_ll_utils.h **** #define __STM32F0xx_LL_UTILS_H
  35:Drivers/STM32F0xx_HAL_Driver/Inc/stm32f0xx_ll_utils.h **** 
  36:Drivers/STM32F0xx_HAL_Driver/Inc/stm32f0xx_ll_utils.h **** #ifdef __cplusplus
  37:Drivers/STM32F0xx_HAL_Driver/Inc/stm32f0xx_ll_utils.h **** extern "C" {
  38:Drivers/STM32F0xx_HAL_Driver/Inc/stm32f0xx_ll_utils.h **** #endif
  39:Drivers/STM32F0xx_HAL_Driver/Inc/stm32f0xx_ll_utils.h **** 
  40:Drivers/STM32F0xx_HAL_Driver/Inc/stm32f0xx_ll_utils.h **** /* Includes ------------------------------------------------------------------*/
  41:Drivers/STM32F0xx_HAL_Driver/Inc/stm32f0xx_ll_utils.h **** #include "stm32f0xx.h"
  42:Drivers/STM32F0xx_HAL_Driver/Inc/stm32f0xx_ll_utils.h **** 
  43:Drivers/STM32F0xx_HAL_Driver/Inc/stm32f0xx_ll_utils.h **** /** @addtogroup STM32F0xx_LL_Driver
  44:Drivers/STM32F0xx_HAL_Driver/Inc/stm32f0xx_ll_utils.h ****   * @{
  45:Drivers/STM32F0xx_HAL_Driver/Inc/stm32f0xx_ll_utils.h ****   */
  46:Drivers/STM32F0xx_HAL_Driver/Inc/stm32f0xx_ll_utils.h **** 
  47:Drivers/STM32F0xx_HAL_Driver/Inc/stm32f0xx_ll_utils.h **** /** @defgroup UTILS_LL UTILS
  48:Drivers/STM32F0xx_HAL_Driver/Inc/stm32f0xx_ll_utils.h ****   * @{
  49:Drivers/STM32F0xx_HAL_Driver/Inc/stm32f0xx_ll_utils.h ****   */
  50:Drivers/STM32F0xx_HAL_Driver/Inc/stm32f0xx_ll_utils.h **** 
  51:Drivers/STM32F0xx_HAL_Driver/Inc/stm32f0xx_ll_utils.h **** /* Private types -------------------------------------------------------------*/
  52:Drivers/STM32F0xx_HAL_Driver/Inc/stm32f0xx_ll_utils.h **** /* Private variables ---------------------------------------------------------*/
  53:Drivers/STM32F0xx_HAL_Driver/Inc/stm32f0xx_ll_utils.h **** 
  54:Drivers/STM32F0xx_HAL_Driver/Inc/stm32f0xx_ll_utils.h **** /* Private constants ---------------------------------------------------------*/
  55:Drivers/STM32F0xx_HAL_Driver/Inc/stm32f0xx_ll_utils.h **** /** @defgroup UTILS_LL_Private_Constants UTILS Private Constants
  56:Drivers/STM32F0xx_HAL_Driver/Inc/stm32f0xx_ll_utils.h ****   * @{
  57:Drivers/STM32F0xx_HAL_Driver/Inc/stm32f0xx_ll_utils.h ****   */
  58:Drivers/STM32F0xx_HAL_Driver/Inc/stm32f0xx_ll_utils.h **** 
  59:Drivers/STM32F0xx_HAL_Driver/Inc/stm32f0xx_ll_utils.h **** /* Max delay can be used in LL_mDelay */
ARM GAS  /tmp/ccl1p6uj.s 			page 38


  60:Drivers/STM32F0xx_HAL_Driver/Inc/stm32f0xx_ll_utils.h **** #define LL_MAX_DELAY                  0xFFFFFFFFU
  61:Drivers/STM32F0xx_HAL_Driver/Inc/stm32f0xx_ll_utils.h **** 
  62:Drivers/STM32F0xx_HAL_Driver/Inc/stm32f0xx_ll_utils.h **** /**
  63:Drivers/STM32F0xx_HAL_Driver/Inc/stm32f0xx_ll_utils.h ****  * @brief Unique device ID register base address
  64:Drivers/STM32F0xx_HAL_Driver/Inc/stm32f0xx_ll_utils.h ****  */
  65:Drivers/STM32F0xx_HAL_Driver/Inc/stm32f0xx_ll_utils.h **** #define UID_BASE_ADDRESS              UID_BASE
  66:Drivers/STM32F0xx_HAL_Driver/Inc/stm32f0xx_ll_utils.h **** 
  67:Drivers/STM32F0xx_HAL_Driver/Inc/stm32f0xx_ll_utils.h **** /**
  68:Drivers/STM32F0xx_HAL_Driver/Inc/stm32f0xx_ll_utils.h ****  * @brief Flash size data register base address
  69:Drivers/STM32F0xx_HAL_Driver/Inc/stm32f0xx_ll_utils.h ****  */
  70:Drivers/STM32F0xx_HAL_Driver/Inc/stm32f0xx_ll_utils.h **** #define FLASHSIZE_BASE_ADDRESS        FLASHSIZE_BASE
  71:Drivers/STM32F0xx_HAL_Driver/Inc/stm32f0xx_ll_utils.h **** 
  72:Drivers/STM32F0xx_HAL_Driver/Inc/stm32f0xx_ll_utils.h **** /**
  73:Drivers/STM32F0xx_HAL_Driver/Inc/stm32f0xx_ll_utils.h ****   * @}
  74:Drivers/STM32F0xx_HAL_Driver/Inc/stm32f0xx_ll_utils.h ****   */
  75:Drivers/STM32F0xx_HAL_Driver/Inc/stm32f0xx_ll_utils.h **** 
  76:Drivers/STM32F0xx_HAL_Driver/Inc/stm32f0xx_ll_utils.h **** /* Private macros ------------------------------------------------------------*/
  77:Drivers/STM32F0xx_HAL_Driver/Inc/stm32f0xx_ll_utils.h **** /** @defgroup UTILS_LL_Private_Macros UTILS Private Macros
  78:Drivers/STM32F0xx_HAL_Driver/Inc/stm32f0xx_ll_utils.h ****   * @{
  79:Drivers/STM32F0xx_HAL_Driver/Inc/stm32f0xx_ll_utils.h ****   */
  80:Drivers/STM32F0xx_HAL_Driver/Inc/stm32f0xx_ll_utils.h **** /**
  81:Drivers/STM32F0xx_HAL_Driver/Inc/stm32f0xx_ll_utils.h ****   * @}
  82:Drivers/STM32F0xx_HAL_Driver/Inc/stm32f0xx_ll_utils.h ****   */
  83:Drivers/STM32F0xx_HAL_Driver/Inc/stm32f0xx_ll_utils.h **** /* Exported types ------------------------------------------------------------*/
  84:Drivers/STM32F0xx_HAL_Driver/Inc/stm32f0xx_ll_utils.h **** /** @defgroup UTILS_LL_ES_INIT UTILS Exported structures
  85:Drivers/STM32F0xx_HAL_Driver/Inc/stm32f0xx_ll_utils.h ****   * @{
  86:Drivers/STM32F0xx_HAL_Driver/Inc/stm32f0xx_ll_utils.h ****   */
  87:Drivers/STM32F0xx_HAL_Driver/Inc/stm32f0xx_ll_utils.h **** /**
  88:Drivers/STM32F0xx_HAL_Driver/Inc/stm32f0xx_ll_utils.h ****   * @brief  UTILS PLL structure definition
  89:Drivers/STM32F0xx_HAL_Driver/Inc/stm32f0xx_ll_utils.h ****   */
  90:Drivers/STM32F0xx_HAL_Driver/Inc/stm32f0xx_ll_utils.h **** typedef struct
  91:Drivers/STM32F0xx_HAL_Driver/Inc/stm32f0xx_ll_utils.h **** {
  92:Drivers/STM32F0xx_HAL_Driver/Inc/stm32f0xx_ll_utils.h ****   uint32_t PLLMul;   /*!< Multiplication factor for PLL VCO input clock.
  93:Drivers/STM32F0xx_HAL_Driver/Inc/stm32f0xx_ll_utils.h ****                           This parameter can be a value of @ref RCC_LL_EC_PLL_MUL
  94:Drivers/STM32F0xx_HAL_Driver/Inc/stm32f0xx_ll_utils.h **** 
  95:Drivers/STM32F0xx_HAL_Driver/Inc/stm32f0xx_ll_utils.h ****                           This feature can be modified afterwards using unitary function
  96:Drivers/STM32F0xx_HAL_Driver/Inc/stm32f0xx_ll_utils.h ****                           @ref LL_RCC_PLL_ConfigDomain_SYS(). */
  97:Drivers/STM32F0xx_HAL_Driver/Inc/stm32f0xx_ll_utils.h **** 
  98:Drivers/STM32F0xx_HAL_Driver/Inc/stm32f0xx_ll_utils.h **** #if defined(RCC_PLLSRC_PREDIV1_SUPPORT)
  99:Drivers/STM32F0xx_HAL_Driver/Inc/stm32f0xx_ll_utils.h ****   uint32_t PLLDiv;   /*!< Division factor for PLL VCO output clock.
 100:Drivers/STM32F0xx_HAL_Driver/Inc/stm32f0xx_ll_utils.h ****                           This parameter can be a value of @ref RCC_LL_EC_PREDIV_DIV 
 101:Drivers/STM32F0xx_HAL_Driver/Inc/stm32f0xx_ll_utils.h ****   
 102:Drivers/STM32F0xx_HAL_Driver/Inc/stm32f0xx_ll_utils.h ****                           This feature can be modified afterwards using unitary function
 103:Drivers/STM32F0xx_HAL_Driver/Inc/stm32f0xx_ll_utils.h ****                           @ref LL_RCC_PLL_ConfigDomain_SYS(). */
 104:Drivers/STM32F0xx_HAL_Driver/Inc/stm32f0xx_ll_utils.h **** #else
 105:Drivers/STM32F0xx_HAL_Driver/Inc/stm32f0xx_ll_utils.h ****   uint32_t Prediv;   /*!< Division factor for HSE used as PLL clock source.
 106:Drivers/STM32F0xx_HAL_Driver/Inc/stm32f0xx_ll_utils.h ****                           This parameter can be a value of @ref RCC_LL_EC_PREDIV_DIV 
 107:Drivers/STM32F0xx_HAL_Driver/Inc/stm32f0xx_ll_utils.h ****   
 108:Drivers/STM32F0xx_HAL_Driver/Inc/stm32f0xx_ll_utils.h ****                           This feature can be modified afterwards using unitary function
 109:Drivers/STM32F0xx_HAL_Driver/Inc/stm32f0xx_ll_utils.h ****                           @ref LL_RCC_PLL_ConfigDomain_SYS(). */
 110:Drivers/STM32F0xx_HAL_Driver/Inc/stm32f0xx_ll_utils.h **** #endif /* RCC_PLLSRC_PREDIV1_SUPPORT */
 111:Drivers/STM32F0xx_HAL_Driver/Inc/stm32f0xx_ll_utils.h **** } LL_UTILS_PLLInitTypeDef;
 112:Drivers/STM32F0xx_HAL_Driver/Inc/stm32f0xx_ll_utils.h **** 
 113:Drivers/STM32F0xx_HAL_Driver/Inc/stm32f0xx_ll_utils.h **** /**
 114:Drivers/STM32F0xx_HAL_Driver/Inc/stm32f0xx_ll_utils.h ****   * @brief  UTILS System, AHB and APB buses clock configuration structure definition
 115:Drivers/STM32F0xx_HAL_Driver/Inc/stm32f0xx_ll_utils.h ****   */
 116:Drivers/STM32F0xx_HAL_Driver/Inc/stm32f0xx_ll_utils.h **** typedef struct
ARM GAS  /tmp/ccl1p6uj.s 			page 39


 117:Drivers/STM32F0xx_HAL_Driver/Inc/stm32f0xx_ll_utils.h **** {
 118:Drivers/STM32F0xx_HAL_Driver/Inc/stm32f0xx_ll_utils.h ****   uint32_t AHBCLKDivider;         /*!< The AHB clock (HCLK) divider. This clock is derived from the
 119:Drivers/STM32F0xx_HAL_Driver/Inc/stm32f0xx_ll_utils.h ****                                        This parameter can be a value of @ref RCC_LL_EC_SYSCLK_DIV
 120:Drivers/STM32F0xx_HAL_Driver/Inc/stm32f0xx_ll_utils.h **** 
 121:Drivers/STM32F0xx_HAL_Driver/Inc/stm32f0xx_ll_utils.h ****                                        This feature can be modified afterwards using unitary functi
 122:Drivers/STM32F0xx_HAL_Driver/Inc/stm32f0xx_ll_utils.h ****                                        @ref LL_RCC_SetAHBPrescaler(). */
 123:Drivers/STM32F0xx_HAL_Driver/Inc/stm32f0xx_ll_utils.h **** 
 124:Drivers/STM32F0xx_HAL_Driver/Inc/stm32f0xx_ll_utils.h ****   uint32_t APB1CLKDivider;        /*!< The APB1 clock (PCLK1) divider. This clock is derived from t
 125:Drivers/STM32F0xx_HAL_Driver/Inc/stm32f0xx_ll_utils.h ****                                        This parameter can be a value of @ref RCC_LL_EC_APB1_DIV
 126:Drivers/STM32F0xx_HAL_Driver/Inc/stm32f0xx_ll_utils.h **** 
 127:Drivers/STM32F0xx_HAL_Driver/Inc/stm32f0xx_ll_utils.h ****                                        This feature can be modified afterwards using unitary functi
 128:Drivers/STM32F0xx_HAL_Driver/Inc/stm32f0xx_ll_utils.h ****                                        @ref LL_RCC_SetAPB1Prescaler(). */
 129:Drivers/STM32F0xx_HAL_Driver/Inc/stm32f0xx_ll_utils.h **** } LL_UTILS_ClkInitTypeDef;
 130:Drivers/STM32F0xx_HAL_Driver/Inc/stm32f0xx_ll_utils.h **** 
 131:Drivers/STM32F0xx_HAL_Driver/Inc/stm32f0xx_ll_utils.h **** /**
 132:Drivers/STM32F0xx_HAL_Driver/Inc/stm32f0xx_ll_utils.h ****   * @}
 133:Drivers/STM32F0xx_HAL_Driver/Inc/stm32f0xx_ll_utils.h ****   */
 134:Drivers/STM32F0xx_HAL_Driver/Inc/stm32f0xx_ll_utils.h **** 
 135:Drivers/STM32F0xx_HAL_Driver/Inc/stm32f0xx_ll_utils.h **** /* Exported constants --------------------------------------------------------*/
 136:Drivers/STM32F0xx_HAL_Driver/Inc/stm32f0xx_ll_utils.h **** /** @defgroup UTILS_LL_Exported_Constants UTILS Exported Constants
 137:Drivers/STM32F0xx_HAL_Driver/Inc/stm32f0xx_ll_utils.h ****   * @{
 138:Drivers/STM32F0xx_HAL_Driver/Inc/stm32f0xx_ll_utils.h ****   */
 139:Drivers/STM32F0xx_HAL_Driver/Inc/stm32f0xx_ll_utils.h **** 
 140:Drivers/STM32F0xx_HAL_Driver/Inc/stm32f0xx_ll_utils.h **** /** @defgroup UTILS_EC_HSE_BYPASS HSE Bypass activation
 141:Drivers/STM32F0xx_HAL_Driver/Inc/stm32f0xx_ll_utils.h ****   * @{
 142:Drivers/STM32F0xx_HAL_Driver/Inc/stm32f0xx_ll_utils.h ****   */
 143:Drivers/STM32F0xx_HAL_Driver/Inc/stm32f0xx_ll_utils.h **** #define LL_UTILS_HSEBYPASS_OFF        0x00000000U       /*!< HSE Bypass is not enabled             
 144:Drivers/STM32F0xx_HAL_Driver/Inc/stm32f0xx_ll_utils.h **** #define LL_UTILS_HSEBYPASS_ON         0x00000001U       /*!< HSE Bypass is enabled                 
 145:Drivers/STM32F0xx_HAL_Driver/Inc/stm32f0xx_ll_utils.h **** /**
 146:Drivers/STM32F0xx_HAL_Driver/Inc/stm32f0xx_ll_utils.h ****   * @}
 147:Drivers/STM32F0xx_HAL_Driver/Inc/stm32f0xx_ll_utils.h ****   */
 148:Drivers/STM32F0xx_HAL_Driver/Inc/stm32f0xx_ll_utils.h **** 
 149:Drivers/STM32F0xx_HAL_Driver/Inc/stm32f0xx_ll_utils.h **** /**
 150:Drivers/STM32F0xx_HAL_Driver/Inc/stm32f0xx_ll_utils.h ****   * @}
 151:Drivers/STM32F0xx_HAL_Driver/Inc/stm32f0xx_ll_utils.h ****   */
 152:Drivers/STM32F0xx_HAL_Driver/Inc/stm32f0xx_ll_utils.h **** 
 153:Drivers/STM32F0xx_HAL_Driver/Inc/stm32f0xx_ll_utils.h **** /* Exported macro ------------------------------------------------------------*/
 154:Drivers/STM32F0xx_HAL_Driver/Inc/stm32f0xx_ll_utils.h **** 
 155:Drivers/STM32F0xx_HAL_Driver/Inc/stm32f0xx_ll_utils.h **** /* Exported functions --------------------------------------------------------*/
 156:Drivers/STM32F0xx_HAL_Driver/Inc/stm32f0xx_ll_utils.h **** /** @defgroup UTILS_LL_Exported_Functions UTILS Exported Functions
 157:Drivers/STM32F0xx_HAL_Driver/Inc/stm32f0xx_ll_utils.h ****   * @{
 158:Drivers/STM32F0xx_HAL_Driver/Inc/stm32f0xx_ll_utils.h ****   */
 159:Drivers/STM32F0xx_HAL_Driver/Inc/stm32f0xx_ll_utils.h **** 
 160:Drivers/STM32F0xx_HAL_Driver/Inc/stm32f0xx_ll_utils.h **** /** @defgroup UTILS_EF_DEVICE_ELECTRONIC_SIGNATURE DEVICE ELECTRONIC SIGNATURE
 161:Drivers/STM32F0xx_HAL_Driver/Inc/stm32f0xx_ll_utils.h ****   * @{
 162:Drivers/STM32F0xx_HAL_Driver/Inc/stm32f0xx_ll_utils.h ****   */
 163:Drivers/STM32F0xx_HAL_Driver/Inc/stm32f0xx_ll_utils.h **** 
 164:Drivers/STM32F0xx_HAL_Driver/Inc/stm32f0xx_ll_utils.h **** /**
 165:Drivers/STM32F0xx_HAL_Driver/Inc/stm32f0xx_ll_utils.h ****   * @brief  Get Word0 of the unique device identifier (UID based on 96 bits)
 166:Drivers/STM32F0xx_HAL_Driver/Inc/stm32f0xx_ll_utils.h ****   * @retval UID[31:0]: X and Y coordinates on the wafer expressed in BCD format
 167:Drivers/STM32F0xx_HAL_Driver/Inc/stm32f0xx_ll_utils.h ****   */
 168:Drivers/STM32F0xx_HAL_Driver/Inc/stm32f0xx_ll_utils.h **** __STATIC_INLINE uint32_t LL_GetUID_Word0(void)
 169:Drivers/STM32F0xx_HAL_Driver/Inc/stm32f0xx_ll_utils.h **** {
 170:Drivers/STM32F0xx_HAL_Driver/Inc/stm32f0xx_ll_utils.h ****   return (uint32_t)(READ_REG(*((uint32_t *)UID_BASE_ADDRESS)));
 171:Drivers/STM32F0xx_HAL_Driver/Inc/stm32f0xx_ll_utils.h **** }
 172:Drivers/STM32F0xx_HAL_Driver/Inc/stm32f0xx_ll_utils.h **** 
 173:Drivers/STM32F0xx_HAL_Driver/Inc/stm32f0xx_ll_utils.h **** /**
ARM GAS  /tmp/ccl1p6uj.s 			page 40


 174:Drivers/STM32F0xx_HAL_Driver/Inc/stm32f0xx_ll_utils.h ****   * @brief  Get Word1 of the unique device identifier (UID based on 96 bits)
 175:Drivers/STM32F0xx_HAL_Driver/Inc/stm32f0xx_ll_utils.h ****   * @retval UID[63:32]: Wafer number (UID[39:32]) & LOT_NUM[23:0] (UID[63:40])
 176:Drivers/STM32F0xx_HAL_Driver/Inc/stm32f0xx_ll_utils.h ****   */
 177:Drivers/STM32F0xx_HAL_Driver/Inc/stm32f0xx_ll_utils.h **** __STATIC_INLINE uint32_t LL_GetUID_Word1(void)
 178:Drivers/STM32F0xx_HAL_Driver/Inc/stm32f0xx_ll_utils.h **** {
 179:Drivers/STM32F0xx_HAL_Driver/Inc/stm32f0xx_ll_utils.h ****   return (uint32_t)(READ_REG(*((uint32_t *)(UID_BASE_ADDRESS + 4U))));
 180:Drivers/STM32F0xx_HAL_Driver/Inc/stm32f0xx_ll_utils.h **** }
 181:Drivers/STM32F0xx_HAL_Driver/Inc/stm32f0xx_ll_utils.h **** 
 182:Drivers/STM32F0xx_HAL_Driver/Inc/stm32f0xx_ll_utils.h **** /**
 183:Drivers/STM32F0xx_HAL_Driver/Inc/stm32f0xx_ll_utils.h ****   * @brief  Get Word2 of the unique device identifier (UID based on 96 bits)
 184:Drivers/STM32F0xx_HAL_Driver/Inc/stm32f0xx_ll_utils.h ****   * @retval UID[95:64]: Lot number (ASCII encoded) - LOT_NUM[55:24]
 185:Drivers/STM32F0xx_HAL_Driver/Inc/stm32f0xx_ll_utils.h ****   */
 186:Drivers/STM32F0xx_HAL_Driver/Inc/stm32f0xx_ll_utils.h **** __STATIC_INLINE uint32_t LL_GetUID_Word2(void)
 187:Drivers/STM32F0xx_HAL_Driver/Inc/stm32f0xx_ll_utils.h **** {
 188:Drivers/STM32F0xx_HAL_Driver/Inc/stm32f0xx_ll_utils.h ****   return (uint32_t)(READ_REG(*((uint32_t *)(UID_BASE_ADDRESS + 8U))));
 189:Drivers/STM32F0xx_HAL_Driver/Inc/stm32f0xx_ll_utils.h **** }
 190:Drivers/STM32F0xx_HAL_Driver/Inc/stm32f0xx_ll_utils.h **** 
 191:Drivers/STM32F0xx_HAL_Driver/Inc/stm32f0xx_ll_utils.h **** /**
 192:Drivers/STM32F0xx_HAL_Driver/Inc/stm32f0xx_ll_utils.h ****   * @brief  Get Flash memory size
 193:Drivers/STM32F0xx_HAL_Driver/Inc/stm32f0xx_ll_utils.h ****   * @note   This bitfield indicates the size of the device Flash memory expressed in
 194:Drivers/STM32F0xx_HAL_Driver/Inc/stm32f0xx_ll_utils.h ****   *         Kbytes. As an example, 0x040 corresponds to 64 Kbytes.
 195:Drivers/STM32F0xx_HAL_Driver/Inc/stm32f0xx_ll_utils.h ****   * @retval FLASH_SIZE[15:0]: Flash memory size
 196:Drivers/STM32F0xx_HAL_Driver/Inc/stm32f0xx_ll_utils.h ****   */
 197:Drivers/STM32F0xx_HAL_Driver/Inc/stm32f0xx_ll_utils.h **** __STATIC_INLINE uint32_t LL_GetFlashSize(void)
 198:Drivers/STM32F0xx_HAL_Driver/Inc/stm32f0xx_ll_utils.h **** {
 199:Drivers/STM32F0xx_HAL_Driver/Inc/stm32f0xx_ll_utils.h ****   return (uint16_t)(READ_REG(*((uint32_t *)FLASHSIZE_BASE_ADDRESS)));
 200:Drivers/STM32F0xx_HAL_Driver/Inc/stm32f0xx_ll_utils.h **** }
 201:Drivers/STM32F0xx_HAL_Driver/Inc/stm32f0xx_ll_utils.h **** 
 202:Drivers/STM32F0xx_HAL_Driver/Inc/stm32f0xx_ll_utils.h **** 
 203:Drivers/STM32F0xx_HAL_Driver/Inc/stm32f0xx_ll_utils.h **** /**
 204:Drivers/STM32F0xx_HAL_Driver/Inc/stm32f0xx_ll_utils.h ****   * @}
 205:Drivers/STM32F0xx_HAL_Driver/Inc/stm32f0xx_ll_utils.h ****   */
 206:Drivers/STM32F0xx_HAL_Driver/Inc/stm32f0xx_ll_utils.h **** 
 207:Drivers/STM32F0xx_HAL_Driver/Inc/stm32f0xx_ll_utils.h **** /** @defgroup UTILS_LL_EF_DELAY DELAY
 208:Drivers/STM32F0xx_HAL_Driver/Inc/stm32f0xx_ll_utils.h ****   * @{
 209:Drivers/STM32F0xx_HAL_Driver/Inc/stm32f0xx_ll_utils.h ****   */
 210:Drivers/STM32F0xx_HAL_Driver/Inc/stm32f0xx_ll_utils.h **** 
 211:Drivers/STM32F0xx_HAL_Driver/Inc/stm32f0xx_ll_utils.h **** /**
 212:Drivers/STM32F0xx_HAL_Driver/Inc/stm32f0xx_ll_utils.h ****   * @brief  This function configures the Cortex-M SysTick source of the time base.
 213:Drivers/STM32F0xx_HAL_Driver/Inc/stm32f0xx_ll_utils.h ****   * @param  HCLKFrequency HCLK frequency in Hz (can be calculated thanks to RCC helper macro)
 214:Drivers/STM32F0xx_HAL_Driver/Inc/stm32f0xx_ll_utils.h ****   * @note   When a RTOS is used, it is recommended to avoid changing the SysTick 
 215:Drivers/STM32F0xx_HAL_Driver/Inc/stm32f0xx_ll_utils.h ****   *         configuration by calling this function, for a delay use rather osDelay RTOS service.
 216:Drivers/STM32F0xx_HAL_Driver/Inc/stm32f0xx_ll_utils.h ****   * @param  Ticks Number of ticks
 217:Drivers/STM32F0xx_HAL_Driver/Inc/stm32f0xx_ll_utils.h ****   * @retval None
 218:Drivers/STM32F0xx_HAL_Driver/Inc/stm32f0xx_ll_utils.h ****   */
 219:Drivers/STM32F0xx_HAL_Driver/Inc/stm32f0xx_ll_utils.h **** __STATIC_INLINE void LL_InitTick(uint32_t HCLKFrequency, uint32_t Ticks)
 805              		.loc 5 219 22 view .LVU251
 806              	.LBB31:
 220:Drivers/STM32F0xx_HAL_Driver/Inc/stm32f0xx_ll_utils.h **** {
 221:Drivers/STM32F0xx_HAL_Driver/Inc/stm32f0xx_ll_utils.h ****   /* Configure the SysTick to have interrupt in 1ms time base */
 222:Drivers/STM32F0xx_HAL_Driver/Inc/stm32f0xx_ll_utils.h ****   SysTick->LOAD  = (uint32_t)((HCLKFrequency / Ticks) - 1UL);  /* set reload register */
 807              		.loc 5 222 3 view .LVU252
 808              		.loc 5 222 18 is_stmt 0 view .LVU253
 809 0076 094B     		ldr	r3, .L46
 810 0078 094A     		ldr	r2, .L46+4
 811 007a 5A60     		str	r2, [r3, #4]
 223:Drivers/STM32F0xx_HAL_Driver/Inc/stm32f0xx_ll_utils.h ****   SysTick->VAL   = 0UL;                                       /* Load the SysTick Counter Value */
ARM GAS  /tmp/ccl1p6uj.s 			page 41


 812              		.loc 5 223 3 is_stmt 1 view .LVU254
 813              		.loc 5 223 18 is_stmt 0 view .LVU255
 814 007c 0022     		movs	r2, #0
 815 007e 9A60     		str	r2, [r3, #8]
 224:Drivers/STM32F0xx_HAL_Driver/Inc/stm32f0xx_ll_utils.h ****   SysTick->CTRL  = SysTick_CTRL_CLKSOURCE_Msk |
 816              		.loc 5 224 3 is_stmt 1 view .LVU256
 817              		.loc 5 224 18 is_stmt 0 view .LVU257
 818 0080 0532     		adds	r2, r2, #5
 819 0082 1A60     		str	r2, [r3]
 820              	.LVL45:
 821              		.loc 5 224 18 view .LVU258
 822              	.LBE31:
 823              	.LBE30:
 198:Core/Src/main.c **** }
 824              		.loc 1 198 3 is_stmt 1 view .LVU259
 825              	.LBB32:
 826              	.LBI32:
 827              		.file 6 "Drivers/STM32F0xx_HAL_Driver/Inc/stm32f0xx_ll_cortex.h"
   1:Drivers/STM32F0xx_HAL_Driver/Inc/stm32f0xx_ll_cortex.h **** /**
   2:Drivers/STM32F0xx_HAL_Driver/Inc/stm32f0xx_ll_cortex.h ****   ******************************************************************************
   3:Drivers/STM32F0xx_HAL_Driver/Inc/stm32f0xx_ll_cortex.h ****   * @file    stm32f0xx_ll_cortex.h
   4:Drivers/STM32F0xx_HAL_Driver/Inc/stm32f0xx_ll_cortex.h ****   * @author  MCD Application Team
   5:Drivers/STM32F0xx_HAL_Driver/Inc/stm32f0xx_ll_cortex.h ****   * @brief   Header file of CORTEX LL module.
   6:Drivers/STM32F0xx_HAL_Driver/Inc/stm32f0xx_ll_cortex.h ****   @verbatim
   7:Drivers/STM32F0xx_HAL_Driver/Inc/stm32f0xx_ll_cortex.h ****   ==============================================================================
   8:Drivers/STM32F0xx_HAL_Driver/Inc/stm32f0xx_ll_cortex.h ****                      ##### How to use this driver #####
   9:Drivers/STM32F0xx_HAL_Driver/Inc/stm32f0xx_ll_cortex.h ****   ==============================================================================
  10:Drivers/STM32F0xx_HAL_Driver/Inc/stm32f0xx_ll_cortex.h ****     [..]
  11:Drivers/STM32F0xx_HAL_Driver/Inc/stm32f0xx_ll_cortex.h ****     The LL CORTEX driver contains a set of generic APIs that can be
  12:Drivers/STM32F0xx_HAL_Driver/Inc/stm32f0xx_ll_cortex.h ****     used by user:
  13:Drivers/STM32F0xx_HAL_Driver/Inc/stm32f0xx_ll_cortex.h ****       (+) SYSTICK configuration used by LL_mDelay and LL_Init1msTick
  14:Drivers/STM32F0xx_HAL_Driver/Inc/stm32f0xx_ll_cortex.h ****           functions
  15:Drivers/STM32F0xx_HAL_Driver/Inc/stm32f0xx_ll_cortex.h ****       (+) Low power mode configuration (SCB register of Cortex-MCU)
  16:Drivers/STM32F0xx_HAL_Driver/Inc/stm32f0xx_ll_cortex.h ****       (+) API to access to MCU info (CPUID register)
  17:Drivers/STM32F0xx_HAL_Driver/Inc/stm32f0xx_ll_cortex.h **** 
  18:Drivers/STM32F0xx_HAL_Driver/Inc/stm32f0xx_ll_cortex.h ****   @endverbatim
  19:Drivers/STM32F0xx_HAL_Driver/Inc/stm32f0xx_ll_cortex.h ****   ******************************************************************************
  20:Drivers/STM32F0xx_HAL_Driver/Inc/stm32f0xx_ll_cortex.h ****   * @attention
  21:Drivers/STM32F0xx_HAL_Driver/Inc/stm32f0xx_ll_cortex.h ****   *
  22:Drivers/STM32F0xx_HAL_Driver/Inc/stm32f0xx_ll_cortex.h ****   * <h2><center>&copy; Copyright (c) 2016 STMicroelectronics.
  23:Drivers/STM32F0xx_HAL_Driver/Inc/stm32f0xx_ll_cortex.h ****   * All rights reserved.</center></h2>
  24:Drivers/STM32F0xx_HAL_Driver/Inc/stm32f0xx_ll_cortex.h ****   *
  25:Drivers/STM32F0xx_HAL_Driver/Inc/stm32f0xx_ll_cortex.h ****   * This software component is licensed by ST under BSD 3-Clause license,
  26:Drivers/STM32F0xx_HAL_Driver/Inc/stm32f0xx_ll_cortex.h ****   * the "License"; You may not use this file except in compliance with the
  27:Drivers/STM32F0xx_HAL_Driver/Inc/stm32f0xx_ll_cortex.h ****   * License. You may obtain a copy of the License at:
  28:Drivers/STM32F0xx_HAL_Driver/Inc/stm32f0xx_ll_cortex.h ****   *                        opensource.org/licenses/BSD-3-Clause
  29:Drivers/STM32F0xx_HAL_Driver/Inc/stm32f0xx_ll_cortex.h ****   *
  30:Drivers/STM32F0xx_HAL_Driver/Inc/stm32f0xx_ll_cortex.h ****   ******************************************************************************
  31:Drivers/STM32F0xx_HAL_Driver/Inc/stm32f0xx_ll_cortex.h ****   */
  32:Drivers/STM32F0xx_HAL_Driver/Inc/stm32f0xx_ll_cortex.h **** 
  33:Drivers/STM32F0xx_HAL_Driver/Inc/stm32f0xx_ll_cortex.h **** /* Define to prevent recursive inclusion -------------------------------------*/
  34:Drivers/STM32F0xx_HAL_Driver/Inc/stm32f0xx_ll_cortex.h **** #ifndef __STM32F0xx_LL_CORTEX_H
  35:Drivers/STM32F0xx_HAL_Driver/Inc/stm32f0xx_ll_cortex.h **** #define __STM32F0xx_LL_CORTEX_H
  36:Drivers/STM32F0xx_HAL_Driver/Inc/stm32f0xx_ll_cortex.h **** 
  37:Drivers/STM32F0xx_HAL_Driver/Inc/stm32f0xx_ll_cortex.h **** #ifdef __cplusplus
  38:Drivers/STM32F0xx_HAL_Driver/Inc/stm32f0xx_ll_cortex.h **** extern "C" {
  39:Drivers/STM32F0xx_HAL_Driver/Inc/stm32f0xx_ll_cortex.h **** #endif
ARM GAS  /tmp/ccl1p6uj.s 			page 42


  40:Drivers/STM32F0xx_HAL_Driver/Inc/stm32f0xx_ll_cortex.h **** 
  41:Drivers/STM32F0xx_HAL_Driver/Inc/stm32f0xx_ll_cortex.h **** /* Includes ------------------------------------------------------------------*/
  42:Drivers/STM32F0xx_HAL_Driver/Inc/stm32f0xx_ll_cortex.h **** #include "stm32f0xx.h"
  43:Drivers/STM32F0xx_HAL_Driver/Inc/stm32f0xx_ll_cortex.h **** 
  44:Drivers/STM32F0xx_HAL_Driver/Inc/stm32f0xx_ll_cortex.h **** /** @addtogroup STM32F0xx_LL_Driver
  45:Drivers/STM32F0xx_HAL_Driver/Inc/stm32f0xx_ll_cortex.h ****   * @{
  46:Drivers/STM32F0xx_HAL_Driver/Inc/stm32f0xx_ll_cortex.h ****   */
  47:Drivers/STM32F0xx_HAL_Driver/Inc/stm32f0xx_ll_cortex.h **** 
  48:Drivers/STM32F0xx_HAL_Driver/Inc/stm32f0xx_ll_cortex.h **** /** @defgroup CORTEX_LL CORTEX
  49:Drivers/STM32F0xx_HAL_Driver/Inc/stm32f0xx_ll_cortex.h ****   * @{
  50:Drivers/STM32F0xx_HAL_Driver/Inc/stm32f0xx_ll_cortex.h ****   */
  51:Drivers/STM32F0xx_HAL_Driver/Inc/stm32f0xx_ll_cortex.h **** 
  52:Drivers/STM32F0xx_HAL_Driver/Inc/stm32f0xx_ll_cortex.h **** /* Private types -------------------------------------------------------------*/
  53:Drivers/STM32F0xx_HAL_Driver/Inc/stm32f0xx_ll_cortex.h **** /* Private variables ---------------------------------------------------------*/
  54:Drivers/STM32F0xx_HAL_Driver/Inc/stm32f0xx_ll_cortex.h **** 
  55:Drivers/STM32F0xx_HAL_Driver/Inc/stm32f0xx_ll_cortex.h **** /* Private constants ---------------------------------------------------------*/
  56:Drivers/STM32F0xx_HAL_Driver/Inc/stm32f0xx_ll_cortex.h **** 
  57:Drivers/STM32F0xx_HAL_Driver/Inc/stm32f0xx_ll_cortex.h **** /* Private macros ------------------------------------------------------------*/
  58:Drivers/STM32F0xx_HAL_Driver/Inc/stm32f0xx_ll_cortex.h **** 
  59:Drivers/STM32F0xx_HAL_Driver/Inc/stm32f0xx_ll_cortex.h **** /* Exported types ------------------------------------------------------------*/
  60:Drivers/STM32F0xx_HAL_Driver/Inc/stm32f0xx_ll_cortex.h **** /* Exported constants --------------------------------------------------------*/
  61:Drivers/STM32F0xx_HAL_Driver/Inc/stm32f0xx_ll_cortex.h **** /** @defgroup CORTEX_LL_Exported_Constants CORTEX Exported Constants
  62:Drivers/STM32F0xx_HAL_Driver/Inc/stm32f0xx_ll_cortex.h ****   * @{
  63:Drivers/STM32F0xx_HAL_Driver/Inc/stm32f0xx_ll_cortex.h ****   */
  64:Drivers/STM32F0xx_HAL_Driver/Inc/stm32f0xx_ll_cortex.h **** 
  65:Drivers/STM32F0xx_HAL_Driver/Inc/stm32f0xx_ll_cortex.h **** /** @defgroup CORTEX_LL_EC_CLKSOURCE_HCLK SYSTICK Clock Source
  66:Drivers/STM32F0xx_HAL_Driver/Inc/stm32f0xx_ll_cortex.h ****   * @{
  67:Drivers/STM32F0xx_HAL_Driver/Inc/stm32f0xx_ll_cortex.h ****   */
  68:Drivers/STM32F0xx_HAL_Driver/Inc/stm32f0xx_ll_cortex.h **** #define LL_SYSTICK_CLKSOURCE_HCLK_DIV8     0x00000000U                 /*!< AHB clock divided by 8 
  69:Drivers/STM32F0xx_HAL_Driver/Inc/stm32f0xx_ll_cortex.h **** #define LL_SYSTICK_CLKSOURCE_HCLK          SysTick_CTRL_CLKSOURCE_Msk  /*!< AHB clock selected as S
  70:Drivers/STM32F0xx_HAL_Driver/Inc/stm32f0xx_ll_cortex.h **** /**
  71:Drivers/STM32F0xx_HAL_Driver/Inc/stm32f0xx_ll_cortex.h ****   * @}
  72:Drivers/STM32F0xx_HAL_Driver/Inc/stm32f0xx_ll_cortex.h ****   */
  73:Drivers/STM32F0xx_HAL_Driver/Inc/stm32f0xx_ll_cortex.h **** 
  74:Drivers/STM32F0xx_HAL_Driver/Inc/stm32f0xx_ll_cortex.h **** /**
  75:Drivers/STM32F0xx_HAL_Driver/Inc/stm32f0xx_ll_cortex.h ****   * @}
  76:Drivers/STM32F0xx_HAL_Driver/Inc/stm32f0xx_ll_cortex.h ****   */
  77:Drivers/STM32F0xx_HAL_Driver/Inc/stm32f0xx_ll_cortex.h **** 
  78:Drivers/STM32F0xx_HAL_Driver/Inc/stm32f0xx_ll_cortex.h **** /* Exported macro ------------------------------------------------------------*/
  79:Drivers/STM32F0xx_HAL_Driver/Inc/stm32f0xx_ll_cortex.h **** 
  80:Drivers/STM32F0xx_HAL_Driver/Inc/stm32f0xx_ll_cortex.h **** /* Exported functions --------------------------------------------------------*/
  81:Drivers/STM32F0xx_HAL_Driver/Inc/stm32f0xx_ll_cortex.h **** /** @defgroup CORTEX_LL_Exported_Functions CORTEX Exported Functions
  82:Drivers/STM32F0xx_HAL_Driver/Inc/stm32f0xx_ll_cortex.h ****   * @{
  83:Drivers/STM32F0xx_HAL_Driver/Inc/stm32f0xx_ll_cortex.h ****   */
  84:Drivers/STM32F0xx_HAL_Driver/Inc/stm32f0xx_ll_cortex.h **** 
  85:Drivers/STM32F0xx_HAL_Driver/Inc/stm32f0xx_ll_cortex.h **** /** @defgroup CORTEX_LL_EF_SYSTICK SYSTICK
  86:Drivers/STM32F0xx_HAL_Driver/Inc/stm32f0xx_ll_cortex.h ****   * @{
  87:Drivers/STM32F0xx_HAL_Driver/Inc/stm32f0xx_ll_cortex.h ****   */
  88:Drivers/STM32F0xx_HAL_Driver/Inc/stm32f0xx_ll_cortex.h **** 
  89:Drivers/STM32F0xx_HAL_Driver/Inc/stm32f0xx_ll_cortex.h **** /**
  90:Drivers/STM32F0xx_HAL_Driver/Inc/stm32f0xx_ll_cortex.h ****   * @brief  This function checks if the Systick counter flag is active or not.
  91:Drivers/STM32F0xx_HAL_Driver/Inc/stm32f0xx_ll_cortex.h ****   * @note   It can be used in timeout function on application side.
  92:Drivers/STM32F0xx_HAL_Driver/Inc/stm32f0xx_ll_cortex.h ****   * @rmtoll STK_CTRL     COUNTFLAG     LL_SYSTICK_IsActiveCounterFlag
  93:Drivers/STM32F0xx_HAL_Driver/Inc/stm32f0xx_ll_cortex.h ****   * @retval State of bit (1 or 0).
  94:Drivers/STM32F0xx_HAL_Driver/Inc/stm32f0xx_ll_cortex.h ****   */
  95:Drivers/STM32F0xx_HAL_Driver/Inc/stm32f0xx_ll_cortex.h **** __STATIC_INLINE uint32_t LL_SYSTICK_IsActiveCounterFlag(void)
  96:Drivers/STM32F0xx_HAL_Driver/Inc/stm32f0xx_ll_cortex.h **** {
ARM GAS  /tmp/ccl1p6uj.s 			page 43


  97:Drivers/STM32F0xx_HAL_Driver/Inc/stm32f0xx_ll_cortex.h ****   return ((SysTick->CTRL & SysTick_CTRL_COUNTFLAG_Msk) == (SysTick_CTRL_COUNTFLAG_Msk));
  98:Drivers/STM32F0xx_HAL_Driver/Inc/stm32f0xx_ll_cortex.h **** }
  99:Drivers/STM32F0xx_HAL_Driver/Inc/stm32f0xx_ll_cortex.h **** 
 100:Drivers/STM32F0xx_HAL_Driver/Inc/stm32f0xx_ll_cortex.h **** /**
 101:Drivers/STM32F0xx_HAL_Driver/Inc/stm32f0xx_ll_cortex.h ****   * @brief  Configures the SysTick clock source
 102:Drivers/STM32F0xx_HAL_Driver/Inc/stm32f0xx_ll_cortex.h ****   * @rmtoll STK_CTRL     CLKSOURCE     LL_SYSTICK_SetClkSource
 103:Drivers/STM32F0xx_HAL_Driver/Inc/stm32f0xx_ll_cortex.h ****   * @param  Source This parameter can be one of the following values:
 104:Drivers/STM32F0xx_HAL_Driver/Inc/stm32f0xx_ll_cortex.h ****   *         @arg @ref LL_SYSTICK_CLKSOURCE_HCLK_DIV8
 105:Drivers/STM32F0xx_HAL_Driver/Inc/stm32f0xx_ll_cortex.h ****   *         @arg @ref LL_SYSTICK_CLKSOURCE_HCLK
 106:Drivers/STM32F0xx_HAL_Driver/Inc/stm32f0xx_ll_cortex.h ****   * @retval None
 107:Drivers/STM32F0xx_HAL_Driver/Inc/stm32f0xx_ll_cortex.h ****   */
 108:Drivers/STM32F0xx_HAL_Driver/Inc/stm32f0xx_ll_cortex.h **** __STATIC_INLINE void LL_SYSTICK_SetClkSource(uint32_t Source)
 109:Drivers/STM32F0xx_HAL_Driver/Inc/stm32f0xx_ll_cortex.h **** {
 110:Drivers/STM32F0xx_HAL_Driver/Inc/stm32f0xx_ll_cortex.h ****   if (Source == LL_SYSTICK_CLKSOURCE_HCLK)
 111:Drivers/STM32F0xx_HAL_Driver/Inc/stm32f0xx_ll_cortex.h ****   {
 112:Drivers/STM32F0xx_HAL_Driver/Inc/stm32f0xx_ll_cortex.h ****     SET_BIT(SysTick->CTRL, LL_SYSTICK_CLKSOURCE_HCLK);
 113:Drivers/STM32F0xx_HAL_Driver/Inc/stm32f0xx_ll_cortex.h ****   }
 114:Drivers/STM32F0xx_HAL_Driver/Inc/stm32f0xx_ll_cortex.h ****   else
 115:Drivers/STM32F0xx_HAL_Driver/Inc/stm32f0xx_ll_cortex.h ****   {
 116:Drivers/STM32F0xx_HAL_Driver/Inc/stm32f0xx_ll_cortex.h ****     CLEAR_BIT(SysTick->CTRL, LL_SYSTICK_CLKSOURCE_HCLK);
 117:Drivers/STM32F0xx_HAL_Driver/Inc/stm32f0xx_ll_cortex.h ****   }
 118:Drivers/STM32F0xx_HAL_Driver/Inc/stm32f0xx_ll_cortex.h **** }
 119:Drivers/STM32F0xx_HAL_Driver/Inc/stm32f0xx_ll_cortex.h **** 
 120:Drivers/STM32F0xx_HAL_Driver/Inc/stm32f0xx_ll_cortex.h **** /**
 121:Drivers/STM32F0xx_HAL_Driver/Inc/stm32f0xx_ll_cortex.h ****   * @brief  Get the SysTick clock source
 122:Drivers/STM32F0xx_HAL_Driver/Inc/stm32f0xx_ll_cortex.h ****   * @rmtoll STK_CTRL     CLKSOURCE     LL_SYSTICK_GetClkSource
 123:Drivers/STM32F0xx_HAL_Driver/Inc/stm32f0xx_ll_cortex.h ****   * @retval Returned value can be one of the following values:
 124:Drivers/STM32F0xx_HAL_Driver/Inc/stm32f0xx_ll_cortex.h ****   *         @arg @ref LL_SYSTICK_CLKSOURCE_HCLK_DIV8
 125:Drivers/STM32F0xx_HAL_Driver/Inc/stm32f0xx_ll_cortex.h ****   *         @arg @ref LL_SYSTICK_CLKSOURCE_HCLK
 126:Drivers/STM32F0xx_HAL_Driver/Inc/stm32f0xx_ll_cortex.h ****   */
 127:Drivers/STM32F0xx_HAL_Driver/Inc/stm32f0xx_ll_cortex.h **** __STATIC_INLINE uint32_t LL_SYSTICK_GetClkSource(void)
 128:Drivers/STM32F0xx_HAL_Driver/Inc/stm32f0xx_ll_cortex.h **** {
 129:Drivers/STM32F0xx_HAL_Driver/Inc/stm32f0xx_ll_cortex.h ****   return READ_BIT(SysTick->CTRL, LL_SYSTICK_CLKSOURCE_HCLK);
 130:Drivers/STM32F0xx_HAL_Driver/Inc/stm32f0xx_ll_cortex.h **** }
 131:Drivers/STM32F0xx_HAL_Driver/Inc/stm32f0xx_ll_cortex.h **** 
 132:Drivers/STM32F0xx_HAL_Driver/Inc/stm32f0xx_ll_cortex.h **** /**
 133:Drivers/STM32F0xx_HAL_Driver/Inc/stm32f0xx_ll_cortex.h ****   * @brief  Enable SysTick exception request
 134:Drivers/STM32F0xx_HAL_Driver/Inc/stm32f0xx_ll_cortex.h ****   * @rmtoll STK_CTRL     TICKINT       LL_SYSTICK_EnableIT
 135:Drivers/STM32F0xx_HAL_Driver/Inc/stm32f0xx_ll_cortex.h ****   * @retval None
 136:Drivers/STM32F0xx_HAL_Driver/Inc/stm32f0xx_ll_cortex.h ****   */
 137:Drivers/STM32F0xx_HAL_Driver/Inc/stm32f0xx_ll_cortex.h **** __STATIC_INLINE void LL_SYSTICK_EnableIT(void)
 828              		.loc 6 137 22 view .LVU260
 829              	.LBB33:
 138:Drivers/STM32F0xx_HAL_Driver/Inc/stm32f0xx_ll_cortex.h **** {
 139:Drivers/STM32F0xx_HAL_Driver/Inc/stm32f0xx_ll_cortex.h ****   SET_BIT(SysTick->CTRL, SysTick_CTRL_TICKINT_Msk);
 830              		.loc 6 139 3 view .LVU261
 831 0084 1A68     		ldr	r2, [r3]
 832 0086 0221     		movs	r1, #2
 833 0088 0A43     		orrs	r2, r1
 834 008a 1A60     		str	r2, [r3]
 835              	.LBE33:
 836              	.LBE32:
 199:Core/Src/main.c **** 
 837              		.loc 1 199 1 is_stmt 0 view .LVU262
 838 008c 17B0     		add	sp, sp, #92
 839              		@ sp needed
 840 008e 00BD     		pop	{pc}
ARM GAS  /tmp/ccl1p6uj.s 			page 44


 841              	.L43:
 175:Core/Src/main.c ****   }
 842              		.loc 1 175 5 is_stmt 1 view .LVU263
 843 0090 FFF7FEFF 		bl	Error_Handler
 844              	.LVL46:
 845              	.L44:
 188:Core/Src/main.c ****   }
 846              		.loc 1 188 5 view .LVU264
 847 0094 FFF7FEFF 		bl	Error_Handler
 848              	.LVL47:
 849              	.L45:
 194:Core/Src/main.c ****   }
 850              		.loc 1 194 5 view .LVU265
 851 0098 FFF7FEFF 		bl	Error_Handler
 852              	.LVL48:
 853              	.L47:
 854              		.align	2
 855              	.L46:
 856 009c 10E000E0 		.word	-536813552
 857 00a0 7FBB0000 		.word	47999
 858              		.cfi_endproc
 859              	.LFE248:
 861              		.section	.text.main,"ax",%progbits
 862              		.align	1
 863              		.global	main
 864              		.syntax unified
 865              		.code	16
 866              		.thumb_func
 868              	main:
 869              	.LFB247:
  96:Core/Src/main.c ****   /* USER CODE BEGIN 1 */
 870              		.loc 1 96 1 view -0
 871              		.cfi_startproc
 872              		@ Volatile: function does not return.
 873              		@ args = 0, pretend = 0, frame = 0
 874              		@ frame_needed = 0, uses_anonymous_args = 0
 875 0000 10B5     		push	{r4, lr}
 876              	.LCFI9:
 877              		.cfi_def_cfa_offset 8
 878              		.cfi_offset 4, -8
 879              		.cfi_offset 14, -4
 880 0002 90B0     		sub	sp, sp, #64
 881              	.LCFI10:
 882              		.cfi_def_cfa_offset 72
 104:Core/Src/main.c **** 
 883              		.loc 1 104 3 view .LVU267
 884 0004 FFF7FEFF 		bl	HAL_Init
 885              	.LVL49:
 111:Core/Src/main.c **** 
 886              		.loc 1 111 3 view .LVU268
 887 0008 FFF7FEFF 		bl	SystemClock_Config
 888              	.LVL50:
 117:Core/Src/main.c ****   MX_I2C1_Init();
 889              		.loc 1 117 3 view .LVU269
 890 000c FFF7FEFF 		bl	MX_GPIO_Init
 891              	.LVL51:
 118:Core/Src/main.c ****   MX_TIM1_Init();
ARM GAS  /tmp/ccl1p6uj.s 			page 45


 892              		.loc 1 118 3 view .LVU270
 893 0010 FFF7FEFF 		bl	MX_I2C1_Init
 894              	.LVL52:
 119:Core/Src/main.c ****   MX_TIM2_Init();
 895              		.loc 1 119 3 view .LVU271
 896 0014 FFF7FEFF 		bl	MX_TIM1_Init
 897              	.LVL53:
 120:Core/Src/main.c ****   /* USER CODE BEGIN 2 */
 898              		.loc 1 120 3 view .LVU272
 899 0018 FFF7FEFF 		bl	MX_TIM2_Init
 900              	.LVL54:
 123:Core/Src/main.c ****   giro_config(hi2c1);
 901              		.loc 1 123 3 view .LVU273
 902              	.LBB34:
 903              	.LBI34:
 271:Drivers/STM32F0xx_HAL_Driver/Inc/stm32f0xx_ll_gpio.h **** }
 272:Drivers/STM32F0xx_HAL_Driver/Inc/stm32f0xx_ll_gpio.h **** 
 273:Drivers/STM32F0xx_HAL_Driver/Inc/stm32f0xx_ll_gpio.h **** /**
 274:Drivers/STM32F0xx_HAL_Driver/Inc/stm32f0xx_ll_gpio.h ****   * @brief  Return gpio mode for a dedicated pin on dedicated port.
 275:Drivers/STM32F0xx_HAL_Driver/Inc/stm32f0xx_ll_gpio.h ****   * @note   I/O mode can be Input mode, General purpose output, Alternate function mode or Analog.
 276:Drivers/STM32F0xx_HAL_Driver/Inc/stm32f0xx_ll_gpio.h ****   * @note   Warning: only one pin can be passed as parameter.
 277:Drivers/STM32F0xx_HAL_Driver/Inc/stm32f0xx_ll_gpio.h ****   * @rmtoll MODER        MODEy         LL_GPIO_GetPinMode
 278:Drivers/STM32F0xx_HAL_Driver/Inc/stm32f0xx_ll_gpio.h ****   * @param  GPIOx GPIO Port
 279:Drivers/STM32F0xx_HAL_Driver/Inc/stm32f0xx_ll_gpio.h ****   * @param  Pin This parameter can be one of the following values:
 280:Drivers/STM32F0xx_HAL_Driver/Inc/stm32f0xx_ll_gpio.h ****   *         @arg @ref LL_GPIO_PIN_0
 281:Drivers/STM32F0xx_HAL_Driver/Inc/stm32f0xx_ll_gpio.h ****   *         @arg @ref LL_GPIO_PIN_1
 282:Drivers/STM32F0xx_HAL_Driver/Inc/stm32f0xx_ll_gpio.h ****   *         @arg @ref LL_GPIO_PIN_2
 283:Drivers/STM32F0xx_HAL_Driver/Inc/stm32f0xx_ll_gpio.h ****   *         @arg @ref LL_GPIO_PIN_3
 284:Drivers/STM32F0xx_HAL_Driver/Inc/stm32f0xx_ll_gpio.h ****   *         @arg @ref LL_GPIO_PIN_4
 285:Drivers/STM32F0xx_HAL_Driver/Inc/stm32f0xx_ll_gpio.h ****   *         @arg @ref LL_GPIO_PIN_5
 286:Drivers/STM32F0xx_HAL_Driver/Inc/stm32f0xx_ll_gpio.h ****   *         @arg @ref LL_GPIO_PIN_6
 287:Drivers/STM32F0xx_HAL_Driver/Inc/stm32f0xx_ll_gpio.h ****   *         @arg @ref LL_GPIO_PIN_7
 288:Drivers/STM32F0xx_HAL_Driver/Inc/stm32f0xx_ll_gpio.h ****   *         @arg @ref LL_GPIO_PIN_8
 289:Drivers/STM32F0xx_HAL_Driver/Inc/stm32f0xx_ll_gpio.h ****   *         @arg @ref LL_GPIO_PIN_9
 290:Drivers/STM32F0xx_HAL_Driver/Inc/stm32f0xx_ll_gpio.h ****   *         @arg @ref LL_GPIO_PIN_10
 291:Drivers/STM32F0xx_HAL_Driver/Inc/stm32f0xx_ll_gpio.h ****   *         @arg @ref LL_GPIO_PIN_11
 292:Drivers/STM32F0xx_HAL_Driver/Inc/stm32f0xx_ll_gpio.h ****   *         @arg @ref LL_GPIO_PIN_12
 293:Drivers/STM32F0xx_HAL_Driver/Inc/stm32f0xx_ll_gpio.h ****   *         @arg @ref LL_GPIO_PIN_13
 294:Drivers/STM32F0xx_HAL_Driver/Inc/stm32f0xx_ll_gpio.h ****   *         @arg @ref LL_GPIO_PIN_14
 295:Drivers/STM32F0xx_HAL_Driver/Inc/stm32f0xx_ll_gpio.h ****   *         @arg @ref LL_GPIO_PIN_15
 296:Drivers/STM32F0xx_HAL_Driver/Inc/stm32f0xx_ll_gpio.h ****   * @retval Returned value can be one of the following values:
 297:Drivers/STM32F0xx_HAL_Driver/Inc/stm32f0xx_ll_gpio.h ****   *         @arg @ref LL_GPIO_MODE_INPUT
 298:Drivers/STM32F0xx_HAL_Driver/Inc/stm32f0xx_ll_gpio.h ****   *         @arg @ref LL_GPIO_MODE_OUTPUT
 299:Drivers/STM32F0xx_HAL_Driver/Inc/stm32f0xx_ll_gpio.h ****   *         @arg @ref LL_GPIO_MODE_ALTERNATE
 300:Drivers/STM32F0xx_HAL_Driver/Inc/stm32f0xx_ll_gpio.h ****   *         @arg @ref LL_GPIO_MODE_ANALOG
 301:Drivers/STM32F0xx_HAL_Driver/Inc/stm32f0xx_ll_gpio.h ****   */
 302:Drivers/STM32F0xx_HAL_Driver/Inc/stm32f0xx_ll_gpio.h **** __STATIC_INLINE uint32_t LL_GPIO_GetPinMode(GPIO_TypeDef *GPIOx, uint32_t Pin)
 303:Drivers/STM32F0xx_HAL_Driver/Inc/stm32f0xx_ll_gpio.h **** {
 304:Drivers/STM32F0xx_HAL_Driver/Inc/stm32f0xx_ll_gpio.h ****   return (uint32_t)(READ_BIT(GPIOx->MODER, ((Pin * Pin) * GPIO_MODER_MODER0)) / (Pin * Pin));
 305:Drivers/STM32F0xx_HAL_Driver/Inc/stm32f0xx_ll_gpio.h **** }
 306:Drivers/STM32F0xx_HAL_Driver/Inc/stm32f0xx_ll_gpio.h **** 
 307:Drivers/STM32F0xx_HAL_Driver/Inc/stm32f0xx_ll_gpio.h **** /**
 308:Drivers/STM32F0xx_HAL_Driver/Inc/stm32f0xx_ll_gpio.h ****   * @brief  Configure gpio output type for several pins on dedicated port.
 309:Drivers/STM32F0xx_HAL_Driver/Inc/stm32f0xx_ll_gpio.h ****   * @note   Output type as to be set when gpio pin is in output or
 310:Drivers/STM32F0xx_HAL_Driver/Inc/stm32f0xx_ll_gpio.h ****   *         alternate modes. Possible type are Push-pull or Open-drain.
 311:Drivers/STM32F0xx_HAL_Driver/Inc/stm32f0xx_ll_gpio.h ****   * @rmtoll OTYPER       OTy           LL_GPIO_SetPinOutputType
 312:Drivers/STM32F0xx_HAL_Driver/Inc/stm32f0xx_ll_gpio.h ****   * @param  GPIOx GPIO Port
ARM GAS  /tmp/ccl1p6uj.s 			page 46


 313:Drivers/STM32F0xx_HAL_Driver/Inc/stm32f0xx_ll_gpio.h ****   * @param  PinMask This parameter can be a combination of the following values:
 314:Drivers/STM32F0xx_HAL_Driver/Inc/stm32f0xx_ll_gpio.h ****   *         @arg @ref LL_GPIO_PIN_0
 315:Drivers/STM32F0xx_HAL_Driver/Inc/stm32f0xx_ll_gpio.h ****   *         @arg @ref LL_GPIO_PIN_1
 316:Drivers/STM32F0xx_HAL_Driver/Inc/stm32f0xx_ll_gpio.h ****   *         @arg @ref LL_GPIO_PIN_2
 317:Drivers/STM32F0xx_HAL_Driver/Inc/stm32f0xx_ll_gpio.h ****   *         @arg @ref LL_GPIO_PIN_3
 318:Drivers/STM32F0xx_HAL_Driver/Inc/stm32f0xx_ll_gpio.h ****   *         @arg @ref LL_GPIO_PIN_4
 319:Drivers/STM32F0xx_HAL_Driver/Inc/stm32f0xx_ll_gpio.h ****   *         @arg @ref LL_GPIO_PIN_5
 320:Drivers/STM32F0xx_HAL_Driver/Inc/stm32f0xx_ll_gpio.h ****   *         @arg @ref LL_GPIO_PIN_6
 321:Drivers/STM32F0xx_HAL_Driver/Inc/stm32f0xx_ll_gpio.h ****   *         @arg @ref LL_GPIO_PIN_7
 322:Drivers/STM32F0xx_HAL_Driver/Inc/stm32f0xx_ll_gpio.h ****   *         @arg @ref LL_GPIO_PIN_8
 323:Drivers/STM32F0xx_HAL_Driver/Inc/stm32f0xx_ll_gpio.h ****   *         @arg @ref LL_GPIO_PIN_9
 324:Drivers/STM32F0xx_HAL_Driver/Inc/stm32f0xx_ll_gpio.h ****   *         @arg @ref LL_GPIO_PIN_10
 325:Drivers/STM32F0xx_HAL_Driver/Inc/stm32f0xx_ll_gpio.h ****   *         @arg @ref LL_GPIO_PIN_11
 326:Drivers/STM32F0xx_HAL_Driver/Inc/stm32f0xx_ll_gpio.h ****   *         @arg @ref LL_GPIO_PIN_12
 327:Drivers/STM32F0xx_HAL_Driver/Inc/stm32f0xx_ll_gpio.h ****   *         @arg @ref LL_GPIO_PIN_13
 328:Drivers/STM32F0xx_HAL_Driver/Inc/stm32f0xx_ll_gpio.h ****   *         @arg @ref LL_GPIO_PIN_14
 329:Drivers/STM32F0xx_HAL_Driver/Inc/stm32f0xx_ll_gpio.h ****   *         @arg @ref LL_GPIO_PIN_15
 330:Drivers/STM32F0xx_HAL_Driver/Inc/stm32f0xx_ll_gpio.h ****   *         @arg @ref LL_GPIO_PIN_ALL
 331:Drivers/STM32F0xx_HAL_Driver/Inc/stm32f0xx_ll_gpio.h ****   * @param  OutputType This parameter can be one of the following values:
 332:Drivers/STM32F0xx_HAL_Driver/Inc/stm32f0xx_ll_gpio.h ****   *         @arg @ref LL_GPIO_OUTPUT_PUSHPULL
 333:Drivers/STM32F0xx_HAL_Driver/Inc/stm32f0xx_ll_gpio.h ****   *         @arg @ref LL_GPIO_OUTPUT_OPENDRAIN
 334:Drivers/STM32F0xx_HAL_Driver/Inc/stm32f0xx_ll_gpio.h ****   * @retval None
 335:Drivers/STM32F0xx_HAL_Driver/Inc/stm32f0xx_ll_gpio.h ****   */
 336:Drivers/STM32F0xx_HAL_Driver/Inc/stm32f0xx_ll_gpio.h **** __STATIC_INLINE void LL_GPIO_SetPinOutputType(GPIO_TypeDef *GPIOx, uint32_t PinMask, uint32_t Outpu
 337:Drivers/STM32F0xx_HAL_Driver/Inc/stm32f0xx_ll_gpio.h **** {
 338:Drivers/STM32F0xx_HAL_Driver/Inc/stm32f0xx_ll_gpio.h ****   MODIFY_REG(GPIOx->OTYPER, PinMask, (PinMask * OutputType));
 339:Drivers/STM32F0xx_HAL_Driver/Inc/stm32f0xx_ll_gpio.h **** }
 340:Drivers/STM32F0xx_HAL_Driver/Inc/stm32f0xx_ll_gpio.h **** 
 341:Drivers/STM32F0xx_HAL_Driver/Inc/stm32f0xx_ll_gpio.h **** /**
 342:Drivers/STM32F0xx_HAL_Driver/Inc/stm32f0xx_ll_gpio.h ****   * @brief  Return gpio output type for several pins on dedicated port.
 343:Drivers/STM32F0xx_HAL_Driver/Inc/stm32f0xx_ll_gpio.h ****   * @note   Output type as to be set when gpio pin is in output or
 344:Drivers/STM32F0xx_HAL_Driver/Inc/stm32f0xx_ll_gpio.h ****   *         alternate modes. Possible type are Push-pull or Open-drain.
 345:Drivers/STM32F0xx_HAL_Driver/Inc/stm32f0xx_ll_gpio.h ****   * @note   Warning: only one pin can be passed as parameter.
 346:Drivers/STM32F0xx_HAL_Driver/Inc/stm32f0xx_ll_gpio.h ****   * @rmtoll OTYPER       OTy           LL_GPIO_GetPinOutputType
 347:Drivers/STM32F0xx_HAL_Driver/Inc/stm32f0xx_ll_gpio.h ****   * @param  GPIOx GPIO Port
 348:Drivers/STM32F0xx_HAL_Driver/Inc/stm32f0xx_ll_gpio.h ****   * @param  Pin This parameter can be one of the following values:
 349:Drivers/STM32F0xx_HAL_Driver/Inc/stm32f0xx_ll_gpio.h ****   *         @arg @ref LL_GPIO_PIN_0
 350:Drivers/STM32F0xx_HAL_Driver/Inc/stm32f0xx_ll_gpio.h ****   *         @arg @ref LL_GPIO_PIN_1
 351:Drivers/STM32F0xx_HAL_Driver/Inc/stm32f0xx_ll_gpio.h ****   *         @arg @ref LL_GPIO_PIN_2
 352:Drivers/STM32F0xx_HAL_Driver/Inc/stm32f0xx_ll_gpio.h ****   *         @arg @ref LL_GPIO_PIN_3
 353:Drivers/STM32F0xx_HAL_Driver/Inc/stm32f0xx_ll_gpio.h ****   *         @arg @ref LL_GPIO_PIN_4
 354:Drivers/STM32F0xx_HAL_Driver/Inc/stm32f0xx_ll_gpio.h ****   *         @arg @ref LL_GPIO_PIN_5
 355:Drivers/STM32F0xx_HAL_Driver/Inc/stm32f0xx_ll_gpio.h ****   *         @arg @ref LL_GPIO_PIN_6
 356:Drivers/STM32F0xx_HAL_Driver/Inc/stm32f0xx_ll_gpio.h ****   *         @arg @ref LL_GPIO_PIN_7
 357:Drivers/STM32F0xx_HAL_Driver/Inc/stm32f0xx_ll_gpio.h ****   *         @arg @ref LL_GPIO_PIN_8
 358:Drivers/STM32F0xx_HAL_Driver/Inc/stm32f0xx_ll_gpio.h ****   *         @arg @ref LL_GPIO_PIN_9
 359:Drivers/STM32F0xx_HAL_Driver/Inc/stm32f0xx_ll_gpio.h ****   *         @arg @ref LL_GPIO_PIN_10
 360:Drivers/STM32F0xx_HAL_Driver/Inc/stm32f0xx_ll_gpio.h ****   *         @arg @ref LL_GPIO_PIN_11
 361:Drivers/STM32F0xx_HAL_Driver/Inc/stm32f0xx_ll_gpio.h ****   *         @arg @ref LL_GPIO_PIN_12
 362:Drivers/STM32F0xx_HAL_Driver/Inc/stm32f0xx_ll_gpio.h ****   *         @arg @ref LL_GPIO_PIN_13
 363:Drivers/STM32F0xx_HAL_Driver/Inc/stm32f0xx_ll_gpio.h ****   *         @arg @ref LL_GPIO_PIN_14
 364:Drivers/STM32F0xx_HAL_Driver/Inc/stm32f0xx_ll_gpio.h ****   *         @arg @ref LL_GPIO_PIN_15
 365:Drivers/STM32F0xx_HAL_Driver/Inc/stm32f0xx_ll_gpio.h ****   *         @arg @ref LL_GPIO_PIN_ALL
 366:Drivers/STM32F0xx_HAL_Driver/Inc/stm32f0xx_ll_gpio.h ****   * @retval Returned value can be one of the following values:
 367:Drivers/STM32F0xx_HAL_Driver/Inc/stm32f0xx_ll_gpio.h ****   *         @arg @ref LL_GPIO_OUTPUT_PUSHPULL
 368:Drivers/STM32F0xx_HAL_Driver/Inc/stm32f0xx_ll_gpio.h ****   *         @arg @ref LL_GPIO_OUTPUT_OPENDRAIN
 369:Drivers/STM32F0xx_HAL_Driver/Inc/stm32f0xx_ll_gpio.h ****   */
ARM GAS  /tmp/ccl1p6uj.s 			page 47


 370:Drivers/STM32F0xx_HAL_Driver/Inc/stm32f0xx_ll_gpio.h **** __STATIC_INLINE uint32_t LL_GPIO_GetPinOutputType(GPIO_TypeDef *GPIOx, uint32_t Pin)
 371:Drivers/STM32F0xx_HAL_Driver/Inc/stm32f0xx_ll_gpio.h **** {
 372:Drivers/STM32F0xx_HAL_Driver/Inc/stm32f0xx_ll_gpio.h ****   return (uint32_t)(READ_BIT(GPIOx->OTYPER, Pin) / Pin);
 373:Drivers/STM32F0xx_HAL_Driver/Inc/stm32f0xx_ll_gpio.h **** }
 374:Drivers/STM32F0xx_HAL_Driver/Inc/stm32f0xx_ll_gpio.h **** 
 375:Drivers/STM32F0xx_HAL_Driver/Inc/stm32f0xx_ll_gpio.h **** /**
 376:Drivers/STM32F0xx_HAL_Driver/Inc/stm32f0xx_ll_gpio.h ****   * @brief  Configure gpio speed for a dedicated pin on dedicated port.
 377:Drivers/STM32F0xx_HAL_Driver/Inc/stm32f0xx_ll_gpio.h ****   * @note   I/O speed can be Low, Medium, Fast or High speed.
 378:Drivers/STM32F0xx_HAL_Driver/Inc/stm32f0xx_ll_gpio.h ****   * @note   Warning: only one pin can be passed as parameter.
 379:Drivers/STM32F0xx_HAL_Driver/Inc/stm32f0xx_ll_gpio.h ****   * @note   Refer to datasheet for frequency specifications and the power
 380:Drivers/STM32F0xx_HAL_Driver/Inc/stm32f0xx_ll_gpio.h ****   *         supply and load conditions for each speed.
 381:Drivers/STM32F0xx_HAL_Driver/Inc/stm32f0xx_ll_gpio.h ****   * @rmtoll OSPEEDR      OSPEEDy       LL_GPIO_SetPinSpeed
 382:Drivers/STM32F0xx_HAL_Driver/Inc/stm32f0xx_ll_gpio.h ****   * @param  GPIOx GPIO Port
 383:Drivers/STM32F0xx_HAL_Driver/Inc/stm32f0xx_ll_gpio.h ****   * @param  Pin This parameter can be one of the following values:
 384:Drivers/STM32F0xx_HAL_Driver/Inc/stm32f0xx_ll_gpio.h ****   *         @arg @ref LL_GPIO_PIN_0
 385:Drivers/STM32F0xx_HAL_Driver/Inc/stm32f0xx_ll_gpio.h ****   *         @arg @ref LL_GPIO_PIN_1
 386:Drivers/STM32F0xx_HAL_Driver/Inc/stm32f0xx_ll_gpio.h ****   *         @arg @ref LL_GPIO_PIN_2
 387:Drivers/STM32F0xx_HAL_Driver/Inc/stm32f0xx_ll_gpio.h ****   *         @arg @ref LL_GPIO_PIN_3
 388:Drivers/STM32F0xx_HAL_Driver/Inc/stm32f0xx_ll_gpio.h ****   *         @arg @ref LL_GPIO_PIN_4
 389:Drivers/STM32F0xx_HAL_Driver/Inc/stm32f0xx_ll_gpio.h ****   *         @arg @ref LL_GPIO_PIN_5
 390:Drivers/STM32F0xx_HAL_Driver/Inc/stm32f0xx_ll_gpio.h ****   *         @arg @ref LL_GPIO_PIN_6
 391:Drivers/STM32F0xx_HAL_Driver/Inc/stm32f0xx_ll_gpio.h ****   *         @arg @ref LL_GPIO_PIN_7
 392:Drivers/STM32F0xx_HAL_Driver/Inc/stm32f0xx_ll_gpio.h ****   *         @arg @ref LL_GPIO_PIN_8
 393:Drivers/STM32F0xx_HAL_Driver/Inc/stm32f0xx_ll_gpio.h ****   *         @arg @ref LL_GPIO_PIN_9
 394:Drivers/STM32F0xx_HAL_Driver/Inc/stm32f0xx_ll_gpio.h ****   *         @arg @ref LL_GPIO_PIN_10
 395:Drivers/STM32F0xx_HAL_Driver/Inc/stm32f0xx_ll_gpio.h ****   *         @arg @ref LL_GPIO_PIN_11
 396:Drivers/STM32F0xx_HAL_Driver/Inc/stm32f0xx_ll_gpio.h ****   *         @arg @ref LL_GPIO_PIN_12
 397:Drivers/STM32F0xx_HAL_Driver/Inc/stm32f0xx_ll_gpio.h ****   *         @arg @ref LL_GPIO_PIN_13
 398:Drivers/STM32F0xx_HAL_Driver/Inc/stm32f0xx_ll_gpio.h ****   *         @arg @ref LL_GPIO_PIN_14
 399:Drivers/STM32F0xx_HAL_Driver/Inc/stm32f0xx_ll_gpio.h ****   *         @arg @ref LL_GPIO_PIN_15
 400:Drivers/STM32F0xx_HAL_Driver/Inc/stm32f0xx_ll_gpio.h ****   * @param  Speed This parameter can be one of the following values:
 401:Drivers/STM32F0xx_HAL_Driver/Inc/stm32f0xx_ll_gpio.h ****   *         @arg @ref LL_GPIO_SPEED_FREQ_LOW
 402:Drivers/STM32F0xx_HAL_Driver/Inc/stm32f0xx_ll_gpio.h ****   *         @arg @ref LL_GPIO_SPEED_FREQ_MEDIUM
 403:Drivers/STM32F0xx_HAL_Driver/Inc/stm32f0xx_ll_gpio.h ****   *         @arg @ref LL_GPIO_SPEED_FREQ_HIGH
 404:Drivers/STM32F0xx_HAL_Driver/Inc/stm32f0xx_ll_gpio.h ****   * @retval None
 405:Drivers/STM32F0xx_HAL_Driver/Inc/stm32f0xx_ll_gpio.h ****   */
 406:Drivers/STM32F0xx_HAL_Driver/Inc/stm32f0xx_ll_gpio.h **** __STATIC_INLINE void LL_GPIO_SetPinSpeed(GPIO_TypeDef *GPIOx, uint32_t Pin, uint32_t  Speed)
 407:Drivers/STM32F0xx_HAL_Driver/Inc/stm32f0xx_ll_gpio.h **** {
 408:Drivers/STM32F0xx_HAL_Driver/Inc/stm32f0xx_ll_gpio.h ****   MODIFY_REG(GPIOx->OSPEEDR, ((Pin * Pin) * GPIO_OSPEEDR_OSPEEDR0), ((Pin * Pin) * Speed));
 409:Drivers/STM32F0xx_HAL_Driver/Inc/stm32f0xx_ll_gpio.h **** }
 410:Drivers/STM32F0xx_HAL_Driver/Inc/stm32f0xx_ll_gpio.h **** 
 411:Drivers/STM32F0xx_HAL_Driver/Inc/stm32f0xx_ll_gpio.h **** /**
 412:Drivers/STM32F0xx_HAL_Driver/Inc/stm32f0xx_ll_gpio.h ****   * @brief  Return gpio speed for a dedicated pin on dedicated port.
 413:Drivers/STM32F0xx_HAL_Driver/Inc/stm32f0xx_ll_gpio.h ****   * @note   I/O speed can be Low, Medium, Fast or High speed.
 414:Drivers/STM32F0xx_HAL_Driver/Inc/stm32f0xx_ll_gpio.h ****   * @note   Warning: only one pin can be passed as parameter.
 415:Drivers/STM32F0xx_HAL_Driver/Inc/stm32f0xx_ll_gpio.h ****   * @note   Refer to datasheet for frequency specifications and the power
 416:Drivers/STM32F0xx_HAL_Driver/Inc/stm32f0xx_ll_gpio.h ****   *         supply and load conditions for each speed.
 417:Drivers/STM32F0xx_HAL_Driver/Inc/stm32f0xx_ll_gpio.h ****   * @rmtoll OSPEEDR      OSPEEDy       LL_GPIO_GetPinSpeed
 418:Drivers/STM32F0xx_HAL_Driver/Inc/stm32f0xx_ll_gpio.h ****   * @param  GPIOx GPIO Port
 419:Drivers/STM32F0xx_HAL_Driver/Inc/stm32f0xx_ll_gpio.h ****   * @param  Pin This parameter can be one of the following values:
 420:Drivers/STM32F0xx_HAL_Driver/Inc/stm32f0xx_ll_gpio.h ****   *         @arg @ref LL_GPIO_PIN_0
 421:Drivers/STM32F0xx_HAL_Driver/Inc/stm32f0xx_ll_gpio.h ****   *         @arg @ref LL_GPIO_PIN_1
 422:Drivers/STM32F0xx_HAL_Driver/Inc/stm32f0xx_ll_gpio.h ****   *         @arg @ref LL_GPIO_PIN_2
 423:Drivers/STM32F0xx_HAL_Driver/Inc/stm32f0xx_ll_gpio.h ****   *         @arg @ref LL_GPIO_PIN_3
 424:Drivers/STM32F0xx_HAL_Driver/Inc/stm32f0xx_ll_gpio.h ****   *         @arg @ref LL_GPIO_PIN_4
 425:Drivers/STM32F0xx_HAL_Driver/Inc/stm32f0xx_ll_gpio.h ****   *         @arg @ref LL_GPIO_PIN_5
 426:Drivers/STM32F0xx_HAL_Driver/Inc/stm32f0xx_ll_gpio.h ****   *         @arg @ref LL_GPIO_PIN_6
ARM GAS  /tmp/ccl1p6uj.s 			page 48


 427:Drivers/STM32F0xx_HAL_Driver/Inc/stm32f0xx_ll_gpio.h ****   *         @arg @ref LL_GPIO_PIN_7
 428:Drivers/STM32F0xx_HAL_Driver/Inc/stm32f0xx_ll_gpio.h ****   *         @arg @ref LL_GPIO_PIN_8
 429:Drivers/STM32F0xx_HAL_Driver/Inc/stm32f0xx_ll_gpio.h ****   *         @arg @ref LL_GPIO_PIN_9
 430:Drivers/STM32F0xx_HAL_Driver/Inc/stm32f0xx_ll_gpio.h ****   *         @arg @ref LL_GPIO_PIN_10
 431:Drivers/STM32F0xx_HAL_Driver/Inc/stm32f0xx_ll_gpio.h ****   *         @arg @ref LL_GPIO_PIN_11
 432:Drivers/STM32F0xx_HAL_Driver/Inc/stm32f0xx_ll_gpio.h ****   *         @arg @ref LL_GPIO_PIN_12
 433:Drivers/STM32F0xx_HAL_Driver/Inc/stm32f0xx_ll_gpio.h ****   *         @arg @ref LL_GPIO_PIN_13
 434:Drivers/STM32F0xx_HAL_Driver/Inc/stm32f0xx_ll_gpio.h ****   *         @arg @ref LL_GPIO_PIN_14
 435:Drivers/STM32F0xx_HAL_Driver/Inc/stm32f0xx_ll_gpio.h ****   *         @arg @ref LL_GPIO_PIN_15
 436:Drivers/STM32F0xx_HAL_Driver/Inc/stm32f0xx_ll_gpio.h ****   * @retval Returned value can be one of the following values:
 437:Drivers/STM32F0xx_HAL_Driver/Inc/stm32f0xx_ll_gpio.h ****   *         @arg @ref LL_GPIO_SPEED_FREQ_LOW
 438:Drivers/STM32F0xx_HAL_Driver/Inc/stm32f0xx_ll_gpio.h ****   *         @arg @ref LL_GPIO_SPEED_FREQ_MEDIUM
 439:Drivers/STM32F0xx_HAL_Driver/Inc/stm32f0xx_ll_gpio.h ****   *         @arg @ref LL_GPIO_SPEED_FREQ_HIGH
 440:Drivers/STM32F0xx_HAL_Driver/Inc/stm32f0xx_ll_gpio.h ****   */
 441:Drivers/STM32F0xx_HAL_Driver/Inc/stm32f0xx_ll_gpio.h **** __STATIC_INLINE uint32_t LL_GPIO_GetPinSpeed(GPIO_TypeDef *GPIOx, uint32_t Pin)
 442:Drivers/STM32F0xx_HAL_Driver/Inc/stm32f0xx_ll_gpio.h **** {
 443:Drivers/STM32F0xx_HAL_Driver/Inc/stm32f0xx_ll_gpio.h ****   return (uint32_t)(READ_BIT(GPIOx->OSPEEDR, ((Pin * Pin) * GPIO_OSPEEDR_OSPEEDR0)) / (Pin * Pin));
 444:Drivers/STM32F0xx_HAL_Driver/Inc/stm32f0xx_ll_gpio.h **** }
 445:Drivers/STM32F0xx_HAL_Driver/Inc/stm32f0xx_ll_gpio.h **** 
 446:Drivers/STM32F0xx_HAL_Driver/Inc/stm32f0xx_ll_gpio.h **** /**
 447:Drivers/STM32F0xx_HAL_Driver/Inc/stm32f0xx_ll_gpio.h ****   * @brief  Configure gpio pull-up or pull-down for a dedicated pin on a dedicated port.
 448:Drivers/STM32F0xx_HAL_Driver/Inc/stm32f0xx_ll_gpio.h ****   * @note   Warning: only one pin can be passed as parameter.
 449:Drivers/STM32F0xx_HAL_Driver/Inc/stm32f0xx_ll_gpio.h ****   * @rmtoll PUPDR        PUPDy         LL_GPIO_SetPinPull
 450:Drivers/STM32F0xx_HAL_Driver/Inc/stm32f0xx_ll_gpio.h ****   * @param  GPIOx GPIO Port
 451:Drivers/STM32F0xx_HAL_Driver/Inc/stm32f0xx_ll_gpio.h ****   * @param  Pin This parameter can be one of the following values:
 452:Drivers/STM32F0xx_HAL_Driver/Inc/stm32f0xx_ll_gpio.h ****   *         @arg @ref LL_GPIO_PIN_0
 453:Drivers/STM32F0xx_HAL_Driver/Inc/stm32f0xx_ll_gpio.h ****   *         @arg @ref LL_GPIO_PIN_1
 454:Drivers/STM32F0xx_HAL_Driver/Inc/stm32f0xx_ll_gpio.h ****   *         @arg @ref LL_GPIO_PIN_2
 455:Drivers/STM32F0xx_HAL_Driver/Inc/stm32f0xx_ll_gpio.h ****   *         @arg @ref LL_GPIO_PIN_3
 456:Drivers/STM32F0xx_HAL_Driver/Inc/stm32f0xx_ll_gpio.h ****   *         @arg @ref LL_GPIO_PIN_4
 457:Drivers/STM32F0xx_HAL_Driver/Inc/stm32f0xx_ll_gpio.h ****   *         @arg @ref LL_GPIO_PIN_5
 458:Drivers/STM32F0xx_HAL_Driver/Inc/stm32f0xx_ll_gpio.h ****   *         @arg @ref LL_GPIO_PIN_6
 459:Drivers/STM32F0xx_HAL_Driver/Inc/stm32f0xx_ll_gpio.h ****   *         @arg @ref LL_GPIO_PIN_7
 460:Drivers/STM32F0xx_HAL_Driver/Inc/stm32f0xx_ll_gpio.h ****   *         @arg @ref LL_GPIO_PIN_8
 461:Drivers/STM32F0xx_HAL_Driver/Inc/stm32f0xx_ll_gpio.h ****   *         @arg @ref LL_GPIO_PIN_9
 462:Drivers/STM32F0xx_HAL_Driver/Inc/stm32f0xx_ll_gpio.h ****   *         @arg @ref LL_GPIO_PIN_10
 463:Drivers/STM32F0xx_HAL_Driver/Inc/stm32f0xx_ll_gpio.h ****   *         @arg @ref LL_GPIO_PIN_11
 464:Drivers/STM32F0xx_HAL_Driver/Inc/stm32f0xx_ll_gpio.h ****   *         @arg @ref LL_GPIO_PIN_12
 465:Drivers/STM32F0xx_HAL_Driver/Inc/stm32f0xx_ll_gpio.h ****   *         @arg @ref LL_GPIO_PIN_13
 466:Drivers/STM32F0xx_HAL_Driver/Inc/stm32f0xx_ll_gpio.h ****   *         @arg @ref LL_GPIO_PIN_14
 467:Drivers/STM32F0xx_HAL_Driver/Inc/stm32f0xx_ll_gpio.h ****   *         @arg @ref LL_GPIO_PIN_15
 468:Drivers/STM32F0xx_HAL_Driver/Inc/stm32f0xx_ll_gpio.h ****   * @param  Pull This parameter can be one of the following values:
 469:Drivers/STM32F0xx_HAL_Driver/Inc/stm32f0xx_ll_gpio.h ****   *         @arg @ref LL_GPIO_PULL_NO
 470:Drivers/STM32F0xx_HAL_Driver/Inc/stm32f0xx_ll_gpio.h ****   *         @arg @ref LL_GPIO_PULL_UP
 471:Drivers/STM32F0xx_HAL_Driver/Inc/stm32f0xx_ll_gpio.h ****   *         @arg @ref LL_GPIO_PULL_DOWN
 472:Drivers/STM32F0xx_HAL_Driver/Inc/stm32f0xx_ll_gpio.h ****   * @retval None
 473:Drivers/STM32F0xx_HAL_Driver/Inc/stm32f0xx_ll_gpio.h ****   */
 474:Drivers/STM32F0xx_HAL_Driver/Inc/stm32f0xx_ll_gpio.h **** __STATIC_INLINE void LL_GPIO_SetPinPull(GPIO_TypeDef *GPIOx, uint32_t Pin, uint32_t Pull)
 475:Drivers/STM32F0xx_HAL_Driver/Inc/stm32f0xx_ll_gpio.h **** {
 476:Drivers/STM32F0xx_HAL_Driver/Inc/stm32f0xx_ll_gpio.h ****   MODIFY_REG(GPIOx->PUPDR, ((Pin * Pin) * GPIO_PUPDR_PUPDR0), ((Pin * Pin) * Pull));
 477:Drivers/STM32F0xx_HAL_Driver/Inc/stm32f0xx_ll_gpio.h **** }
 478:Drivers/STM32F0xx_HAL_Driver/Inc/stm32f0xx_ll_gpio.h **** 
 479:Drivers/STM32F0xx_HAL_Driver/Inc/stm32f0xx_ll_gpio.h **** /**
 480:Drivers/STM32F0xx_HAL_Driver/Inc/stm32f0xx_ll_gpio.h ****   * @brief  Return gpio pull-up or pull-down for a dedicated pin on a dedicated port
 481:Drivers/STM32F0xx_HAL_Driver/Inc/stm32f0xx_ll_gpio.h ****   * @note   Warning: only one pin can be passed as parameter.
 482:Drivers/STM32F0xx_HAL_Driver/Inc/stm32f0xx_ll_gpio.h ****   * @rmtoll PUPDR        PUPDy         LL_GPIO_GetPinPull
 483:Drivers/STM32F0xx_HAL_Driver/Inc/stm32f0xx_ll_gpio.h ****   * @param  GPIOx GPIO Port
ARM GAS  /tmp/ccl1p6uj.s 			page 49


 484:Drivers/STM32F0xx_HAL_Driver/Inc/stm32f0xx_ll_gpio.h ****   * @param  Pin This parameter can be one of the following values:
 485:Drivers/STM32F0xx_HAL_Driver/Inc/stm32f0xx_ll_gpio.h ****   *         @arg @ref LL_GPIO_PIN_0
 486:Drivers/STM32F0xx_HAL_Driver/Inc/stm32f0xx_ll_gpio.h ****   *         @arg @ref LL_GPIO_PIN_1
 487:Drivers/STM32F0xx_HAL_Driver/Inc/stm32f0xx_ll_gpio.h ****   *         @arg @ref LL_GPIO_PIN_2
 488:Drivers/STM32F0xx_HAL_Driver/Inc/stm32f0xx_ll_gpio.h ****   *         @arg @ref LL_GPIO_PIN_3
 489:Drivers/STM32F0xx_HAL_Driver/Inc/stm32f0xx_ll_gpio.h ****   *         @arg @ref LL_GPIO_PIN_4
 490:Drivers/STM32F0xx_HAL_Driver/Inc/stm32f0xx_ll_gpio.h ****   *         @arg @ref LL_GPIO_PIN_5
 491:Drivers/STM32F0xx_HAL_Driver/Inc/stm32f0xx_ll_gpio.h ****   *         @arg @ref LL_GPIO_PIN_6
 492:Drivers/STM32F0xx_HAL_Driver/Inc/stm32f0xx_ll_gpio.h ****   *         @arg @ref LL_GPIO_PIN_7
 493:Drivers/STM32F0xx_HAL_Driver/Inc/stm32f0xx_ll_gpio.h ****   *         @arg @ref LL_GPIO_PIN_8
 494:Drivers/STM32F0xx_HAL_Driver/Inc/stm32f0xx_ll_gpio.h ****   *         @arg @ref LL_GPIO_PIN_9
 495:Drivers/STM32F0xx_HAL_Driver/Inc/stm32f0xx_ll_gpio.h ****   *         @arg @ref LL_GPIO_PIN_10
 496:Drivers/STM32F0xx_HAL_Driver/Inc/stm32f0xx_ll_gpio.h ****   *         @arg @ref LL_GPIO_PIN_11
 497:Drivers/STM32F0xx_HAL_Driver/Inc/stm32f0xx_ll_gpio.h ****   *         @arg @ref LL_GPIO_PIN_12
 498:Drivers/STM32F0xx_HAL_Driver/Inc/stm32f0xx_ll_gpio.h ****   *         @arg @ref LL_GPIO_PIN_13
 499:Drivers/STM32F0xx_HAL_Driver/Inc/stm32f0xx_ll_gpio.h ****   *         @arg @ref LL_GPIO_PIN_14
 500:Drivers/STM32F0xx_HAL_Driver/Inc/stm32f0xx_ll_gpio.h ****   *         @arg @ref LL_GPIO_PIN_15
 501:Drivers/STM32F0xx_HAL_Driver/Inc/stm32f0xx_ll_gpio.h ****   * @retval Returned value can be one of the following values:
 502:Drivers/STM32F0xx_HAL_Driver/Inc/stm32f0xx_ll_gpio.h ****   *         @arg @ref LL_GPIO_PULL_NO
 503:Drivers/STM32F0xx_HAL_Driver/Inc/stm32f0xx_ll_gpio.h ****   *         @arg @ref LL_GPIO_PULL_UP
 504:Drivers/STM32F0xx_HAL_Driver/Inc/stm32f0xx_ll_gpio.h ****   *         @arg @ref LL_GPIO_PULL_DOWN
 505:Drivers/STM32F0xx_HAL_Driver/Inc/stm32f0xx_ll_gpio.h ****   */
 506:Drivers/STM32F0xx_HAL_Driver/Inc/stm32f0xx_ll_gpio.h **** __STATIC_INLINE uint32_t LL_GPIO_GetPinPull(GPIO_TypeDef *GPIOx, uint32_t Pin)
 507:Drivers/STM32F0xx_HAL_Driver/Inc/stm32f0xx_ll_gpio.h **** {
 508:Drivers/STM32F0xx_HAL_Driver/Inc/stm32f0xx_ll_gpio.h ****   return (uint32_t)(READ_BIT(GPIOx->PUPDR, ((Pin * Pin) * GPIO_PUPDR_PUPDR0)) / (Pin * Pin));
 509:Drivers/STM32F0xx_HAL_Driver/Inc/stm32f0xx_ll_gpio.h **** }
 510:Drivers/STM32F0xx_HAL_Driver/Inc/stm32f0xx_ll_gpio.h **** 
 511:Drivers/STM32F0xx_HAL_Driver/Inc/stm32f0xx_ll_gpio.h **** /**
 512:Drivers/STM32F0xx_HAL_Driver/Inc/stm32f0xx_ll_gpio.h ****   * @brief  Configure gpio alternate function of a dedicated pin from 0 to 7 for a dedicated port.
 513:Drivers/STM32F0xx_HAL_Driver/Inc/stm32f0xx_ll_gpio.h ****   * @note   Possible values are from AF0 to AF7 depending on target.
 514:Drivers/STM32F0xx_HAL_Driver/Inc/stm32f0xx_ll_gpio.h ****   * @note   Warning: only one pin can be passed as parameter.
 515:Drivers/STM32F0xx_HAL_Driver/Inc/stm32f0xx_ll_gpio.h ****   * @rmtoll AFRL         AFSELy        LL_GPIO_SetAFPin_0_7
 516:Drivers/STM32F0xx_HAL_Driver/Inc/stm32f0xx_ll_gpio.h ****   * @param  GPIOx GPIO Port
 517:Drivers/STM32F0xx_HAL_Driver/Inc/stm32f0xx_ll_gpio.h ****   * @param  Pin This parameter can be one of the following values:
 518:Drivers/STM32F0xx_HAL_Driver/Inc/stm32f0xx_ll_gpio.h ****   *         @arg @ref LL_GPIO_PIN_0
 519:Drivers/STM32F0xx_HAL_Driver/Inc/stm32f0xx_ll_gpio.h ****   *         @arg @ref LL_GPIO_PIN_1
 520:Drivers/STM32F0xx_HAL_Driver/Inc/stm32f0xx_ll_gpio.h ****   *         @arg @ref LL_GPIO_PIN_2
 521:Drivers/STM32F0xx_HAL_Driver/Inc/stm32f0xx_ll_gpio.h ****   *         @arg @ref LL_GPIO_PIN_3
 522:Drivers/STM32F0xx_HAL_Driver/Inc/stm32f0xx_ll_gpio.h ****   *         @arg @ref LL_GPIO_PIN_4
 523:Drivers/STM32F0xx_HAL_Driver/Inc/stm32f0xx_ll_gpio.h ****   *         @arg @ref LL_GPIO_PIN_5
 524:Drivers/STM32F0xx_HAL_Driver/Inc/stm32f0xx_ll_gpio.h ****   *         @arg @ref LL_GPIO_PIN_6
 525:Drivers/STM32F0xx_HAL_Driver/Inc/stm32f0xx_ll_gpio.h ****   *         @arg @ref LL_GPIO_PIN_7
 526:Drivers/STM32F0xx_HAL_Driver/Inc/stm32f0xx_ll_gpio.h ****   * @param  Alternate This parameter can be one of the following values:
 527:Drivers/STM32F0xx_HAL_Driver/Inc/stm32f0xx_ll_gpio.h ****   *         @arg @ref LL_GPIO_AF_0
 528:Drivers/STM32F0xx_HAL_Driver/Inc/stm32f0xx_ll_gpio.h ****   *         @arg @ref LL_GPIO_AF_1
 529:Drivers/STM32F0xx_HAL_Driver/Inc/stm32f0xx_ll_gpio.h ****   *         @arg @ref LL_GPIO_AF_2
 530:Drivers/STM32F0xx_HAL_Driver/Inc/stm32f0xx_ll_gpio.h ****   *         @arg @ref LL_GPIO_AF_3
 531:Drivers/STM32F0xx_HAL_Driver/Inc/stm32f0xx_ll_gpio.h ****   *         @arg @ref LL_GPIO_AF_4
 532:Drivers/STM32F0xx_HAL_Driver/Inc/stm32f0xx_ll_gpio.h ****   *         @arg @ref LL_GPIO_AF_5
 533:Drivers/STM32F0xx_HAL_Driver/Inc/stm32f0xx_ll_gpio.h ****   *         @arg @ref LL_GPIO_AF_6
 534:Drivers/STM32F0xx_HAL_Driver/Inc/stm32f0xx_ll_gpio.h ****   *         @arg @ref LL_GPIO_AF_7
 535:Drivers/STM32F0xx_HAL_Driver/Inc/stm32f0xx_ll_gpio.h ****   * @retval None
 536:Drivers/STM32F0xx_HAL_Driver/Inc/stm32f0xx_ll_gpio.h ****   */
 537:Drivers/STM32F0xx_HAL_Driver/Inc/stm32f0xx_ll_gpio.h **** __STATIC_INLINE void LL_GPIO_SetAFPin_0_7(GPIO_TypeDef *GPIOx, uint32_t Pin, uint32_t Alternate)
 538:Drivers/STM32F0xx_HAL_Driver/Inc/stm32f0xx_ll_gpio.h **** {
 539:Drivers/STM32F0xx_HAL_Driver/Inc/stm32f0xx_ll_gpio.h ****   MODIFY_REG(GPIOx->AFR[0], ((((Pin * Pin) * Pin) * Pin) * GPIO_AFRL_AFSEL0),
 540:Drivers/STM32F0xx_HAL_Driver/Inc/stm32f0xx_ll_gpio.h ****              ((((Pin * Pin) * Pin) * Pin) * Alternate));
ARM GAS  /tmp/ccl1p6uj.s 			page 50


 541:Drivers/STM32F0xx_HAL_Driver/Inc/stm32f0xx_ll_gpio.h **** }
 542:Drivers/STM32F0xx_HAL_Driver/Inc/stm32f0xx_ll_gpio.h **** 
 543:Drivers/STM32F0xx_HAL_Driver/Inc/stm32f0xx_ll_gpio.h **** /**
 544:Drivers/STM32F0xx_HAL_Driver/Inc/stm32f0xx_ll_gpio.h ****   * @brief  Return gpio alternate function of a dedicated pin from 0 to 7 for a dedicated port.
 545:Drivers/STM32F0xx_HAL_Driver/Inc/stm32f0xx_ll_gpio.h ****   * @rmtoll AFRL         AFSELy        LL_GPIO_GetAFPin_0_7
 546:Drivers/STM32F0xx_HAL_Driver/Inc/stm32f0xx_ll_gpio.h ****   * @param  GPIOx GPIO Port
 547:Drivers/STM32F0xx_HAL_Driver/Inc/stm32f0xx_ll_gpio.h ****   * @param  Pin This parameter can be one of the following values:
 548:Drivers/STM32F0xx_HAL_Driver/Inc/stm32f0xx_ll_gpio.h ****   *         @arg @ref LL_GPIO_PIN_0
 549:Drivers/STM32F0xx_HAL_Driver/Inc/stm32f0xx_ll_gpio.h ****   *         @arg @ref LL_GPIO_PIN_1
 550:Drivers/STM32F0xx_HAL_Driver/Inc/stm32f0xx_ll_gpio.h ****   *         @arg @ref LL_GPIO_PIN_2
 551:Drivers/STM32F0xx_HAL_Driver/Inc/stm32f0xx_ll_gpio.h ****   *         @arg @ref LL_GPIO_PIN_3
 552:Drivers/STM32F0xx_HAL_Driver/Inc/stm32f0xx_ll_gpio.h ****   *         @arg @ref LL_GPIO_PIN_4
 553:Drivers/STM32F0xx_HAL_Driver/Inc/stm32f0xx_ll_gpio.h ****   *         @arg @ref LL_GPIO_PIN_5
 554:Drivers/STM32F0xx_HAL_Driver/Inc/stm32f0xx_ll_gpio.h ****   *         @arg @ref LL_GPIO_PIN_6
 555:Drivers/STM32F0xx_HAL_Driver/Inc/stm32f0xx_ll_gpio.h ****   *         @arg @ref LL_GPIO_PIN_7
 556:Drivers/STM32F0xx_HAL_Driver/Inc/stm32f0xx_ll_gpio.h ****   * @retval Returned value can be one of the following values:
 557:Drivers/STM32F0xx_HAL_Driver/Inc/stm32f0xx_ll_gpio.h ****   *         @arg @ref LL_GPIO_AF_0
 558:Drivers/STM32F0xx_HAL_Driver/Inc/stm32f0xx_ll_gpio.h ****   *         @arg @ref LL_GPIO_AF_1
 559:Drivers/STM32F0xx_HAL_Driver/Inc/stm32f0xx_ll_gpio.h ****   *         @arg @ref LL_GPIO_AF_2
 560:Drivers/STM32F0xx_HAL_Driver/Inc/stm32f0xx_ll_gpio.h ****   *         @arg @ref LL_GPIO_AF_3
 561:Drivers/STM32F0xx_HAL_Driver/Inc/stm32f0xx_ll_gpio.h ****   *         @arg @ref LL_GPIO_AF_4
 562:Drivers/STM32F0xx_HAL_Driver/Inc/stm32f0xx_ll_gpio.h ****   *         @arg @ref LL_GPIO_AF_5
 563:Drivers/STM32F0xx_HAL_Driver/Inc/stm32f0xx_ll_gpio.h ****   *         @arg @ref LL_GPIO_AF_6
 564:Drivers/STM32F0xx_HAL_Driver/Inc/stm32f0xx_ll_gpio.h ****   *         @arg @ref LL_GPIO_AF_7
 565:Drivers/STM32F0xx_HAL_Driver/Inc/stm32f0xx_ll_gpio.h ****   */
 566:Drivers/STM32F0xx_HAL_Driver/Inc/stm32f0xx_ll_gpio.h **** __STATIC_INLINE uint32_t LL_GPIO_GetAFPin_0_7(GPIO_TypeDef *GPIOx, uint32_t Pin)
 567:Drivers/STM32F0xx_HAL_Driver/Inc/stm32f0xx_ll_gpio.h **** {
 568:Drivers/STM32F0xx_HAL_Driver/Inc/stm32f0xx_ll_gpio.h ****   return (uint32_t)(READ_BIT(GPIOx->AFR[0],
 569:Drivers/STM32F0xx_HAL_Driver/Inc/stm32f0xx_ll_gpio.h ****                              ((((Pin * Pin) * Pin) * Pin) * GPIO_AFRL_AFSEL0)) / (((Pin * Pin) * Pi
 570:Drivers/STM32F0xx_HAL_Driver/Inc/stm32f0xx_ll_gpio.h **** }
 571:Drivers/STM32F0xx_HAL_Driver/Inc/stm32f0xx_ll_gpio.h **** 
 572:Drivers/STM32F0xx_HAL_Driver/Inc/stm32f0xx_ll_gpio.h **** /**
 573:Drivers/STM32F0xx_HAL_Driver/Inc/stm32f0xx_ll_gpio.h ****   * @brief  Configure gpio alternate function of a dedicated pin from 8 to 15 for a dedicated port.
 574:Drivers/STM32F0xx_HAL_Driver/Inc/stm32f0xx_ll_gpio.h ****   * @note   Possible values are from AF0 to AF7 depending on target.
 575:Drivers/STM32F0xx_HAL_Driver/Inc/stm32f0xx_ll_gpio.h ****   * @note   Warning: only one pin can be passed as parameter.
 576:Drivers/STM32F0xx_HAL_Driver/Inc/stm32f0xx_ll_gpio.h ****   * @rmtoll AFRH         AFSELy        LL_GPIO_SetAFPin_8_15
 577:Drivers/STM32F0xx_HAL_Driver/Inc/stm32f0xx_ll_gpio.h ****   * @param  GPIOx GPIO Port
 578:Drivers/STM32F0xx_HAL_Driver/Inc/stm32f0xx_ll_gpio.h ****   * @param  Pin This parameter can be one of the following values:
 579:Drivers/STM32F0xx_HAL_Driver/Inc/stm32f0xx_ll_gpio.h ****   *         @arg @ref LL_GPIO_PIN_8
 580:Drivers/STM32F0xx_HAL_Driver/Inc/stm32f0xx_ll_gpio.h ****   *         @arg @ref LL_GPIO_PIN_9
 581:Drivers/STM32F0xx_HAL_Driver/Inc/stm32f0xx_ll_gpio.h ****   *         @arg @ref LL_GPIO_PIN_10
 582:Drivers/STM32F0xx_HAL_Driver/Inc/stm32f0xx_ll_gpio.h ****   *         @arg @ref LL_GPIO_PIN_11
 583:Drivers/STM32F0xx_HAL_Driver/Inc/stm32f0xx_ll_gpio.h ****   *         @arg @ref LL_GPIO_PIN_12
 584:Drivers/STM32F0xx_HAL_Driver/Inc/stm32f0xx_ll_gpio.h ****   *         @arg @ref LL_GPIO_PIN_13
 585:Drivers/STM32F0xx_HAL_Driver/Inc/stm32f0xx_ll_gpio.h ****   *         @arg @ref LL_GPIO_PIN_14
 586:Drivers/STM32F0xx_HAL_Driver/Inc/stm32f0xx_ll_gpio.h ****   *         @arg @ref LL_GPIO_PIN_15
 587:Drivers/STM32F0xx_HAL_Driver/Inc/stm32f0xx_ll_gpio.h ****   * @param  Alternate This parameter can be one of the following values:
 588:Drivers/STM32F0xx_HAL_Driver/Inc/stm32f0xx_ll_gpio.h ****   *         @arg @ref LL_GPIO_AF_0
 589:Drivers/STM32F0xx_HAL_Driver/Inc/stm32f0xx_ll_gpio.h ****   *         @arg @ref LL_GPIO_AF_1
 590:Drivers/STM32F0xx_HAL_Driver/Inc/stm32f0xx_ll_gpio.h ****   *         @arg @ref LL_GPIO_AF_2
 591:Drivers/STM32F0xx_HAL_Driver/Inc/stm32f0xx_ll_gpio.h ****   *         @arg @ref LL_GPIO_AF_3
 592:Drivers/STM32F0xx_HAL_Driver/Inc/stm32f0xx_ll_gpio.h ****   *         @arg @ref LL_GPIO_AF_4
 593:Drivers/STM32F0xx_HAL_Driver/Inc/stm32f0xx_ll_gpio.h ****   *         @arg @ref LL_GPIO_AF_5
 594:Drivers/STM32F0xx_HAL_Driver/Inc/stm32f0xx_ll_gpio.h ****   *         @arg @ref LL_GPIO_AF_6
 595:Drivers/STM32F0xx_HAL_Driver/Inc/stm32f0xx_ll_gpio.h ****   *         @arg @ref LL_GPIO_AF_7
 596:Drivers/STM32F0xx_HAL_Driver/Inc/stm32f0xx_ll_gpio.h ****   * @retval None
 597:Drivers/STM32F0xx_HAL_Driver/Inc/stm32f0xx_ll_gpio.h ****   */
ARM GAS  /tmp/ccl1p6uj.s 			page 51


 598:Drivers/STM32F0xx_HAL_Driver/Inc/stm32f0xx_ll_gpio.h **** __STATIC_INLINE void LL_GPIO_SetAFPin_8_15(GPIO_TypeDef *GPIOx, uint32_t Pin, uint32_t Alternate)
 599:Drivers/STM32F0xx_HAL_Driver/Inc/stm32f0xx_ll_gpio.h **** {
 600:Drivers/STM32F0xx_HAL_Driver/Inc/stm32f0xx_ll_gpio.h ****   MODIFY_REG(GPIOx->AFR[1], (((((Pin >> 8U) * (Pin >> 8U)) * (Pin >> 8U)) * (Pin >> 8U)) * GPIO_AFR
 601:Drivers/STM32F0xx_HAL_Driver/Inc/stm32f0xx_ll_gpio.h ****              (((((Pin >> 8U) * (Pin >> 8U)) * (Pin >> 8U)) * (Pin >> 8U)) * Alternate));
 602:Drivers/STM32F0xx_HAL_Driver/Inc/stm32f0xx_ll_gpio.h **** }
 603:Drivers/STM32F0xx_HAL_Driver/Inc/stm32f0xx_ll_gpio.h **** 
 604:Drivers/STM32F0xx_HAL_Driver/Inc/stm32f0xx_ll_gpio.h **** /**
 605:Drivers/STM32F0xx_HAL_Driver/Inc/stm32f0xx_ll_gpio.h ****   * @brief  Return gpio alternate function of a dedicated pin from 8 to 15 for a dedicated port.
 606:Drivers/STM32F0xx_HAL_Driver/Inc/stm32f0xx_ll_gpio.h ****   * @note   Possible values are from AF0 to AF7 depending on target.
 607:Drivers/STM32F0xx_HAL_Driver/Inc/stm32f0xx_ll_gpio.h ****   * @rmtoll AFRH         AFSELy        LL_GPIO_GetAFPin_8_15
 608:Drivers/STM32F0xx_HAL_Driver/Inc/stm32f0xx_ll_gpio.h ****   * @param  GPIOx GPIO Port
 609:Drivers/STM32F0xx_HAL_Driver/Inc/stm32f0xx_ll_gpio.h ****   * @param  Pin This parameter can be one of the following values:
 610:Drivers/STM32F0xx_HAL_Driver/Inc/stm32f0xx_ll_gpio.h ****   *         @arg @ref LL_GPIO_PIN_8
 611:Drivers/STM32F0xx_HAL_Driver/Inc/stm32f0xx_ll_gpio.h ****   *         @arg @ref LL_GPIO_PIN_9
 612:Drivers/STM32F0xx_HAL_Driver/Inc/stm32f0xx_ll_gpio.h ****   *         @arg @ref LL_GPIO_PIN_10
 613:Drivers/STM32F0xx_HAL_Driver/Inc/stm32f0xx_ll_gpio.h ****   *         @arg @ref LL_GPIO_PIN_11
 614:Drivers/STM32F0xx_HAL_Driver/Inc/stm32f0xx_ll_gpio.h ****   *         @arg @ref LL_GPIO_PIN_12
 615:Drivers/STM32F0xx_HAL_Driver/Inc/stm32f0xx_ll_gpio.h ****   *         @arg @ref LL_GPIO_PIN_13
 616:Drivers/STM32F0xx_HAL_Driver/Inc/stm32f0xx_ll_gpio.h ****   *         @arg @ref LL_GPIO_PIN_14
 617:Drivers/STM32F0xx_HAL_Driver/Inc/stm32f0xx_ll_gpio.h ****   *         @arg @ref LL_GPIO_PIN_15
 618:Drivers/STM32F0xx_HAL_Driver/Inc/stm32f0xx_ll_gpio.h ****   * @retval Returned value can be one of the following values:
 619:Drivers/STM32F0xx_HAL_Driver/Inc/stm32f0xx_ll_gpio.h ****   *         @arg @ref LL_GPIO_AF_0
 620:Drivers/STM32F0xx_HAL_Driver/Inc/stm32f0xx_ll_gpio.h ****   *         @arg @ref LL_GPIO_AF_1
 621:Drivers/STM32F0xx_HAL_Driver/Inc/stm32f0xx_ll_gpio.h ****   *         @arg @ref LL_GPIO_AF_2
 622:Drivers/STM32F0xx_HAL_Driver/Inc/stm32f0xx_ll_gpio.h ****   *         @arg @ref LL_GPIO_AF_3
 623:Drivers/STM32F0xx_HAL_Driver/Inc/stm32f0xx_ll_gpio.h ****   *         @arg @ref LL_GPIO_AF_4
 624:Drivers/STM32F0xx_HAL_Driver/Inc/stm32f0xx_ll_gpio.h ****   *         @arg @ref LL_GPIO_AF_5
 625:Drivers/STM32F0xx_HAL_Driver/Inc/stm32f0xx_ll_gpio.h ****   *         @arg @ref LL_GPIO_AF_6
 626:Drivers/STM32F0xx_HAL_Driver/Inc/stm32f0xx_ll_gpio.h ****   *         @arg @ref LL_GPIO_AF_7
 627:Drivers/STM32F0xx_HAL_Driver/Inc/stm32f0xx_ll_gpio.h ****   */
 628:Drivers/STM32F0xx_HAL_Driver/Inc/stm32f0xx_ll_gpio.h **** __STATIC_INLINE uint32_t LL_GPIO_GetAFPin_8_15(GPIO_TypeDef *GPIOx, uint32_t Pin)
 629:Drivers/STM32F0xx_HAL_Driver/Inc/stm32f0xx_ll_gpio.h **** {
 630:Drivers/STM32F0xx_HAL_Driver/Inc/stm32f0xx_ll_gpio.h ****   return (uint32_t)(READ_BIT(GPIOx->AFR[1],
 631:Drivers/STM32F0xx_HAL_Driver/Inc/stm32f0xx_ll_gpio.h ****                              (((((Pin >> 8U) * (Pin >> 8U)) * (Pin >> 8U)) * (Pin >> 8U)) * GPIO_AF
 632:Drivers/STM32F0xx_HAL_Driver/Inc/stm32f0xx_ll_gpio.h ****                                  (Pin >> 8U)) * (Pin >> 8U)) * (Pin >> 8U)));
 633:Drivers/STM32F0xx_HAL_Driver/Inc/stm32f0xx_ll_gpio.h **** }
 634:Drivers/STM32F0xx_HAL_Driver/Inc/stm32f0xx_ll_gpio.h **** 
 635:Drivers/STM32F0xx_HAL_Driver/Inc/stm32f0xx_ll_gpio.h **** 
 636:Drivers/STM32F0xx_HAL_Driver/Inc/stm32f0xx_ll_gpio.h **** /**
 637:Drivers/STM32F0xx_HAL_Driver/Inc/stm32f0xx_ll_gpio.h ****   * @brief  Lock configuration of several pins for a dedicated port.
 638:Drivers/STM32F0xx_HAL_Driver/Inc/stm32f0xx_ll_gpio.h ****   * @note   When the lock sequence has been applied on a port bit, the
 639:Drivers/STM32F0xx_HAL_Driver/Inc/stm32f0xx_ll_gpio.h ****   *         value of this port bit can no longer be modified until the
 640:Drivers/STM32F0xx_HAL_Driver/Inc/stm32f0xx_ll_gpio.h ****   *         next reset.
 641:Drivers/STM32F0xx_HAL_Driver/Inc/stm32f0xx_ll_gpio.h ****   * @note   Each lock bit freezes a specific configuration register
 642:Drivers/STM32F0xx_HAL_Driver/Inc/stm32f0xx_ll_gpio.h ****   *         (control and alternate function registers).
 643:Drivers/STM32F0xx_HAL_Driver/Inc/stm32f0xx_ll_gpio.h ****   * @rmtoll LCKR         LCKK          LL_GPIO_LockPin
 644:Drivers/STM32F0xx_HAL_Driver/Inc/stm32f0xx_ll_gpio.h ****   * @param  GPIOx GPIO Port
 645:Drivers/STM32F0xx_HAL_Driver/Inc/stm32f0xx_ll_gpio.h ****   * @param  PinMask This parameter can be a combination of the following values:
 646:Drivers/STM32F0xx_HAL_Driver/Inc/stm32f0xx_ll_gpio.h ****   *         @arg @ref LL_GPIO_PIN_0
 647:Drivers/STM32F0xx_HAL_Driver/Inc/stm32f0xx_ll_gpio.h ****   *         @arg @ref LL_GPIO_PIN_1
 648:Drivers/STM32F0xx_HAL_Driver/Inc/stm32f0xx_ll_gpio.h ****   *         @arg @ref LL_GPIO_PIN_2
 649:Drivers/STM32F0xx_HAL_Driver/Inc/stm32f0xx_ll_gpio.h ****   *         @arg @ref LL_GPIO_PIN_3
 650:Drivers/STM32F0xx_HAL_Driver/Inc/stm32f0xx_ll_gpio.h ****   *         @arg @ref LL_GPIO_PIN_4
 651:Drivers/STM32F0xx_HAL_Driver/Inc/stm32f0xx_ll_gpio.h ****   *         @arg @ref LL_GPIO_PIN_5
 652:Drivers/STM32F0xx_HAL_Driver/Inc/stm32f0xx_ll_gpio.h ****   *         @arg @ref LL_GPIO_PIN_6
 653:Drivers/STM32F0xx_HAL_Driver/Inc/stm32f0xx_ll_gpio.h ****   *         @arg @ref LL_GPIO_PIN_7
 654:Drivers/STM32F0xx_HAL_Driver/Inc/stm32f0xx_ll_gpio.h ****   *         @arg @ref LL_GPIO_PIN_8
ARM GAS  /tmp/ccl1p6uj.s 			page 52


 655:Drivers/STM32F0xx_HAL_Driver/Inc/stm32f0xx_ll_gpio.h ****   *         @arg @ref LL_GPIO_PIN_9
 656:Drivers/STM32F0xx_HAL_Driver/Inc/stm32f0xx_ll_gpio.h ****   *         @arg @ref LL_GPIO_PIN_10
 657:Drivers/STM32F0xx_HAL_Driver/Inc/stm32f0xx_ll_gpio.h ****   *         @arg @ref LL_GPIO_PIN_11
 658:Drivers/STM32F0xx_HAL_Driver/Inc/stm32f0xx_ll_gpio.h ****   *         @arg @ref LL_GPIO_PIN_12
 659:Drivers/STM32F0xx_HAL_Driver/Inc/stm32f0xx_ll_gpio.h ****   *         @arg @ref LL_GPIO_PIN_13
 660:Drivers/STM32F0xx_HAL_Driver/Inc/stm32f0xx_ll_gpio.h ****   *         @arg @ref LL_GPIO_PIN_14
 661:Drivers/STM32F0xx_HAL_Driver/Inc/stm32f0xx_ll_gpio.h ****   *         @arg @ref LL_GPIO_PIN_15
 662:Drivers/STM32F0xx_HAL_Driver/Inc/stm32f0xx_ll_gpio.h ****   *         @arg @ref LL_GPIO_PIN_ALL
 663:Drivers/STM32F0xx_HAL_Driver/Inc/stm32f0xx_ll_gpio.h ****   * @retval None
 664:Drivers/STM32F0xx_HAL_Driver/Inc/stm32f0xx_ll_gpio.h ****   */
 665:Drivers/STM32F0xx_HAL_Driver/Inc/stm32f0xx_ll_gpio.h **** __STATIC_INLINE void LL_GPIO_LockPin(GPIO_TypeDef *GPIOx, uint32_t PinMask)
 666:Drivers/STM32F0xx_HAL_Driver/Inc/stm32f0xx_ll_gpio.h **** {
 667:Drivers/STM32F0xx_HAL_Driver/Inc/stm32f0xx_ll_gpio.h ****   __IO uint32_t temp;
 668:Drivers/STM32F0xx_HAL_Driver/Inc/stm32f0xx_ll_gpio.h ****   WRITE_REG(GPIOx->LCKR, GPIO_LCKR_LCKK | PinMask);
 669:Drivers/STM32F0xx_HAL_Driver/Inc/stm32f0xx_ll_gpio.h ****   WRITE_REG(GPIOx->LCKR, PinMask);
 670:Drivers/STM32F0xx_HAL_Driver/Inc/stm32f0xx_ll_gpio.h ****   WRITE_REG(GPIOx->LCKR, GPIO_LCKR_LCKK | PinMask);
 671:Drivers/STM32F0xx_HAL_Driver/Inc/stm32f0xx_ll_gpio.h ****   temp = READ_REG(GPIOx->LCKR);
 672:Drivers/STM32F0xx_HAL_Driver/Inc/stm32f0xx_ll_gpio.h ****   (void) temp;
 673:Drivers/STM32F0xx_HAL_Driver/Inc/stm32f0xx_ll_gpio.h **** }
 674:Drivers/STM32F0xx_HAL_Driver/Inc/stm32f0xx_ll_gpio.h **** 
 675:Drivers/STM32F0xx_HAL_Driver/Inc/stm32f0xx_ll_gpio.h **** /**
 676:Drivers/STM32F0xx_HAL_Driver/Inc/stm32f0xx_ll_gpio.h ****   * @brief  Return 1 if all pins passed as parameter, of a dedicated port, are locked. else Return 
 677:Drivers/STM32F0xx_HAL_Driver/Inc/stm32f0xx_ll_gpio.h ****   * @rmtoll LCKR         LCKy          LL_GPIO_IsPinLocked
 678:Drivers/STM32F0xx_HAL_Driver/Inc/stm32f0xx_ll_gpio.h ****   * @param  GPIOx GPIO Port
 679:Drivers/STM32F0xx_HAL_Driver/Inc/stm32f0xx_ll_gpio.h ****   * @param  PinMask This parameter can be a combination of the following values:
 680:Drivers/STM32F0xx_HAL_Driver/Inc/stm32f0xx_ll_gpio.h ****   *         @arg @ref LL_GPIO_PIN_0
 681:Drivers/STM32F0xx_HAL_Driver/Inc/stm32f0xx_ll_gpio.h ****   *         @arg @ref LL_GPIO_PIN_1
 682:Drivers/STM32F0xx_HAL_Driver/Inc/stm32f0xx_ll_gpio.h ****   *         @arg @ref LL_GPIO_PIN_2
 683:Drivers/STM32F0xx_HAL_Driver/Inc/stm32f0xx_ll_gpio.h ****   *         @arg @ref LL_GPIO_PIN_3
 684:Drivers/STM32F0xx_HAL_Driver/Inc/stm32f0xx_ll_gpio.h ****   *         @arg @ref LL_GPIO_PIN_4
 685:Drivers/STM32F0xx_HAL_Driver/Inc/stm32f0xx_ll_gpio.h ****   *         @arg @ref LL_GPIO_PIN_5
 686:Drivers/STM32F0xx_HAL_Driver/Inc/stm32f0xx_ll_gpio.h ****   *         @arg @ref LL_GPIO_PIN_6
 687:Drivers/STM32F0xx_HAL_Driver/Inc/stm32f0xx_ll_gpio.h ****   *         @arg @ref LL_GPIO_PIN_7
 688:Drivers/STM32F0xx_HAL_Driver/Inc/stm32f0xx_ll_gpio.h ****   *         @arg @ref LL_GPIO_PIN_8
 689:Drivers/STM32F0xx_HAL_Driver/Inc/stm32f0xx_ll_gpio.h ****   *         @arg @ref LL_GPIO_PIN_9
 690:Drivers/STM32F0xx_HAL_Driver/Inc/stm32f0xx_ll_gpio.h ****   *         @arg @ref LL_GPIO_PIN_10
 691:Drivers/STM32F0xx_HAL_Driver/Inc/stm32f0xx_ll_gpio.h ****   *         @arg @ref LL_GPIO_PIN_11
 692:Drivers/STM32F0xx_HAL_Driver/Inc/stm32f0xx_ll_gpio.h ****   *         @arg @ref LL_GPIO_PIN_12
 693:Drivers/STM32F0xx_HAL_Driver/Inc/stm32f0xx_ll_gpio.h ****   *         @arg @ref LL_GPIO_PIN_13
 694:Drivers/STM32F0xx_HAL_Driver/Inc/stm32f0xx_ll_gpio.h ****   *         @arg @ref LL_GPIO_PIN_14
 695:Drivers/STM32F0xx_HAL_Driver/Inc/stm32f0xx_ll_gpio.h ****   *         @arg @ref LL_GPIO_PIN_15
 696:Drivers/STM32F0xx_HAL_Driver/Inc/stm32f0xx_ll_gpio.h ****   *         @arg @ref LL_GPIO_PIN_ALL
 697:Drivers/STM32F0xx_HAL_Driver/Inc/stm32f0xx_ll_gpio.h ****   * @retval State of bit (1 or 0).
 698:Drivers/STM32F0xx_HAL_Driver/Inc/stm32f0xx_ll_gpio.h ****   */
 699:Drivers/STM32F0xx_HAL_Driver/Inc/stm32f0xx_ll_gpio.h **** __STATIC_INLINE uint32_t LL_GPIO_IsPinLocked(GPIO_TypeDef *GPIOx, uint32_t PinMask)
 700:Drivers/STM32F0xx_HAL_Driver/Inc/stm32f0xx_ll_gpio.h **** {
 701:Drivers/STM32F0xx_HAL_Driver/Inc/stm32f0xx_ll_gpio.h ****   return (READ_BIT(GPIOx->LCKR, PinMask) == (PinMask));
 702:Drivers/STM32F0xx_HAL_Driver/Inc/stm32f0xx_ll_gpio.h **** }
 703:Drivers/STM32F0xx_HAL_Driver/Inc/stm32f0xx_ll_gpio.h **** 
 704:Drivers/STM32F0xx_HAL_Driver/Inc/stm32f0xx_ll_gpio.h **** /**
 705:Drivers/STM32F0xx_HAL_Driver/Inc/stm32f0xx_ll_gpio.h ****   * @brief  Return 1 if one of the pin of a dedicated port is locked. else return 0.
 706:Drivers/STM32F0xx_HAL_Driver/Inc/stm32f0xx_ll_gpio.h ****   * @rmtoll LCKR         LCKK          LL_GPIO_IsAnyPinLocked
 707:Drivers/STM32F0xx_HAL_Driver/Inc/stm32f0xx_ll_gpio.h ****   * @param  GPIOx GPIO Port
 708:Drivers/STM32F0xx_HAL_Driver/Inc/stm32f0xx_ll_gpio.h ****   * @retval State of bit (1 or 0).
 709:Drivers/STM32F0xx_HAL_Driver/Inc/stm32f0xx_ll_gpio.h ****   */
 710:Drivers/STM32F0xx_HAL_Driver/Inc/stm32f0xx_ll_gpio.h **** __STATIC_INLINE uint32_t LL_GPIO_IsAnyPinLocked(GPIO_TypeDef *GPIOx)
 711:Drivers/STM32F0xx_HAL_Driver/Inc/stm32f0xx_ll_gpio.h **** {
ARM GAS  /tmp/ccl1p6uj.s 			page 53


 712:Drivers/STM32F0xx_HAL_Driver/Inc/stm32f0xx_ll_gpio.h ****   return (READ_BIT(GPIOx->LCKR, GPIO_LCKR_LCKK) == (GPIO_LCKR_LCKK));
 713:Drivers/STM32F0xx_HAL_Driver/Inc/stm32f0xx_ll_gpio.h **** }
 714:Drivers/STM32F0xx_HAL_Driver/Inc/stm32f0xx_ll_gpio.h **** 
 715:Drivers/STM32F0xx_HAL_Driver/Inc/stm32f0xx_ll_gpio.h **** /**
 716:Drivers/STM32F0xx_HAL_Driver/Inc/stm32f0xx_ll_gpio.h ****   * @}
 717:Drivers/STM32F0xx_HAL_Driver/Inc/stm32f0xx_ll_gpio.h ****   */
 718:Drivers/STM32F0xx_HAL_Driver/Inc/stm32f0xx_ll_gpio.h **** 
 719:Drivers/STM32F0xx_HAL_Driver/Inc/stm32f0xx_ll_gpio.h **** /** @defgroup GPIO_LL_EF_Data_Access Data Access
 720:Drivers/STM32F0xx_HAL_Driver/Inc/stm32f0xx_ll_gpio.h ****   * @{
 721:Drivers/STM32F0xx_HAL_Driver/Inc/stm32f0xx_ll_gpio.h ****   */
 722:Drivers/STM32F0xx_HAL_Driver/Inc/stm32f0xx_ll_gpio.h **** 
 723:Drivers/STM32F0xx_HAL_Driver/Inc/stm32f0xx_ll_gpio.h **** /**
 724:Drivers/STM32F0xx_HAL_Driver/Inc/stm32f0xx_ll_gpio.h ****   * @brief  Return full input data register value for a dedicated port.
 725:Drivers/STM32F0xx_HAL_Driver/Inc/stm32f0xx_ll_gpio.h ****   * @rmtoll IDR          IDy           LL_GPIO_ReadInputPort
 726:Drivers/STM32F0xx_HAL_Driver/Inc/stm32f0xx_ll_gpio.h ****   * @param  GPIOx GPIO Port
 727:Drivers/STM32F0xx_HAL_Driver/Inc/stm32f0xx_ll_gpio.h ****   * @retval Input data register value of port
 728:Drivers/STM32F0xx_HAL_Driver/Inc/stm32f0xx_ll_gpio.h ****   */
 729:Drivers/STM32F0xx_HAL_Driver/Inc/stm32f0xx_ll_gpio.h **** __STATIC_INLINE uint32_t LL_GPIO_ReadInputPort(GPIO_TypeDef *GPIOx)
 730:Drivers/STM32F0xx_HAL_Driver/Inc/stm32f0xx_ll_gpio.h **** {
 731:Drivers/STM32F0xx_HAL_Driver/Inc/stm32f0xx_ll_gpio.h ****   return (uint32_t)(READ_REG(GPIOx->IDR));
 732:Drivers/STM32F0xx_HAL_Driver/Inc/stm32f0xx_ll_gpio.h **** }
 733:Drivers/STM32F0xx_HAL_Driver/Inc/stm32f0xx_ll_gpio.h **** 
 734:Drivers/STM32F0xx_HAL_Driver/Inc/stm32f0xx_ll_gpio.h **** /**
 735:Drivers/STM32F0xx_HAL_Driver/Inc/stm32f0xx_ll_gpio.h ****   * @brief  Return if input data level for several pins of dedicated port is high or low.
 736:Drivers/STM32F0xx_HAL_Driver/Inc/stm32f0xx_ll_gpio.h ****   * @rmtoll IDR          IDy           LL_GPIO_IsInputPinSet
 737:Drivers/STM32F0xx_HAL_Driver/Inc/stm32f0xx_ll_gpio.h ****   * @param  GPIOx GPIO Port
 738:Drivers/STM32F0xx_HAL_Driver/Inc/stm32f0xx_ll_gpio.h ****   * @param  PinMask This parameter can be a combination of the following values:
 739:Drivers/STM32F0xx_HAL_Driver/Inc/stm32f0xx_ll_gpio.h ****   *         @arg @ref LL_GPIO_PIN_0
 740:Drivers/STM32F0xx_HAL_Driver/Inc/stm32f0xx_ll_gpio.h ****   *         @arg @ref LL_GPIO_PIN_1
 741:Drivers/STM32F0xx_HAL_Driver/Inc/stm32f0xx_ll_gpio.h ****   *         @arg @ref LL_GPIO_PIN_2
 742:Drivers/STM32F0xx_HAL_Driver/Inc/stm32f0xx_ll_gpio.h ****   *         @arg @ref LL_GPIO_PIN_3
 743:Drivers/STM32F0xx_HAL_Driver/Inc/stm32f0xx_ll_gpio.h ****   *         @arg @ref LL_GPIO_PIN_4
 744:Drivers/STM32F0xx_HAL_Driver/Inc/stm32f0xx_ll_gpio.h ****   *         @arg @ref LL_GPIO_PIN_5
 745:Drivers/STM32F0xx_HAL_Driver/Inc/stm32f0xx_ll_gpio.h ****   *         @arg @ref LL_GPIO_PIN_6
 746:Drivers/STM32F0xx_HAL_Driver/Inc/stm32f0xx_ll_gpio.h ****   *         @arg @ref LL_GPIO_PIN_7
 747:Drivers/STM32F0xx_HAL_Driver/Inc/stm32f0xx_ll_gpio.h ****   *         @arg @ref LL_GPIO_PIN_8
 748:Drivers/STM32F0xx_HAL_Driver/Inc/stm32f0xx_ll_gpio.h ****   *         @arg @ref LL_GPIO_PIN_9
 749:Drivers/STM32F0xx_HAL_Driver/Inc/stm32f0xx_ll_gpio.h ****   *         @arg @ref LL_GPIO_PIN_10
 750:Drivers/STM32F0xx_HAL_Driver/Inc/stm32f0xx_ll_gpio.h ****   *         @arg @ref LL_GPIO_PIN_11
 751:Drivers/STM32F0xx_HAL_Driver/Inc/stm32f0xx_ll_gpio.h ****   *         @arg @ref LL_GPIO_PIN_12
 752:Drivers/STM32F0xx_HAL_Driver/Inc/stm32f0xx_ll_gpio.h ****   *         @arg @ref LL_GPIO_PIN_13
 753:Drivers/STM32F0xx_HAL_Driver/Inc/stm32f0xx_ll_gpio.h ****   *         @arg @ref LL_GPIO_PIN_14
 754:Drivers/STM32F0xx_HAL_Driver/Inc/stm32f0xx_ll_gpio.h ****   *         @arg @ref LL_GPIO_PIN_15
 755:Drivers/STM32F0xx_HAL_Driver/Inc/stm32f0xx_ll_gpio.h ****   *         @arg @ref LL_GPIO_PIN_ALL
 756:Drivers/STM32F0xx_HAL_Driver/Inc/stm32f0xx_ll_gpio.h ****   * @retval State of bit (1 or 0).
 757:Drivers/STM32F0xx_HAL_Driver/Inc/stm32f0xx_ll_gpio.h ****   */
 758:Drivers/STM32F0xx_HAL_Driver/Inc/stm32f0xx_ll_gpio.h **** __STATIC_INLINE uint32_t LL_GPIO_IsInputPinSet(GPIO_TypeDef *GPIOx, uint32_t PinMask)
 759:Drivers/STM32F0xx_HAL_Driver/Inc/stm32f0xx_ll_gpio.h **** {
 760:Drivers/STM32F0xx_HAL_Driver/Inc/stm32f0xx_ll_gpio.h ****   return (READ_BIT(GPIOx->IDR, PinMask) == (PinMask));
 761:Drivers/STM32F0xx_HAL_Driver/Inc/stm32f0xx_ll_gpio.h **** }
 762:Drivers/STM32F0xx_HAL_Driver/Inc/stm32f0xx_ll_gpio.h **** 
 763:Drivers/STM32F0xx_HAL_Driver/Inc/stm32f0xx_ll_gpio.h **** /**
 764:Drivers/STM32F0xx_HAL_Driver/Inc/stm32f0xx_ll_gpio.h ****   * @brief  Write output data register for the port.
 765:Drivers/STM32F0xx_HAL_Driver/Inc/stm32f0xx_ll_gpio.h ****   * @rmtoll ODR          ODy           LL_GPIO_WriteOutputPort
 766:Drivers/STM32F0xx_HAL_Driver/Inc/stm32f0xx_ll_gpio.h ****   * @param  GPIOx GPIO Port
 767:Drivers/STM32F0xx_HAL_Driver/Inc/stm32f0xx_ll_gpio.h ****   * @param  PortValue Level value for each pin of the port
 768:Drivers/STM32F0xx_HAL_Driver/Inc/stm32f0xx_ll_gpio.h ****   * @retval None
ARM GAS  /tmp/ccl1p6uj.s 			page 54


 769:Drivers/STM32F0xx_HAL_Driver/Inc/stm32f0xx_ll_gpio.h ****   */
 770:Drivers/STM32F0xx_HAL_Driver/Inc/stm32f0xx_ll_gpio.h **** __STATIC_INLINE void LL_GPIO_WriteOutputPort(GPIO_TypeDef *GPIOx, uint32_t PortValue)
 771:Drivers/STM32F0xx_HAL_Driver/Inc/stm32f0xx_ll_gpio.h **** {
 772:Drivers/STM32F0xx_HAL_Driver/Inc/stm32f0xx_ll_gpio.h ****   WRITE_REG(GPIOx->ODR, PortValue);
 773:Drivers/STM32F0xx_HAL_Driver/Inc/stm32f0xx_ll_gpio.h **** }
 774:Drivers/STM32F0xx_HAL_Driver/Inc/stm32f0xx_ll_gpio.h **** 
 775:Drivers/STM32F0xx_HAL_Driver/Inc/stm32f0xx_ll_gpio.h **** /**
 776:Drivers/STM32F0xx_HAL_Driver/Inc/stm32f0xx_ll_gpio.h ****   * @brief  Return full output data register value for a dedicated port.
 777:Drivers/STM32F0xx_HAL_Driver/Inc/stm32f0xx_ll_gpio.h ****   * @rmtoll ODR          ODy           LL_GPIO_ReadOutputPort
 778:Drivers/STM32F0xx_HAL_Driver/Inc/stm32f0xx_ll_gpio.h ****   * @param  GPIOx GPIO Port
 779:Drivers/STM32F0xx_HAL_Driver/Inc/stm32f0xx_ll_gpio.h ****   * @retval Output data register value of port
 780:Drivers/STM32F0xx_HAL_Driver/Inc/stm32f0xx_ll_gpio.h ****   */
 781:Drivers/STM32F0xx_HAL_Driver/Inc/stm32f0xx_ll_gpio.h **** __STATIC_INLINE uint32_t LL_GPIO_ReadOutputPort(GPIO_TypeDef *GPIOx)
 782:Drivers/STM32F0xx_HAL_Driver/Inc/stm32f0xx_ll_gpio.h **** {
 783:Drivers/STM32F0xx_HAL_Driver/Inc/stm32f0xx_ll_gpio.h ****   return (uint32_t)(READ_REG(GPIOx->ODR));
 784:Drivers/STM32F0xx_HAL_Driver/Inc/stm32f0xx_ll_gpio.h **** }
 785:Drivers/STM32F0xx_HAL_Driver/Inc/stm32f0xx_ll_gpio.h **** 
 786:Drivers/STM32F0xx_HAL_Driver/Inc/stm32f0xx_ll_gpio.h **** /**
 787:Drivers/STM32F0xx_HAL_Driver/Inc/stm32f0xx_ll_gpio.h ****   * @brief  Return if input data level for several pins of dedicated port is high or low.
 788:Drivers/STM32F0xx_HAL_Driver/Inc/stm32f0xx_ll_gpio.h ****   * @rmtoll ODR          ODy           LL_GPIO_IsOutputPinSet
 789:Drivers/STM32F0xx_HAL_Driver/Inc/stm32f0xx_ll_gpio.h ****   * @param  GPIOx GPIO Port
 790:Drivers/STM32F0xx_HAL_Driver/Inc/stm32f0xx_ll_gpio.h ****   * @param  PinMask This parameter can be a combination of the following values:
 791:Drivers/STM32F0xx_HAL_Driver/Inc/stm32f0xx_ll_gpio.h ****   *         @arg @ref LL_GPIO_PIN_0
 792:Drivers/STM32F0xx_HAL_Driver/Inc/stm32f0xx_ll_gpio.h ****   *         @arg @ref LL_GPIO_PIN_1
 793:Drivers/STM32F0xx_HAL_Driver/Inc/stm32f0xx_ll_gpio.h ****   *         @arg @ref LL_GPIO_PIN_2
 794:Drivers/STM32F0xx_HAL_Driver/Inc/stm32f0xx_ll_gpio.h ****   *         @arg @ref LL_GPIO_PIN_3
 795:Drivers/STM32F0xx_HAL_Driver/Inc/stm32f0xx_ll_gpio.h ****   *         @arg @ref LL_GPIO_PIN_4
 796:Drivers/STM32F0xx_HAL_Driver/Inc/stm32f0xx_ll_gpio.h ****   *         @arg @ref LL_GPIO_PIN_5
 797:Drivers/STM32F0xx_HAL_Driver/Inc/stm32f0xx_ll_gpio.h ****   *         @arg @ref LL_GPIO_PIN_6
 798:Drivers/STM32F0xx_HAL_Driver/Inc/stm32f0xx_ll_gpio.h ****   *         @arg @ref LL_GPIO_PIN_7
 799:Drivers/STM32F0xx_HAL_Driver/Inc/stm32f0xx_ll_gpio.h ****   *         @arg @ref LL_GPIO_PIN_8
 800:Drivers/STM32F0xx_HAL_Driver/Inc/stm32f0xx_ll_gpio.h ****   *         @arg @ref LL_GPIO_PIN_9
 801:Drivers/STM32F0xx_HAL_Driver/Inc/stm32f0xx_ll_gpio.h ****   *         @arg @ref LL_GPIO_PIN_10
 802:Drivers/STM32F0xx_HAL_Driver/Inc/stm32f0xx_ll_gpio.h ****   *         @arg @ref LL_GPIO_PIN_11
 803:Drivers/STM32F0xx_HAL_Driver/Inc/stm32f0xx_ll_gpio.h ****   *         @arg @ref LL_GPIO_PIN_12
 804:Drivers/STM32F0xx_HAL_Driver/Inc/stm32f0xx_ll_gpio.h ****   *         @arg @ref LL_GPIO_PIN_13
 805:Drivers/STM32F0xx_HAL_Driver/Inc/stm32f0xx_ll_gpio.h ****   *         @arg @ref LL_GPIO_PIN_14
 806:Drivers/STM32F0xx_HAL_Driver/Inc/stm32f0xx_ll_gpio.h ****   *         @arg @ref LL_GPIO_PIN_15
 807:Drivers/STM32F0xx_HAL_Driver/Inc/stm32f0xx_ll_gpio.h ****   *         @arg @ref LL_GPIO_PIN_ALL
 808:Drivers/STM32F0xx_HAL_Driver/Inc/stm32f0xx_ll_gpio.h ****   * @retval State of bit (1 or 0).
 809:Drivers/STM32F0xx_HAL_Driver/Inc/stm32f0xx_ll_gpio.h ****   */
 810:Drivers/STM32F0xx_HAL_Driver/Inc/stm32f0xx_ll_gpio.h **** __STATIC_INLINE uint32_t LL_GPIO_IsOutputPinSet(GPIO_TypeDef *GPIOx, uint32_t PinMask)
 811:Drivers/STM32F0xx_HAL_Driver/Inc/stm32f0xx_ll_gpio.h **** {
 812:Drivers/STM32F0xx_HAL_Driver/Inc/stm32f0xx_ll_gpio.h ****   return (READ_BIT(GPIOx->ODR, PinMask) == (PinMask));
 813:Drivers/STM32F0xx_HAL_Driver/Inc/stm32f0xx_ll_gpio.h **** }
 814:Drivers/STM32F0xx_HAL_Driver/Inc/stm32f0xx_ll_gpio.h **** 
 815:Drivers/STM32F0xx_HAL_Driver/Inc/stm32f0xx_ll_gpio.h **** /**
 816:Drivers/STM32F0xx_HAL_Driver/Inc/stm32f0xx_ll_gpio.h ****   * @brief  Set several pins to high level on dedicated gpio port.
 817:Drivers/STM32F0xx_HAL_Driver/Inc/stm32f0xx_ll_gpio.h ****   * @rmtoll BSRR         BSy           LL_GPIO_SetOutputPin
 818:Drivers/STM32F0xx_HAL_Driver/Inc/stm32f0xx_ll_gpio.h ****   * @param  GPIOx GPIO Port
 819:Drivers/STM32F0xx_HAL_Driver/Inc/stm32f0xx_ll_gpio.h ****   * @param  PinMask This parameter can be a combination of the following values:
 820:Drivers/STM32F0xx_HAL_Driver/Inc/stm32f0xx_ll_gpio.h ****   *         @arg @ref LL_GPIO_PIN_0
 821:Drivers/STM32F0xx_HAL_Driver/Inc/stm32f0xx_ll_gpio.h ****   *         @arg @ref LL_GPIO_PIN_1
 822:Drivers/STM32F0xx_HAL_Driver/Inc/stm32f0xx_ll_gpio.h ****   *         @arg @ref LL_GPIO_PIN_2
 823:Drivers/STM32F0xx_HAL_Driver/Inc/stm32f0xx_ll_gpio.h ****   *         @arg @ref LL_GPIO_PIN_3
 824:Drivers/STM32F0xx_HAL_Driver/Inc/stm32f0xx_ll_gpio.h ****   *         @arg @ref LL_GPIO_PIN_4
 825:Drivers/STM32F0xx_HAL_Driver/Inc/stm32f0xx_ll_gpio.h ****   *         @arg @ref LL_GPIO_PIN_5
ARM GAS  /tmp/ccl1p6uj.s 			page 55


 826:Drivers/STM32F0xx_HAL_Driver/Inc/stm32f0xx_ll_gpio.h ****   *         @arg @ref LL_GPIO_PIN_6
 827:Drivers/STM32F0xx_HAL_Driver/Inc/stm32f0xx_ll_gpio.h ****   *         @arg @ref LL_GPIO_PIN_7
 828:Drivers/STM32F0xx_HAL_Driver/Inc/stm32f0xx_ll_gpio.h ****   *         @arg @ref LL_GPIO_PIN_8
 829:Drivers/STM32F0xx_HAL_Driver/Inc/stm32f0xx_ll_gpio.h ****   *         @arg @ref LL_GPIO_PIN_9
 830:Drivers/STM32F0xx_HAL_Driver/Inc/stm32f0xx_ll_gpio.h ****   *         @arg @ref LL_GPIO_PIN_10
 831:Drivers/STM32F0xx_HAL_Driver/Inc/stm32f0xx_ll_gpio.h ****   *         @arg @ref LL_GPIO_PIN_11
 832:Drivers/STM32F0xx_HAL_Driver/Inc/stm32f0xx_ll_gpio.h ****   *         @arg @ref LL_GPIO_PIN_12
 833:Drivers/STM32F0xx_HAL_Driver/Inc/stm32f0xx_ll_gpio.h ****   *         @arg @ref LL_GPIO_PIN_13
 834:Drivers/STM32F0xx_HAL_Driver/Inc/stm32f0xx_ll_gpio.h ****   *         @arg @ref LL_GPIO_PIN_14
 835:Drivers/STM32F0xx_HAL_Driver/Inc/stm32f0xx_ll_gpio.h ****   *         @arg @ref LL_GPIO_PIN_15
 836:Drivers/STM32F0xx_HAL_Driver/Inc/stm32f0xx_ll_gpio.h ****   *         @arg @ref LL_GPIO_PIN_ALL
 837:Drivers/STM32F0xx_HAL_Driver/Inc/stm32f0xx_ll_gpio.h ****   * @retval None
 838:Drivers/STM32F0xx_HAL_Driver/Inc/stm32f0xx_ll_gpio.h ****   */
 839:Drivers/STM32F0xx_HAL_Driver/Inc/stm32f0xx_ll_gpio.h **** __STATIC_INLINE void LL_GPIO_SetOutputPin(GPIO_TypeDef *GPIOx, uint32_t PinMask)
 840:Drivers/STM32F0xx_HAL_Driver/Inc/stm32f0xx_ll_gpio.h **** {
 841:Drivers/STM32F0xx_HAL_Driver/Inc/stm32f0xx_ll_gpio.h ****   WRITE_REG(GPIOx->BSRR, PinMask);
 842:Drivers/STM32F0xx_HAL_Driver/Inc/stm32f0xx_ll_gpio.h **** }
 843:Drivers/STM32F0xx_HAL_Driver/Inc/stm32f0xx_ll_gpio.h **** 
 844:Drivers/STM32F0xx_HAL_Driver/Inc/stm32f0xx_ll_gpio.h **** /**
 845:Drivers/STM32F0xx_HAL_Driver/Inc/stm32f0xx_ll_gpio.h ****   * @brief  Set several pins to low level on dedicated gpio port.
 846:Drivers/STM32F0xx_HAL_Driver/Inc/stm32f0xx_ll_gpio.h ****   * @rmtoll BRR          BRy           LL_GPIO_ResetOutputPin
 847:Drivers/STM32F0xx_HAL_Driver/Inc/stm32f0xx_ll_gpio.h ****   * @param  GPIOx GPIO Port
 848:Drivers/STM32F0xx_HAL_Driver/Inc/stm32f0xx_ll_gpio.h ****   * @param  PinMask This parameter can be a combination of the following values:
 849:Drivers/STM32F0xx_HAL_Driver/Inc/stm32f0xx_ll_gpio.h ****   *         @arg @ref LL_GPIO_PIN_0
 850:Drivers/STM32F0xx_HAL_Driver/Inc/stm32f0xx_ll_gpio.h ****   *         @arg @ref LL_GPIO_PIN_1
 851:Drivers/STM32F0xx_HAL_Driver/Inc/stm32f0xx_ll_gpio.h ****   *         @arg @ref LL_GPIO_PIN_2
 852:Drivers/STM32F0xx_HAL_Driver/Inc/stm32f0xx_ll_gpio.h ****   *         @arg @ref LL_GPIO_PIN_3
 853:Drivers/STM32F0xx_HAL_Driver/Inc/stm32f0xx_ll_gpio.h ****   *         @arg @ref LL_GPIO_PIN_4
 854:Drivers/STM32F0xx_HAL_Driver/Inc/stm32f0xx_ll_gpio.h ****   *         @arg @ref LL_GPIO_PIN_5
 855:Drivers/STM32F0xx_HAL_Driver/Inc/stm32f0xx_ll_gpio.h ****   *         @arg @ref LL_GPIO_PIN_6
 856:Drivers/STM32F0xx_HAL_Driver/Inc/stm32f0xx_ll_gpio.h ****   *         @arg @ref LL_GPIO_PIN_7
 857:Drivers/STM32F0xx_HAL_Driver/Inc/stm32f0xx_ll_gpio.h ****   *         @arg @ref LL_GPIO_PIN_8
 858:Drivers/STM32F0xx_HAL_Driver/Inc/stm32f0xx_ll_gpio.h ****   *         @arg @ref LL_GPIO_PIN_9
 859:Drivers/STM32F0xx_HAL_Driver/Inc/stm32f0xx_ll_gpio.h ****   *         @arg @ref LL_GPIO_PIN_10
 860:Drivers/STM32F0xx_HAL_Driver/Inc/stm32f0xx_ll_gpio.h ****   *         @arg @ref LL_GPIO_PIN_11
 861:Drivers/STM32F0xx_HAL_Driver/Inc/stm32f0xx_ll_gpio.h ****   *         @arg @ref LL_GPIO_PIN_12
 862:Drivers/STM32F0xx_HAL_Driver/Inc/stm32f0xx_ll_gpio.h ****   *         @arg @ref LL_GPIO_PIN_13
 863:Drivers/STM32F0xx_HAL_Driver/Inc/stm32f0xx_ll_gpio.h ****   *         @arg @ref LL_GPIO_PIN_14
 864:Drivers/STM32F0xx_HAL_Driver/Inc/stm32f0xx_ll_gpio.h ****   *         @arg @ref LL_GPIO_PIN_15
 865:Drivers/STM32F0xx_HAL_Driver/Inc/stm32f0xx_ll_gpio.h ****   *         @arg @ref LL_GPIO_PIN_ALL
 866:Drivers/STM32F0xx_HAL_Driver/Inc/stm32f0xx_ll_gpio.h ****   * @retval None
 867:Drivers/STM32F0xx_HAL_Driver/Inc/stm32f0xx_ll_gpio.h ****   */
 868:Drivers/STM32F0xx_HAL_Driver/Inc/stm32f0xx_ll_gpio.h **** __STATIC_INLINE void LL_GPIO_ResetOutputPin(GPIO_TypeDef *GPIOx, uint32_t PinMask)
 869:Drivers/STM32F0xx_HAL_Driver/Inc/stm32f0xx_ll_gpio.h **** {
 870:Drivers/STM32F0xx_HAL_Driver/Inc/stm32f0xx_ll_gpio.h ****   WRITE_REG(GPIOx->BRR, PinMask);
 871:Drivers/STM32F0xx_HAL_Driver/Inc/stm32f0xx_ll_gpio.h **** }
 872:Drivers/STM32F0xx_HAL_Driver/Inc/stm32f0xx_ll_gpio.h **** 
 873:Drivers/STM32F0xx_HAL_Driver/Inc/stm32f0xx_ll_gpio.h **** /**
 874:Drivers/STM32F0xx_HAL_Driver/Inc/stm32f0xx_ll_gpio.h ****   * @brief  Toggle data value for several pin of dedicated port.
 875:Drivers/STM32F0xx_HAL_Driver/Inc/stm32f0xx_ll_gpio.h ****   * @rmtoll ODR          ODy           LL_GPIO_TogglePin
 876:Drivers/STM32F0xx_HAL_Driver/Inc/stm32f0xx_ll_gpio.h ****   * @param  GPIOx GPIO Port
 877:Drivers/STM32F0xx_HAL_Driver/Inc/stm32f0xx_ll_gpio.h ****   * @param  PinMask This parameter can be a combination of the following values:
 878:Drivers/STM32F0xx_HAL_Driver/Inc/stm32f0xx_ll_gpio.h ****   *         @arg @ref LL_GPIO_PIN_0
 879:Drivers/STM32F0xx_HAL_Driver/Inc/stm32f0xx_ll_gpio.h ****   *         @arg @ref LL_GPIO_PIN_1
 880:Drivers/STM32F0xx_HAL_Driver/Inc/stm32f0xx_ll_gpio.h ****   *         @arg @ref LL_GPIO_PIN_2
 881:Drivers/STM32F0xx_HAL_Driver/Inc/stm32f0xx_ll_gpio.h ****   *         @arg @ref LL_GPIO_PIN_3
 882:Drivers/STM32F0xx_HAL_Driver/Inc/stm32f0xx_ll_gpio.h ****   *         @arg @ref LL_GPIO_PIN_4
ARM GAS  /tmp/ccl1p6uj.s 			page 56


 883:Drivers/STM32F0xx_HAL_Driver/Inc/stm32f0xx_ll_gpio.h ****   *         @arg @ref LL_GPIO_PIN_5
 884:Drivers/STM32F0xx_HAL_Driver/Inc/stm32f0xx_ll_gpio.h ****   *         @arg @ref LL_GPIO_PIN_6
 885:Drivers/STM32F0xx_HAL_Driver/Inc/stm32f0xx_ll_gpio.h ****   *         @arg @ref LL_GPIO_PIN_7
 886:Drivers/STM32F0xx_HAL_Driver/Inc/stm32f0xx_ll_gpio.h ****   *         @arg @ref LL_GPIO_PIN_8
 887:Drivers/STM32F0xx_HAL_Driver/Inc/stm32f0xx_ll_gpio.h ****   *         @arg @ref LL_GPIO_PIN_9
 888:Drivers/STM32F0xx_HAL_Driver/Inc/stm32f0xx_ll_gpio.h ****   *         @arg @ref LL_GPIO_PIN_10
 889:Drivers/STM32F0xx_HAL_Driver/Inc/stm32f0xx_ll_gpio.h ****   *         @arg @ref LL_GPIO_PIN_11
 890:Drivers/STM32F0xx_HAL_Driver/Inc/stm32f0xx_ll_gpio.h ****   *         @arg @ref LL_GPIO_PIN_12
 891:Drivers/STM32F0xx_HAL_Driver/Inc/stm32f0xx_ll_gpio.h ****   *         @arg @ref LL_GPIO_PIN_13
 892:Drivers/STM32F0xx_HAL_Driver/Inc/stm32f0xx_ll_gpio.h ****   *         @arg @ref LL_GPIO_PIN_14
 893:Drivers/STM32F0xx_HAL_Driver/Inc/stm32f0xx_ll_gpio.h ****   *         @arg @ref LL_GPIO_PIN_15
 894:Drivers/STM32F0xx_HAL_Driver/Inc/stm32f0xx_ll_gpio.h ****   *         @arg @ref LL_GPIO_PIN_ALL
 895:Drivers/STM32F0xx_HAL_Driver/Inc/stm32f0xx_ll_gpio.h ****   * @retval None
 896:Drivers/STM32F0xx_HAL_Driver/Inc/stm32f0xx_ll_gpio.h ****   */
 897:Drivers/STM32F0xx_HAL_Driver/Inc/stm32f0xx_ll_gpio.h **** __STATIC_INLINE void LL_GPIO_TogglePin(GPIO_TypeDef *GPIOx, uint32_t PinMask)
 904              		.loc 3 897 22 view .LVU274
 905              	.LBB35:
 898:Drivers/STM32F0xx_HAL_Driver/Inc/stm32f0xx_ll_gpio.h **** {
 899:Drivers/STM32F0xx_HAL_Driver/Inc/stm32f0xx_ll_gpio.h ****   uint32_t odr = READ_REG(GPIOx->ODR);
 906              		.loc 3 899 3 view .LVU275
 907              		.loc 3 899 12 is_stmt 0 view .LVU276
 908 001c 1849     		ldr	r1, .L50
 909 001e 4869     		ldr	r0, [r1, #20]
 910              	.LVL55:
 900:Drivers/STM32F0xx_HAL_Driver/Inc/stm32f0xx_ll_gpio.h ****   WRITE_REG(GPIOx->BSRR, ((odr & PinMask) << 16u) | (~odr & PinMask));
 911              		.loc 3 900 3 is_stmt 1 view .LVU277
 912 0020 0304     		lsls	r3, r0, #16
 913 0022 8022     		movs	r2, #128
 914 0024 9204     		lsls	r2, r2, #18
 915 0026 1340     		ands	r3, r2
 916 0028 8022     		movs	r2, #128
 917 002a 9200     		lsls	r2, r2, #2
 918 002c 8243     		bics	r2, r0
 919 002e 1343     		orrs	r3, r2
 920 0030 8B61     		str	r3, [r1, #24]
 921              	.LVL56:
 922              		.loc 3 900 3 is_stmt 0 view .LVU278
 923              	.LBE35:
 924              	.LBE34:
 124:Core/Src/main.c ****   //LL_GPIO_TogglePin(GPIOC, LL_GPIO_PIN_9);
 925              		.loc 1 124 3 is_stmt 1 view .LVU279
 926 0032 144C     		ldr	r4, .L50+4
 927 0034 2100     		movs	r1, r4
 928 0036 1031     		adds	r1, r1, #16
 929 0038 3C22     		movs	r2, #60
 930 003a 6846     		mov	r0, sp
 931 003c FFF7FEFF 		bl	memcpy
 932              	.LVL57:
 933 0040 2068     		ldr	r0, [r4]
 934 0042 6168     		ldr	r1, [r4, #4]
 935 0044 A268     		ldr	r2, [r4, #8]
 936 0046 E368     		ldr	r3, [r4, #12]
 937 0048 FFF7FEFF 		bl	giro_config
 938              	.LVL58:
 127:Core/Src/main.c ****   htim2.Instance->CCR1 = 10;
 939              		.loc 1 127 3 view .LVU280
 127:Core/Src/main.c ****   htim2.Instance->CCR1 = 10;
ARM GAS  /tmp/ccl1p6uj.s 			page 57


 940              		.loc 1 127 8 is_stmt 0 view .LVU281
 941 004c 0E48     		ldr	r0, .L50+8
 942 004e 0368     		ldr	r3, [r0]
 127:Core/Src/main.c ****   htim2.Instance->CCR1 = 10;
 943              		.loc 1 127 24 view .LVU282
 944 0050 0022     		movs	r2, #0
 945 0052 1A64     		str	r2, [r3, #64]
 128:Core/Src/main.c ****   htim2.Instance->CCR2 = 10;
 946              		.loc 1 128 3 is_stmt 1 view .LVU283
 128:Core/Src/main.c ****   htim2.Instance->CCR2 = 10;
 947              		.loc 1 128 8 is_stmt 0 view .LVU284
 948 0054 0D4C     		ldr	r4, .L50+12
 949 0056 2368     		ldr	r3, [r4]
 128:Core/Src/main.c ****   htim2.Instance->CCR2 = 10;
 950              		.loc 1 128 24 view .LVU285
 951 0058 0A32     		adds	r2, r2, #10
 952 005a 5A63     		str	r2, [r3, #52]
 129:Core/Src/main.c ****   htim2.Instance->CCR3 = 10;
 953              		.loc 1 129 3 is_stmt 1 view .LVU286
 129:Core/Src/main.c ****   htim2.Instance->CCR3 = 10;
 954              		.loc 1 129 24 is_stmt 0 view .LVU287
 955 005c 9A63     		str	r2, [r3, #56]
 130:Core/Src/main.c **** 
 956              		.loc 1 130 3 is_stmt 1 view .LVU288
 130:Core/Src/main.c **** 
 957              		.loc 1 130 24 is_stmt 0 view .LVU289
 958 005e DA63     		str	r2, [r3, #60]
 132:Core/Src/main.c ****   HAL_TIM_PWM_Start (&htim2, TIM_CHANNEL_1);
 959              		.loc 1 132 3 is_stmt 1 view .LVU290
 960 0060 0C21     		movs	r1, #12
 961 0062 FFF7FEFF 		bl	HAL_TIM_PWM_Start
 962              	.LVL59:
 133:Core/Src/main.c ****   HAL_TIM_PWM_Start (&htim2, TIM_CHANNEL_2);
 963              		.loc 1 133 3 view .LVU291
 964 0066 0021     		movs	r1, #0
 965 0068 2000     		movs	r0, r4
 966 006a FFF7FEFF 		bl	HAL_TIM_PWM_Start
 967              	.LVL60:
 134:Core/Src/main.c ****   HAL_TIM_PWM_Start (&htim2, TIM_CHANNEL_3);
 968              		.loc 1 134 3 view .LVU292
 969 006e 0421     		movs	r1, #4
 970 0070 2000     		movs	r0, r4
 971 0072 FFF7FEFF 		bl	HAL_TIM_PWM_Start
 972              	.LVL61:
 135:Core/Src/main.c ****   /* USER CODE END 2 */
 973              		.loc 1 135 3 view .LVU293
 974 0076 0821     		movs	r1, #8
 975 0078 2000     		movs	r0, r4
 976 007a FFF7FEFF 		bl	HAL_TIM_PWM_Start
 977              	.LVL62:
 978              	.L49:
 143:Core/Src/main.c ****   {
 979              		.loc 1 143 3 discriminator 1 view .LVU294
 148:Core/Src/main.c ****   /* USER CODE END 3 */
 980              		.loc 1 148 3 discriminator 1 view .LVU295
 143:Core/Src/main.c ****   {
 981              		.loc 1 143 9 discriminator 1 view .LVU296
ARM GAS  /tmp/ccl1p6uj.s 			page 58


 982 007e FEE7     		b	.L49
 983              	.L51:
 984              		.align	2
 985              	.L50:
 986 0080 00080048 		.word	1207961600
 987 0084 00000000 		.word	.LANCHOR0
 988 0088 00000000 		.word	.LANCHOR1
 989 008c 00000000 		.word	.LANCHOR2
 990              		.cfi_endproc
 991              	.LFE247:
 993              		.global	number
 994              		.global	button_delay_counter
 995              		.global	sis_tik_frik
 996              		.global	button_status
 997              		.global	htim2
 998              		.global	htim1
 999              		.global	hi2c1
 1000              		.section	.bss.button_delay_counter,"aw",%nobits
 1001              		.align	3
 1004              	button_delay_counter:
 1005 0000 00000000 		.space	8
 1005      00000000 
 1006              		.section	.bss.button_status,"aw",%nobits
 1009              	button_status:
 1010 0000 00       		.space	1
 1011              		.section	.bss.hi2c1,"aw",%nobits
 1012              		.align	2
 1013              		.set	.LANCHOR0,. + 0
 1016              	hi2c1:
 1017 0000 00000000 		.space	76
 1017      00000000 
 1017      00000000 
 1017      00000000 
 1017      00000000 
 1018              		.section	.bss.htim1,"aw",%nobits
 1019              		.align	2
 1020              		.set	.LANCHOR1,. + 0
 1023              	htim1:
 1024 0000 00000000 		.space	72
 1024      00000000 
 1024      00000000 
 1024      00000000 
 1024      00000000 
 1025              		.section	.bss.htim2,"aw",%nobits
 1026              		.align	2
 1027              		.set	.LANCHOR2,. + 0
 1030              	htim2:
 1031 0000 00000000 		.space	72
 1031      00000000 
 1031      00000000 
 1031      00000000 
 1031      00000000 
 1032              		.section	.bss.number,"aw",%nobits
 1033              		.align	1
 1036              	number:
 1037 0000 0000     		.space	2
 1038              		.section	.rodata.sis_tik_frik,"a"
ARM GAS  /tmp/ccl1p6uj.s 			page 59


 1039              		.align	3
 1042              	sis_tik_frik:
 1043 0000 E8030000 		.word	1000
 1044 0004 00000000 		.word	0
 1045              		.text
 1046              	.Letext0:
 1047              		.file 7 "/usr/share/gcc-arm-none-eabi-10.3-2021.10/arm-none-eabi/include/machine/_default_types.h"
 1048              		.file 8 "/usr/share/gcc-arm-none-eabi-10.3-2021.10/arm-none-eabi/include/sys/_stdint.h"
 1049              		.file 9 "Drivers/CMSIS/Include/core_cm0.h"
 1050              		.file 10 "Drivers/CMSIS/Device/ST/STM32F0xx/Include/stm32f051x8.h"
 1051              		.file 11 "Drivers/STM32F0xx_HAL_Driver/Inc/stm32f0xx_hal_def.h"
 1052              		.file 12 "Drivers/STM32F0xx_HAL_Driver/Inc/stm32f0xx_hal_rcc.h"
 1053              		.file 13 "Drivers/STM32F0xx_HAL_Driver/Inc/stm32f0xx_hal_rcc_ex.h"
 1054              		.file 14 "Drivers/STM32F0xx_HAL_Driver/Inc/stm32f0xx_hal_gpio.h"
 1055              		.file 15 "Drivers/STM32F0xx_HAL_Driver/Inc/stm32f0xx_hal_dma.h"
 1056              		.file 16 "Drivers/STM32F0xx_HAL_Driver/Inc/stm32f0xx_hal_i2c.h"
 1057              		.file 17 "Drivers/STM32F0xx_HAL_Driver/Inc/stm32f0xx_hal_tim.h"
 1058              		.file 18 "Drivers/STM32F0xx_HAL_Driver/Inc/stm32f0xx_hal_cortex.h"
 1059              		.file 19 "Drivers/STM32F0xx_HAL_Driver/Inc/stm32f0xx_hal_tim_ex.h"
 1060              		.file 20 "Core/Inc/main.h"
 1061              		.file 21 "Drivers/STM32F0xx_HAL_Driver/Inc/stm32f0xx_hal_i2c_ex.h"
 1062              		.file 22 "Drivers/STM32F0xx_HAL_Driver/Inc/stm32f0xx_hal.h"
 1063              		.file 23 "<built-in>"
 1064              		.file 24 "Drivers/Giro/Inc/giro_driver.h"
ARM GAS  /tmp/ccl1p6uj.s 			page 60


DEFINED SYMBOLS
                            *ABS*:0000000000000000 main.c
     /tmp/ccl1p6uj.s:18     .text.MX_GPIO_Init:0000000000000000 $t
     /tmp/ccl1p6uj.s:23     .text.MX_GPIO_Init:0000000000000000 MX_GPIO_Init
     /tmp/ccl1p6uj.s:194    .text.MX_GPIO_Init:00000000000000a0 $d
     /tmp/ccl1p6uj.s:201    .text.Error_Handler:0000000000000000 $t
     /tmp/ccl1p6uj.s:207    .text.Error_Handler:0000000000000000 Error_Handler
     /tmp/ccl1p6uj.s:239    .text.MX_I2C1_Init:0000000000000000 $t
     /tmp/ccl1p6uj.s:244    .text.MX_I2C1_Init:0000000000000000 MX_I2C1_Init
     /tmp/ccl1p6uj.s:330    .text.MX_I2C1_Init:000000000000004c $d
     /tmp/ccl1p6uj.s:337    .text.MX_TIM1_Init:0000000000000000 $t
     /tmp/ccl1p6uj.s:342    .text.MX_TIM1_Init:0000000000000000 MX_TIM1_Init
     /tmp/ccl1p6uj.s:516    .text.MX_TIM1_Init:00000000000000b0 $d
     /tmp/ccl1p6uj.s:522    .text.MX_TIM2_Init:0000000000000000 $t
     /tmp/ccl1p6uj.s:527    .text.MX_TIM2_Init:0000000000000000 MX_TIM2_Init
     /tmp/ccl1p6uj.s:676    .text.MX_TIM2_Init:00000000000000a0 $d
     /tmp/ccl1p6uj.s:682    .text.SystemClock_Config:0000000000000000 $t
     /tmp/ccl1p6uj.s:688    .text.SystemClock_Config:0000000000000000 SystemClock_Config
     /tmp/ccl1p6uj.s:856    .text.SystemClock_Config:000000000000009c $d
     /tmp/ccl1p6uj.s:862    .text.main:0000000000000000 $t
     /tmp/ccl1p6uj.s:868    .text.main:0000000000000000 main
     /tmp/ccl1p6uj.s:986    .text.main:0000000000000080 $d
     /tmp/ccl1p6uj.s:1036   .bss.number:0000000000000000 number
     /tmp/ccl1p6uj.s:1004   .bss.button_delay_counter:0000000000000000 button_delay_counter
     /tmp/ccl1p6uj.s:1042   .rodata.sis_tik_frik:0000000000000000 sis_tik_frik
     /tmp/ccl1p6uj.s:1009   .bss.button_status:0000000000000000 button_status
     /tmp/ccl1p6uj.s:1030   .bss.htim2:0000000000000000 htim2
     /tmp/ccl1p6uj.s:1023   .bss.htim1:0000000000000000 htim1
     /tmp/ccl1p6uj.s:1016   .bss.hi2c1:0000000000000000 hi2c1
     /tmp/ccl1p6uj.s:1001   .bss.button_delay_counter:0000000000000000 $d
     /tmp/ccl1p6uj.s:1010   .bss.button_status:0000000000000000 $d
     /tmp/ccl1p6uj.s:1012   .bss.hi2c1:0000000000000000 $d
     /tmp/ccl1p6uj.s:1019   .bss.htim1:0000000000000000 $d
     /tmp/ccl1p6uj.s:1026   .bss.htim2:0000000000000000 $d
     /tmp/ccl1p6uj.s:1033   .bss.number:0000000000000000 $d
     /tmp/ccl1p6uj.s:1039   .rodata.sis_tik_frik:0000000000000000 $d

UNDEFINED SYMBOLS
memset
HAL_GPIO_Init
HAL_NVIC_SetPriority
HAL_NVIC_EnableIRQ
HAL_I2C_Init
HAL_I2CEx_ConfigAnalogFilter
HAL_I2CEx_ConfigDigitalFilter
HAL_TIM_PWM_Init
HAL_TIMEx_MasterConfigSynchronization
HAL_TIM_PWM_ConfigChannel
HAL_TIMEx_ConfigBreakDeadTime
HAL_TIM_MspPostInit
HAL_RCC_OscConfig
HAL_RCC_ClockConfig
HAL_RCCEx_PeriphCLKConfig
HAL_Init
memcpy
giro_config
HAL_TIM_PWM_Start
ARM GAS  /tmp/ccl1p6uj.s 			page 61


