ARM GAS  /tmp/cc6IARtm.s 			page 1


   1              		.cpu cortex-m0
   2              		.arch armv6s-m
   3              		.fpu softvfp
   4              		.eabi_attribute 20, 1
   5              		.eabi_attribute 21, 1
   6              		.eabi_attribute 23, 3
   7              		.eabi_attribute 24, 1
   8              		.eabi_attribute 25, 1
   9              		.eabi_attribute 26, 1
  10              		.eabi_attribute 30, 1
  11              		.eabi_attribute 34, 0
  12              		.eabi_attribute 18, 4
  13              		.file	"servo.c"
  14              		.text
  15              	.Ltext0:
  16              		.cfi_sections	.debug_frame
  17              		.global	__aeabi_ddiv
  18              		.global	__aeabi_dmul
  19              		.global	__aeabi_dadd
  20              		.global	__aeabi_d2uiz
  21              		.section	.text.set_servo,"ax",%progbits
  22              		.align	1
  23              		.global	set_servo
  24              		.syntax unified
  25              		.code	16
  26              		.thumb_func
  28              	set_servo:
  29              	.LVL0:
  30              	.LFB40:
  31              		.file 1 "Drivers/Servo/Src/servo.c"
   1:Drivers/Servo/Src/servo.c **** #include "main.h"
   2:Drivers/Servo/Src/servo.c **** #include "servo.h"
   3:Drivers/Servo/Src/servo.c **** #include "stdlib.h"
   4:Drivers/Servo/Src/servo.c **** 
   5:Drivers/Servo/Src/servo.c **** #define MAX_COUNTER 20000-1
   6:Drivers/Servo/Src/servo.c **** #define PRESKAIL 48
   7:Drivers/Servo/Src/servo.c **** #define MIN_SIZE 500
   8:Drivers/Servo/Src/servo.c **** #define MAX_SIZE 2250
   9:Drivers/Servo/Src/servo.c **** 
  10:Drivers/Servo/Src/servo.c **** int set_servo(TIM_HandleTypeDef* tim, uint8_t chanal, double angle)
  11:Drivers/Servo/Src/servo.c **** {
  32              		.loc 1 11 1 view -0
  33              		.cfi_startproc
  34              		@ args = 0, pretend = 0, frame = 0
  35              		@ frame_needed = 0, uses_anonymous_args = 0
  36              		.loc 1 11 1 is_stmt 0 view .LVU1
  37 0000 D0B5     		push	{r4, r6, r7, lr}
  38              	.LCFI0:
  39              		.cfi_def_cfa_offset 16
  40              		.cfi_offset 4, -16
  41              		.cfi_offset 6, -12
  42              		.cfi_offset 7, -8
  43              		.cfi_offset 14, -4
  44 0002 0400     		movs	r4, r0
  45 0004 1600     		movs	r6, r2
  46 0006 1F00     		movs	r7, r3
  12:Drivers/Servo/Src/servo.c ****     switch (chanal)
ARM GAS  /tmp/cc6IARtm.s 			page 2


  47              		.loc 1 12 5 is_stmt 1 view .LVU2
  48 0008 0329     		cmp	r1, #3
  49 000a 40D0     		beq	.L2
  50 000c 16D8     		bhi	.L3
  51 000e 0129     		cmp	r1, #1
  52 0010 29D0     		beq	.L4
  53 0012 0229     		cmp	r1, #2
  54 0014 39D1     		bne	.L6
  13:Drivers/Servo/Src/servo.c ****     {
  14:Drivers/Servo/Src/servo.c ****     case 1:
  15:Drivers/Servo/Src/servo.c ****         tim->Instance->CCR1 = MIN_SIZE + (MAX_SIZE - MIN_SIZE)*(angle/3.1415);
  16:Drivers/Servo/Src/servo.c ****         break;
  17:Drivers/Servo/Src/servo.c ****     case 2:
  18:Drivers/Servo/Src/servo.c ****         tim->Instance->CCR2 = MIN_SIZE + (MAX_SIZE - MIN_SIZE)*(angle/3.1415);
  55              		.loc 1 18 9 view .LVU3
  56              		.loc 1 18 70 is_stmt 0 view .LVU4
  57 0016 274A     		ldr	r2, .L8
  58              	.LVL1:
  59              		.loc 1 18 70 view .LVU5
  60 0018 274B     		ldr	r3, .L8+4
  61 001a 3000     		movs	r0, r6
  62              	.LVL2:
  63              		.loc 1 18 70 view .LVU6
  64 001c 3900     		movs	r1, r7
  65              	.LVL3:
  66              		.loc 1 18 70 view .LVU7
  67 001e FFF7FEFF 		bl	__aeabi_ddiv
  68              	.LVL4:
  69              		.loc 1 18 63 view .LVU8
  70 0022 0022     		movs	r2, #0
  71 0024 254B     		ldr	r3, .L8+8
  72 0026 FFF7FEFF 		bl	__aeabi_dmul
  73              	.LVL5:
  74              		.loc 1 18 40 view .LVU9
  75 002a 0022     		movs	r2, #0
  76 002c 244B     		ldr	r3, .L8+12
  77 002e FFF7FEFF 		bl	__aeabi_dadd
  78              	.LVL6:
  79              		.loc 1 18 12 view .LVU10
  80 0032 2468     		ldr	r4, [r4]
  81              	.LVL7:
  82              		.loc 1 18 29 view .LVU11
  83 0034 FFF7FEFF 		bl	__aeabi_d2uiz
  84              	.LVL8:
  85 0038 A063     		str	r0, [r4, #56]
  19:Drivers/Servo/Src/servo.c ****         break;
  86              		.loc 1 19 9 is_stmt 1 view .LVU12
  87 003a 26E0     		b	.L6
  88              	.LVL9:
  89              	.L3:
  12:Drivers/Servo/Src/servo.c ****     switch (chanal)
  90              		.loc 1 12 5 is_stmt 0 view .LVU13
  91 003c 0429     		cmp	r1, #4
  92 003e 24D1     		bne	.L6
  20:Drivers/Servo/Src/servo.c ****     case 3:
  21:Drivers/Servo/Src/servo.c ****         tim->Instance->CCR3 = MIN_SIZE + (MAX_SIZE - MIN_SIZE)*(angle/3.1415);
  22:Drivers/Servo/Src/servo.c ****         break;
ARM GAS  /tmp/cc6IARtm.s 			page 3


  23:Drivers/Servo/Src/servo.c ****     case 4:
  24:Drivers/Servo/Src/servo.c ****         tim->Instance->CCR4 = MIN_SIZE + (MAX_SIZE - MIN_SIZE)*(angle/3.1415);
  93              		.loc 1 24 9 is_stmt 1 view .LVU14
  94              		.loc 1 24 70 is_stmt 0 view .LVU15
  95 0040 1C4A     		ldr	r2, .L8
  96              	.LVL10:
  97              		.loc 1 24 70 view .LVU16
  98 0042 1D4B     		ldr	r3, .L8+4
  99 0044 3000     		movs	r0, r6
 100              	.LVL11:
 101              		.loc 1 24 70 view .LVU17
 102 0046 3900     		movs	r1, r7
 103              	.LVL12:
 104              		.loc 1 24 70 view .LVU18
 105 0048 FFF7FEFF 		bl	__aeabi_ddiv
 106              	.LVL13:
 107              		.loc 1 24 63 view .LVU19
 108 004c 0022     		movs	r2, #0
 109 004e 1B4B     		ldr	r3, .L8+8
 110 0050 FFF7FEFF 		bl	__aeabi_dmul
 111              	.LVL14:
 112              		.loc 1 24 40 view .LVU20
 113 0054 0022     		movs	r2, #0
 114 0056 1A4B     		ldr	r3, .L8+12
 115 0058 FFF7FEFF 		bl	__aeabi_dadd
 116              	.LVL15:
 117              		.loc 1 24 12 view .LVU21
 118 005c 2468     		ldr	r4, [r4]
 119              	.LVL16:
 120              		.loc 1 24 29 view .LVU22
 121 005e FFF7FEFF 		bl	__aeabi_d2uiz
 122              	.LVL17:
 123 0062 2064     		str	r0, [r4, #64]
  25:Drivers/Servo/Src/servo.c ****         break;
 124              		.loc 1 25 9 is_stmt 1 view .LVU23
 125 0064 11E0     		b	.L6
 126              	.LVL18:
 127              	.L4:
  15:Drivers/Servo/Src/servo.c ****         break;
 128              		.loc 1 15 9 view .LVU24
  15:Drivers/Servo/Src/servo.c ****         break;
 129              		.loc 1 15 70 is_stmt 0 view .LVU25
 130 0066 134A     		ldr	r2, .L8
 131              	.LVL19:
  15:Drivers/Servo/Src/servo.c ****         break;
 132              		.loc 1 15 70 view .LVU26
 133 0068 134B     		ldr	r3, .L8+4
 134 006a 3000     		movs	r0, r6
 135              	.LVL20:
  15:Drivers/Servo/Src/servo.c ****         break;
 136              		.loc 1 15 70 view .LVU27
 137 006c 3900     		movs	r1, r7
 138              	.LVL21:
  15:Drivers/Servo/Src/servo.c ****         break;
 139              		.loc 1 15 70 view .LVU28
 140 006e FFF7FEFF 		bl	__aeabi_ddiv
 141              	.LVL22:
ARM GAS  /tmp/cc6IARtm.s 			page 4


  15:Drivers/Servo/Src/servo.c ****         break;
 142              		.loc 1 15 63 view .LVU29
 143 0072 0022     		movs	r2, #0
 144 0074 114B     		ldr	r3, .L8+8
 145 0076 FFF7FEFF 		bl	__aeabi_dmul
 146              	.LVL23:
  15:Drivers/Servo/Src/servo.c ****         break;
 147              		.loc 1 15 40 view .LVU30
 148 007a 0022     		movs	r2, #0
 149 007c 104B     		ldr	r3, .L8+12
 150 007e FFF7FEFF 		bl	__aeabi_dadd
 151              	.LVL24:
  15:Drivers/Servo/Src/servo.c ****         break;
 152              		.loc 1 15 12 view .LVU31
 153 0082 2468     		ldr	r4, [r4]
 154              	.LVL25:
  15:Drivers/Servo/Src/servo.c ****         break;
 155              		.loc 1 15 29 view .LVU32
 156 0084 FFF7FEFF 		bl	__aeabi_d2uiz
 157              	.LVL26:
 158 0088 6063     		str	r0, [r4, #52]
  16:Drivers/Servo/Src/servo.c ****     case 2:
 159              		.loc 1 16 9 is_stmt 1 view .LVU33
 160              	.L6:
  26:Drivers/Servo/Src/servo.c ****     default:
  27:Drivers/Servo/Src/servo.c ****         break;
  28:Drivers/Servo/Src/servo.c ****     }
  29:Drivers/Servo/Src/servo.c ****     return 0;
 161              		.loc 1 29 5 view .LVU34
  30:Drivers/Servo/Src/servo.c **** }
 162              		.loc 1 30 1 is_stmt 0 view .LVU35
 163 008a 0020     		movs	r0, #0
 164              		@ sp needed
 165 008c D0BD     		pop	{r4, r6, r7, pc}
 166              	.LVL27:
 167              	.L2:
  21:Drivers/Servo/Src/servo.c ****         break;
 168              		.loc 1 21 9 is_stmt 1 view .LVU36
  21:Drivers/Servo/Src/servo.c ****         break;
 169              		.loc 1 21 70 is_stmt 0 view .LVU37
 170 008e 094A     		ldr	r2, .L8
 171              	.LVL28:
  21:Drivers/Servo/Src/servo.c ****         break;
 172              		.loc 1 21 70 view .LVU38
 173 0090 094B     		ldr	r3, .L8+4
 174 0092 3000     		movs	r0, r6
 175              	.LVL29:
  21:Drivers/Servo/Src/servo.c ****         break;
 176              		.loc 1 21 70 view .LVU39
 177 0094 3900     		movs	r1, r7
 178              	.LVL30:
  21:Drivers/Servo/Src/servo.c ****         break;
 179              		.loc 1 21 70 view .LVU40
 180 0096 FFF7FEFF 		bl	__aeabi_ddiv
 181              	.LVL31:
  21:Drivers/Servo/Src/servo.c ****         break;
 182              		.loc 1 21 63 view .LVU41
ARM GAS  /tmp/cc6IARtm.s 			page 5


 183 009a 0022     		movs	r2, #0
 184 009c 074B     		ldr	r3, .L8+8
 185 009e FFF7FEFF 		bl	__aeabi_dmul
 186              	.LVL32:
  21:Drivers/Servo/Src/servo.c ****         break;
 187              		.loc 1 21 40 view .LVU42
 188 00a2 0022     		movs	r2, #0
 189 00a4 064B     		ldr	r3, .L8+12
 190 00a6 FFF7FEFF 		bl	__aeabi_dadd
 191              	.LVL33:
  21:Drivers/Servo/Src/servo.c ****         break;
 192              		.loc 1 21 12 view .LVU43
 193 00aa 2468     		ldr	r4, [r4]
 194              	.LVL34:
  21:Drivers/Servo/Src/servo.c ****         break;
 195              		.loc 1 21 29 view .LVU44
 196 00ac FFF7FEFF 		bl	__aeabi_d2uiz
 197              	.LVL35:
 198 00b0 E063     		str	r0, [r4, #60]
  22:Drivers/Servo/Src/servo.c ****     case 4:
 199              		.loc 1 22 9 is_stmt 1 view .LVU45
 200 00b2 EAE7     		b	.L6
 201              	.L9:
 202              		.align	2
 203              	.L8:
 204 00b4 6F1283C0 		.word	-1065151889
 205 00b8 CA210940 		.word	1074340298
 206 00bc 00589B40 		.word	1083922432
 207 00c0 00407F40 		.word	1082081280
 208              		.cfi_endproc
 209              	.LFE40:
 211              		.global	__aeabi_dcmplt
 212              		.global	__aeabi_dcmpgt
 213              		.section	.text.set_3_servo,"ax",%progbits
 214              		.align	1
 215              		.global	set_3_servo
 216              		.syntax unified
 217              		.code	16
 218              		.thumb_func
 220              	set_3_servo:
 221              	.LVL36:
 222              	.LFB41:
  31:Drivers/Servo/Src/servo.c **** 
  32:Drivers/Servo/Src/servo.c **** int set_3_servo(TIM_HandleTypeDef* tim, double angle_1, double angle_2, double angle_3)
  33:Drivers/Servo/Src/servo.c **** {
 223              		.loc 1 33 1 view -0
 224              		.cfi_startproc
 225              		@ args = 16, pretend = 0, frame = 0
 226              		@ frame_needed = 0, uses_anonymous_args = 0
 227              		.loc 1 33 1 is_stmt 0 view .LVU47
 228 0000 70B5     		push	{r4, r5, r6, lr}
 229              	.LCFI1:
 230              		.cfi_def_cfa_offset 16
 231              		.cfi_offset 4, -16
 232              		.cfi_offset 5, -12
 233              		.cfi_offset 6, -8
 234              		.cfi_offset 14, -4
ARM GAS  /tmp/cc6IARtm.s 			page 6


 235 0002 0600     		movs	r6, r0
 236 0004 1400     		movs	r4, r2
 237 0006 1D00     		movs	r5, r3
  34:Drivers/Servo/Src/servo.c ****     if(angle_1 < 0) angle_1 = 0;
 238              		.loc 1 34 5 is_stmt 1 view .LVU48
 239              		.loc 1 34 7 is_stmt 0 view .LVU49
 240 0008 0022     		movs	r2, #0
 241              	.LVL37:
 242              		.loc 1 34 7 view .LVU50
 243 000a 0023     		movs	r3, #0
 244 000c 2000     		movs	r0, r4
 245              	.LVL38:
 246              		.loc 1 34 7 view .LVU51
 247 000e 2900     		movs	r1, r5
 248 0010 FFF7FEFF 		bl	__aeabi_dcmplt
 249              	.LVL39:
 250 0014 0028     		cmp	r0, #0
 251 0016 00D0     		beq	.LCB182
 252 0018 69E0     		b	.L23	@long jump
 253              	.LCB182:
 254              	.L11:
 255              	.LVL40:
  35:Drivers/Servo/Src/servo.c ****     if(angle_1 > 3.1415) angle_1 = 3,1415;
 256              		.loc 1 35 5 is_stmt 1 view .LVU52
 257              		.loc 1 35 7 is_stmt 0 view .LVU53
 258 001a 3B4A     		ldr	r2, .L26
 259 001c 3B4B     		ldr	r3, .L26+4
 260 001e 2000     		movs	r0, r4
 261 0020 2900     		movs	r1, r5
 262 0022 FFF7FEFF 		bl	__aeabi_dcmpgt
 263              	.LVL41:
 264 0026 0028     		cmp	r0, #0
 265 0028 01D0     		beq	.L12
 266              		.loc 1 35 34 view .LVU54
 267 002a 0024     		movs	r4, #0
 268              	.LVL42:
 269              		.loc 1 35 34 view .LVU55
 270 002c 384D     		ldr	r5, .L26+8
 271              	.L12:
 272              	.LVL43:
  36:Drivers/Servo/Src/servo.c ****     if(angle_2 < 0) angle_2 = 0;
 273              		.loc 1 36 5 is_stmt 1 view .LVU56
 274              		.loc 1 36 7 is_stmt 0 view .LVU57
 275 002e 0022     		movs	r2, #0
 276 0030 0023     		movs	r3, #0
 277 0032 0498     		ldr	r0, [sp, #16]
 278 0034 0599     		ldr	r1, [sp, #20]
 279 0036 FFF7FEFF 		bl	__aeabi_dcmplt
 280              	.LVL44:
 281 003a 0028     		cmp	r0, #0
 282 003c 5AD1     		bne	.L24
 283              	.LVL45:
 284              	.L13:
  37:Drivers/Servo/Src/servo.c ****     if(angle_2 > 3.1415) angle_2 = 3,1415;
 285              		.loc 1 37 5 is_stmt 1 view .LVU58
 286              		.loc 1 37 7 is_stmt 0 view .LVU59
 287 003e 324A     		ldr	r2, .L26
ARM GAS  /tmp/cc6IARtm.s 			page 7


 288 0040 324B     		ldr	r3, .L26+4
 289 0042 0498     		ldr	r0, [sp, #16]
 290 0044 0599     		ldr	r1, [sp, #20]
 291 0046 FFF7FEFF 		bl	__aeabi_dcmpgt
 292              	.LVL46:
 293 004a 0028     		cmp	r0, #0
 294 004c 03D0     		beq	.L14
 295              		.loc 1 37 34 view .LVU60
 296 004e 0022     		movs	r2, #0
 297 0050 2F4B     		ldr	r3, .L26+8
 298 0052 0492     		str	r2, [sp, #16]
 299 0054 0593     		str	r3, [sp, #20]
 300              	.LVL47:
 301              	.L14:
  38:Drivers/Servo/Src/servo.c ****     if(angle_3 < 0) angle_3 = 0;
 302              		.loc 1 38 5 is_stmt 1 view .LVU61
 303              		.loc 1 38 7 is_stmt 0 view .LVU62
 304 0056 0022     		movs	r2, #0
 305 0058 0023     		movs	r3, #0
 306 005a 0698     		ldr	r0, [sp, #24]
 307 005c 0799     		ldr	r1, [sp, #28]
 308 005e FFF7FEFF 		bl	__aeabi_dcmplt
 309              	.LVL48:
 310 0062 0028     		cmp	r0, #0
 311 0064 4BD1     		bne	.L25
 312              	.LVL49:
 313              	.L15:
  39:Drivers/Servo/Src/servo.c ****     if(angle_3 > 3.1415) angle_3 = 3,1415;
 314              		.loc 1 39 5 is_stmt 1 view .LVU63
 315              		.loc 1 39 7 is_stmt 0 view .LVU64
 316 0066 284A     		ldr	r2, .L26
 317 0068 284B     		ldr	r3, .L26+4
 318 006a 0698     		ldr	r0, [sp, #24]
 319 006c 0799     		ldr	r1, [sp, #28]
 320 006e FFF7FEFF 		bl	__aeabi_dcmpgt
 321              	.LVL50:
 322 0072 0028     		cmp	r0, #0
 323 0074 03D0     		beq	.L16
 324              		.loc 1 39 34 view .LVU65
 325 0076 0022     		movs	r2, #0
 326 0078 254B     		ldr	r3, .L26+8
 327 007a 0692     		str	r2, [sp, #24]
 328 007c 0793     		str	r3, [sp, #28]
 329              	.LVL51:
 330              	.L16:
  40:Drivers/Servo/Src/servo.c **** 
  41:Drivers/Servo/Src/servo.c ****     tim->Instance->CCR1 = (MIN_SIZE + (MAX_SIZE - MIN_SIZE)*(angle_1/3.1415));
 331              		.loc 1 41 5 is_stmt 1 view .LVU66
 332              		.loc 1 41 69 is_stmt 0 view .LVU67
 333 007e 224A     		ldr	r2, .L26
 334 0080 224B     		ldr	r3, .L26+4
 335 0082 2000     		movs	r0, r4
 336 0084 2900     		movs	r1, r5
 337 0086 FFF7FEFF 		bl	__aeabi_ddiv
 338              	.LVL52:
 339              		.loc 1 41 60 view .LVU68
 340 008a 0022     		movs	r2, #0
ARM GAS  /tmp/cc6IARtm.s 			page 8


 341 008c 214B     		ldr	r3, .L26+12
 342 008e FFF7FEFF 		bl	__aeabi_dmul
 343              	.LVL53:
 344              		.loc 1 41 37 view .LVU69
 345 0092 0022     		movs	r2, #0
 346 0094 204B     		ldr	r3, .L26+16
 347 0096 FFF7FEFF 		bl	__aeabi_dadd
 348              	.LVL54:
 349              		.loc 1 41 8 view .LVU70
 350 009a 3468     		ldr	r4, [r6]
 351              	.LVL55:
 352              		.loc 1 41 25 view .LVU71
 353 009c FFF7FEFF 		bl	__aeabi_d2uiz
 354              	.LVL56:
 355 00a0 6063     		str	r0, [r4, #52]
  42:Drivers/Servo/Src/servo.c ****     tim->Instance->CCR2 = (MIN_SIZE + (MAX_SIZE - MIN_SIZE)*(angle_2/3.1415));
 356              		.loc 1 42 5 is_stmt 1 view .LVU72
 357              		.loc 1 42 69 is_stmt 0 view .LVU73
 358 00a2 194A     		ldr	r2, .L26
 359 00a4 194B     		ldr	r3, .L26+4
 360 00a6 0498     		ldr	r0, [sp, #16]
 361 00a8 0599     		ldr	r1, [sp, #20]
 362 00aa FFF7FEFF 		bl	__aeabi_ddiv
 363              	.LVL57:
 364              		.loc 1 42 60 view .LVU74
 365 00ae 0022     		movs	r2, #0
 366 00b0 184B     		ldr	r3, .L26+12
 367 00b2 FFF7FEFF 		bl	__aeabi_dmul
 368              	.LVL58:
 369              		.loc 1 42 37 view .LVU75
 370 00b6 0022     		movs	r2, #0
 371 00b8 174B     		ldr	r3, .L26+16
 372 00ba FFF7FEFF 		bl	__aeabi_dadd
 373              	.LVL59:
 374              		.loc 1 42 8 view .LVU76
 375 00be 3468     		ldr	r4, [r6]
 376              		.loc 1 42 25 view .LVU77
 377 00c0 FFF7FEFF 		bl	__aeabi_d2uiz
 378              	.LVL60:
 379 00c4 A063     		str	r0, [r4, #56]
  43:Drivers/Servo/Src/servo.c ****     tim->Instance->CCR3 = (MIN_SIZE + (MAX_SIZE - MIN_SIZE)*(angle_3/3.1415));
 380              		.loc 1 43 5 is_stmt 1 view .LVU78
 381              		.loc 1 43 69 is_stmt 0 view .LVU79
 382 00c6 104A     		ldr	r2, .L26
 383 00c8 104B     		ldr	r3, .L26+4
 384 00ca 0698     		ldr	r0, [sp, #24]
 385 00cc 0799     		ldr	r1, [sp, #28]
 386 00ce FFF7FEFF 		bl	__aeabi_ddiv
 387              	.LVL61:
 388              		.loc 1 43 60 view .LVU80
 389 00d2 0022     		movs	r2, #0
 390 00d4 0F4B     		ldr	r3, .L26+12
 391 00d6 FFF7FEFF 		bl	__aeabi_dmul
 392              	.LVL62:
 393              		.loc 1 43 37 view .LVU81
 394 00da 0022     		movs	r2, #0
 395 00dc 0E4B     		ldr	r3, .L26+16
ARM GAS  /tmp/cc6IARtm.s 			page 9


 396 00de FFF7FEFF 		bl	__aeabi_dadd
 397              	.LVL63:
 398              		.loc 1 43 8 view .LVU82
 399 00e2 3468     		ldr	r4, [r6]
 400              		.loc 1 43 25 view .LVU83
 401 00e4 FFF7FEFF 		bl	__aeabi_d2uiz
 402              	.LVL64:
 403 00e8 E063     		str	r0, [r4, #60]
  44:Drivers/Servo/Src/servo.c ****     return 0;
 404              		.loc 1 44 5 is_stmt 1 view .LVU84
  45:Drivers/Servo/Src/servo.c **** }...
 405              		.loc 1 45 1 is_stmt 0 view .LVU85
 406 00ea 0020     		movs	r0, #0
 407              		@ sp needed
 408              	.LVL65:
 409              		.loc 1 45 1 view .LVU86
 410 00ec 70BD     		pop	{r4, r5, r6, pc}
 411              	.LVL66:
 412              	.L23:
  34:Drivers/Servo/Src/servo.c ****     if(angle_1 < 0) angle_1 = 0;
 413              		.loc 1 34 29 view .LVU87
 414 00ee 0024     		movs	r4, #0
 415 00f0 0025     		movs	r5, #0
 416 00f2 92E7     		b	.L11
 417              	.LVL67:
 418              	.L24:
  36:Drivers/Servo/Src/servo.c ****     if(angle_2 < 0) angle_2 = 0;
 419              		.loc 1 36 29 view .LVU88
 420 00f4 0022     		movs	r2, #0
 421 00f6 0023     		movs	r3, #0
 422 00f8 0492     		str	r2, [sp, #16]
 423 00fa 0593     		str	r3, [sp, #20]
 424              	.LVL68:
  36:Drivers/Servo/Src/servo.c ****     if(angle_2 < 0) angle_2 = 0;
 425              		.loc 1 36 29 view .LVU89
 426 00fc 9FE7     		b	.L13
 427              	.LVL69:
 428              	.L25:
  38:Drivers/Servo/Src/servo.c ****     if(angle_3 < 0) angle_3 = 0;
 429              		.loc 1 38 29 view .LVU90
 430 00fe 0022     		movs	r2, #0
 431 0100 0023     		movs	r3, #0
 432 0102 0692     		str	r2, [sp, #24]
 433 0104 0793     		str	r3, [sp, #28]
 434              	.LVL70:
  38:Drivers/Servo/Src/servo.c ****     if(angle_3 < 0) angle_3 = 0;
 435              		.loc 1 38 29 view .LVU91
 436 0106 AEE7     		b	.L15
 437              	.L27:
 438              		.align	2
 439              	.L26:
 440 0108 6F1283C0 		.word	-1065151889
 441 010c CA210940 		.word	1074340298
 442 0110 00000840 		.word	1074266112
 443 0114 00589B40 		.word	1083922432
 444 0118 00407F40 		.word	1082081280
 445              		.cfi_endproc
ARM GAS  /tmp/cc6IARtm.s 			page 10


 446              	.LFE41:
 448              		.text
 449              	.Letext0:
 450              		.file 2 "/usr/share/gcc-arm-none-eabi-10.3-2021.10/arm-none-eabi/include/machine/_default_types.h"
 451              		.file 3 "/usr/share/gcc-arm-none-eabi-10.3-2021.10/arm-none-eabi/include/sys/_stdint.h"
 452              		.file 4 "Drivers/CMSIS/Device/ST/STM32F0xx/Include/stm32f051x8.h"
 453              		.file 5 "Drivers/STM32F0xx_HAL_Driver/Inc/stm32f0xx_hal_def.h"
 454              		.file 6 "Drivers/STM32F0xx_HAL_Driver/Inc/stm32f0xx_hal_dma.h"
 455              		.file 7 "Drivers/STM32F0xx_HAL_Driver/Inc/stm32f0xx_hal_tim.h"
ARM GAS  /tmp/cc6IARtm.s 			page 11


DEFINED SYMBOLS
                            *ABS*:0000000000000000 servo.c
     /tmp/cc6IARtm.s:22     .text.set_servo:0000000000000000 $t
     /tmp/cc6IARtm.s:28     .text.set_servo:0000000000000000 set_servo
     /tmp/cc6IARtm.s:204    .text.set_servo:00000000000000b4 $d
     /tmp/cc6IARtm.s:214    .text.set_3_servo:0000000000000000 $t
     /tmp/cc6IARtm.s:220    .text.set_3_servo:0000000000000000 set_3_servo
     /tmp/cc6IARtm.s:440    .text.set_3_servo:0000000000000108 $d

UNDEFINED SYMBOLS
__aeabi_ddiv
__aeabi_dmul
__aeabi_dadd
__aeabi_d2uiz
__aeabi_dcmplt
__aeabi_dcmpgt
