ARM GAS  /tmp/ccgsDOgC.s 			page 1


   1              		.cpu cortex-m0
   2              		.arch armv6s-m
   3              		.fpu softvfp
   4              		.eabi_attribute 20, 1
   5              		.eabi_attribute 21, 1
   6              		.eabi_attribute 23, 3
   7              		.eabi_attribute 24, 1
   8              		.eabi_attribute 25, 1
   9              		.eabi_attribute 26, 1
  10              		.eabi_attribute 30, 1
  11              		.eabi_attribute 34, 0
  12              		.eabi_attribute 18, 4
  13              		.file	"stm32f0xx_hal_exti.c"
  14              		.text
  15              	.Ltext0:
  16              		.cfi_sections	.debug_frame
  17              		.section	.rodata.HAL_EXTI_SetConfigLine.str1.4,"aMS",%progbits,1
  18              		.align	2
  19              	.LC0:
  20 0000 44726976 		.ascii	"Drivers/STM32F0xx_HAL_Driver/Src/stm32f0xx_hal_exti"
  20      6572732F 
  20      53544D33 
  20      32463078 
  20      785F4841 
  21 0033 2E6300   		.ascii	".c\000"
  22              		.section	.text.HAL_EXTI_SetConfigLine,"ax",%progbits
  23              		.align	1
  24              		.global	HAL_EXTI_SetConfigLine
  25              		.syntax unified
  26              		.code	16
  27              		.thumb_func
  29              	HAL_EXTI_SetConfigLine:
  30              	.LVL0:
  31              	.LFB40:
  32              		.file 1 "Drivers/STM32F0xx_HAL_Driver/Src/stm32f0xx_hal_exti.c"
   1:Drivers/STM32F0xx_HAL_Driver/Src/stm32f0xx_hal_exti.c **** /**
   2:Drivers/STM32F0xx_HAL_Driver/Src/stm32f0xx_hal_exti.c ****   ******************************************************************************
   3:Drivers/STM32F0xx_HAL_Driver/Src/stm32f0xx_hal_exti.c ****   * @file    stm32f0xx_hal_exti.c
   4:Drivers/STM32F0xx_HAL_Driver/Src/stm32f0xx_hal_exti.c ****   * @author  MCD Application Team
   5:Drivers/STM32F0xx_HAL_Driver/Src/stm32f0xx_hal_exti.c ****   * @brief   EXTI HAL module driver.
   6:Drivers/STM32F0xx_HAL_Driver/Src/stm32f0xx_hal_exti.c ****   *          This file provides firmware functions to manage the following
   7:Drivers/STM32F0xx_HAL_Driver/Src/stm32f0xx_hal_exti.c ****   *          functionalities of the Extended Interrupts and events controller (EXTI) peripheral:
   8:Drivers/STM32F0xx_HAL_Driver/Src/stm32f0xx_hal_exti.c ****   *           + Initialization and de-initialization functions
   9:Drivers/STM32F0xx_HAL_Driver/Src/stm32f0xx_hal_exti.c ****   *           + IO operation functions
  10:Drivers/STM32F0xx_HAL_Driver/Src/stm32f0xx_hal_exti.c ****   *
  11:Drivers/STM32F0xx_HAL_Driver/Src/stm32f0xx_hal_exti.c ****   @verbatim
  12:Drivers/STM32F0xx_HAL_Driver/Src/stm32f0xx_hal_exti.c ****   ==============================================================================
  13:Drivers/STM32F0xx_HAL_Driver/Src/stm32f0xx_hal_exti.c ****                     ##### EXTI Peripheral features #####
  14:Drivers/STM32F0xx_HAL_Driver/Src/stm32f0xx_hal_exti.c ****   ==============================================================================
  15:Drivers/STM32F0xx_HAL_Driver/Src/stm32f0xx_hal_exti.c ****   [..]
  16:Drivers/STM32F0xx_HAL_Driver/Src/stm32f0xx_hal_exti.c ****     (+) Each Exti line can be configured within this driver.
  17:Drivers/STM32F0xx_HAL_Driver/Src/stm32f0xx_hal_exti.c **** 
  18:Drivers/STM32F0xx_HAL_Driver/Src/stm32f0xx_hal_exti.c ****     (+) Exti line can be configured in 3 different modes
  19:Drivers/STM32F0xx_HAL_Driver/Src/stm32f0xx_hal_exti.c ****         (++) Interrupt
  20:Drivers/STM32F0xx_HAL_Driver/Src/stm32f0xx_hal_exti.c ****         (++) Event
  21:Drivers/STM32F0xx_HAL_Driver/Src/stm32f0xx_hal_exti.c ****         (++) Both of them
  22:Drivers/STM32F0xx_HAL_Driver/Src/stm32f0xx_hal_exti.c **** 
ARM GAS  /tmp/ccgsDOgC.s 			page 2


  23:Drivers/STM32F0xx_HAL_Driver/Src/stm32f0xx_hal_exti.c ****     (+) Configurable Exti lines can be configured with 3 different triggers
  24:Drivers/STM32F0xx_HAL_Driver/Src/stm32f0xx_hal_exti.c ****         (++) Rising
  25:Drivers/STM32F0xx_HAL_Driver/Src/stm32f0xx_hal_exti.c ****         (++) Falling
  26:Drivers/STM32F0xx_HAL_Driver/Src/stm32f0xx_hal_exti.c ****         (++) Both of them
  27:Drivers/STM32F0xx_HAL_Driver/Src/stm32f0xx_hal_exti.c **** 
  28:Drivers/STM32F0xx_HAL_Driver/Src/stm32f0xx_hal_exti.c ****     (+) When set in interrupt mode, configurable Exti lines have two different
  29:Drivers/STM32F0xx_HAL_Driver/Src/stm32f0xx_hal_exti.c ****         interrupts pending registers which allow to distinguish which transition
  30:Drivers/STM32F0xx_HAL_Driver/Src/stm32f0xx_hal_exti.c ****         occurs:
  31:Drivers/STM32F0xx_HAL_Driver/Src/stm32f0xx_hal_exti.c ****         (++) Rising edge pending interrupt
  32:Drivers/STM32F0xx_HAL_Driver/Src/stm32f0xx_hal_exti.c ****         (++) Falling
  33:Drivers/STM32F0xx_HAL_Driver/Src/stm32f0xx_hal_exti.c **** 
  34:Drivers/STM32F0xx_HAL_Driver/Src/stm32f0xx_hal_exti.c ****     (+) Exti lines 0 to 15 are linked to gpio pin number 0 to 15. Gpio port can
  35:Drivers/STM32F0xx_HAL_Driver/Src/stm32f0xx_hal_exti.c ****         be selected through multiplexer.
  36:Drivers/STM32F0xx_HAL_Driver/Src/stm32f0xx_hal_exti.c **** 
  37:Drivers/STM32F0xx_HAL_Driver/Src/stm32f0xx_hal_exti.c ****                      ##### How to use this driver #####
  38:Drivers/STM32F0xx_HAL_Driver/Src/stm32f0xx_hal_exti.c ****   ==============================================================================
  39:Drivers/STM32F0xx_HAL_Driver/Src/stm32f0xx_hal_exti.c ****   [..]
  40:Drivers/STM32F0xx_HAL_Driver/Src/stm32f0xx_hal_exti.c **** 
  41:Drivers/STM32F0xx_HAL_Driver/Src/stm32f0xx_hal_exti.c ****     (#) Configure the EXTI line using HAL_EXTI_SetConfigLine().
  42:Drivers/STM32F0xx_HAL_Driver/Src/stm32f0xx_hal_exti.c ****         (++) Choose the interrupt line number by setting "Line" member from
  43:Drivers/STM32F0xx_HAL_Driver/Src/stm32f0xx_hal_exti.c ****              EXTI_ConfigTypeDef structure.
  44:Drivers/STM32F0xx_HAL_Driver/Src/stm32f0xx_hal_exti.c ****         (++) Configure the interrupt and/or event mode using "Mode" member from
  45:Drivers/STM32F0xx_HAL_Driver/Src/stm32f0xx_hal_exti.c ****              EXTI_ConfigTypeDef structure.
  46:Drivers/STM32F0xx_HAL_Driver/Src/stm32f0xx_hal_exti.c ****         (++) For configurable lines, configure rising and/or falling trigger
  47:Drivers/STM32F0xx_HAL_Driver/Src/stm32f0xx_hal_exti.c ****              "Trigger" member from EXTI_ConfigTypeDef structure.
  48:Drivers/STM32F0xx_HAL_Driver/Src/stm32f0xx_hal_exti.c ****         (++) For Exti lines linked to gpio, choose gpio port using "GPIOSel"
  49:Drivers/STM32F0xx_HAL_Driver/Src/stm32f0xx_hal_exti.c ****              member from GPIO_InitTypeDef structure.
  50:Drivers/STM32F0xx_HAL_Driver/Src/stm32f0xx_hal_exti.c **** 
  51:Drivers/STM32F0xx_HAL_Driver/Src/stm32f0xx_hal_exti.c ****     (#) Get current Exti configuration of a dedicated line using
  52:Drivers/STM32F0xx_HAL_Driver/Src/stm32f0xx_hal_exti.c ****         HAL_EXTI_GetConfigLine().
  53:Drivers/STM32F0xx_HAL_Driver/Src/stm32f0xx_hal_exti.c ****         (++) Provide exiting handle as parameter.
  54:Drivers/STM32F0xx_HAL_Driver/Src/stm32f0xx_hal_exti.c ****         (++) Provide pointer on EXTI_ConfigTypeDef structure as second parameter.
  55:Drivers/STM32F0xx_HAL_Driver/Src/stm32f0xx_hal_exti.c **** 
  56:Drivers/STM32F0xx_HAL_Driver/Src/stm32f0xx_hal_exti.c ****     (#) Clear Exti configuration of a dedicated line using HAL_EXTI_GetConfigLine().
  57:Drivers/STM32F0xx_HAL_Driver/Src/stm32f0xx_hal_exti.c ****         (++) Provide exiting handle as parameter.
  58:Drivers/STM32F0xx_HAL_Driver/Src/stm32f0xx_hal_exti.c **** 
  59:Drivers/STM32F0xx_HAL_Driver/Src/stm32f0xx_hal_exti.c ****     (#) Register callback to treat Exti interrupts using HAL_EXTI_RegisterCallback().
  60:Drivers/STM32F0xx_HAL_Driver/Src/stm32f0xx_hal_exti.c ****         (++) Provide exiting handle as first parameter.
  61:Drivers/STM32F0xx_HAL_Driver/Src/stm32f0xx_hal_exti.c ****         (++) Provide which callback will be registered using one value from
  62:Drivers/STM32F0xx_HAL_Driver/Src/stm32f0xx_hal_exti.c ****              EXTI_CallbackIDTypeDef.
  63:Drivers/STM32F0xx_HAL_Driver/Src/stm32f0xx_hal_exti.c ****         (++) Provide callback function pointer.
  64:Drivers/STM32F0xx_HAL_Driver/Src/stm32f0xx_hal_exti.c **** 
  65:Drivers/STM32F0xx_HAL_Driver/Src/stm32f0xx_hal_exti.c ****     (#) Get interrupt pending bit using HAL_EXTI_GetPending().
  66:Drivers/STM32F0xx_HAL_Driver/Src/stm32f0xx_hal_exti.c **** 
  67:Drivers/STM32F0xx_HAL_Driver/Src/stm32f0xx_hal_exti.c ****     (#) Clear interrupt pending bit using HAL_EXTI_GetPending().
  68:Drivers/STM32F0xx_HAL_Driver/Src/stm32f0xx_hal_exti.c **** 
  69:Drivers/STM32F0xx_HAL_Driver/Src/stm32f0xx_hal_exti.c ****     (#) Generate software interrupt using HAL_EXTI_GenerateSWI().
  70:Drivers/STM32F0xx_HAL_Driver/Src/stm32f0xx_hal_exti.c **** 
  71:Drivers/STM32F0xx_HAL_Driver/Src/stm32f0xx_hal_exti.c ****   @endverbatim
  72:Drivers/STM32F0xx_HAL_Driver/Src/stm32f0xx_hal_exti.c ****   ******************************************************************************
  73:Drivers/STM32F0xx_HAL_Driver/Src/stm32f0xx_hal_exti.c ****   * @attention
  74:Drivers/STM32F0xx_HAL_Driver/Src/stm32f0xx_hal_exti.c ****   *
  75:Drivers/STM32F0xx_HAL_Driver/Src/stm32f0xx_hal_exti.c ****   * <h2><center>&copy; Copyright (c) 2019 STMicroelectronics.
  76:Drivers/STM32F0xx_HAL_Driver/Src/stm32f0xx_hal_exti.c ****   * All rights reserved.</center></h2>
  77:Drivers/STM32F0xx_HAL_Driver/Src/stm32f0xx_hal_exti.c ****   *
  78:Drivers/STM32F0xx_HAL_Driver/Src/stm32f0xx_hal_exti.c ****   * This software component is licensed by ST under BSD 3-Clause license,
  79:Drivers/STM32F0xx_HAL_Driver/Src/stm32f0xx_hal_exti.c ****   * the "License"; You may not use this file except in compliance with the
ARM GAS  /tmp/ccgsDOgC.s 			page 3


  80:Drivers/STM32F0xx_HAL_Driver/Src/stm32f0xx_hal_exti.c ****   * License. You may obtain a copy of the License at:
  81:Drivers/STM32F0xx_HAL_Driver/Src/stm32f0xx_hal_exti.c ****   *                        opensource.org/licenses/BSD-3-Clause
  82:Drivers/STM32F0xx_HAL_Driver/Src/stm32f0xx_hal_exti.c ****   *
  83:Drivers/STM32F0xx_HAL_Driver/Src/stm32f0xx_hal_exti.c ****   ******************************************************************************
  84:Drivers/STM32F0xx_HAL_Driver/Src/stm32f0xx_hal_exti.c ****   */
  85:Drivers/STM32F0xx_HAL_Driver/Src/stm32f0xx_hal_exti.c **** 
  86:Drivers/STM32F0xx_HAL_Driver/Src/stm32f0xx_hal_exti.c **** /* Includes ------------------------------------------------------------------*/
  87:Drivers/STM32F0xx_HAL_Driver/Src/stm32f0xx_hal_exti.c **** #include "stm32f0xx_hal.h"
  88:Drivers/STM32F0xx_HAL_Driver/Src/stm32f0xx_hal_exti.c **** 
  89:Drivers/STM32F0xx_HAL_Driver/Src/stm32f0xx_hal_exti.c **** /** @addtogroup STM32F0xx_HAL_Driver
  90:Drivers/STM32F0xx_HAL_Driver/Src/stm32f0xx_hal_exti.c ****   * @{
  91:Drivers/STM32F0xx_HAL_Driver/Src/stm32f0xx_hal_exti.c ****   */
  92:Drivers/STM32F0xx_HAL_Driver/Src/stm32f0xx_hal_exti.c **** 
  93:Drivers/STM32F0xx_HAL_Driver/Src/stm32f0xx_hal_exti.c **** /** @addtogroup EXTI
  94:Drivers/STM32F0xx_HAL_Driver/Src/stm32f0xx_hal_exti.c ****   * @{
  95:Drivers/STM32F0xx_HAL_Driver/Src/stm32f0xx_hal_exti.c ****   */
  96:Drivers/STM32F0xx_HAL_Driver/Src/stm32f0xx_hal_exti.c **** /** MISRA C:2012 deviation rule has been granted for following rule:
  97:Drivers/STM32F0xx_HAL_Driver/Src/stm32f0xx_hal_exti.c ****   * Rule-18.1_b - Medium: Array `EXTICR' 1st subscript interval [0,7] may be out
  98:Drivers/STM32F0xx_HAL_Driver/Src/stm32f0xx_hal_exti.c ****   * of bounds [0,3] in following API :
  99:Drivers/STM32F0xx_HAL_Driver/Src/stm32f0xx_hal_exti.c ****   * HAL_EXTI_SetConfigLine
 100:Drivers/STM32F0xx_HAL_Driver/Src/stm32f0xx_hal_exti.c ****   * HAL_EXTI_GetConfigLine
 101:Drivers/STM32F0xx_HAL_Driver/Src/stm32f0xx_hal_exti.c ****   * HAL_EXTI_ClearConfigLine
 102:Drivers/STM32F0xx_HAL_Driver/Src/stm32f0xx_hal_exti.c ****   */
 103:Drivers/STM32F0xx_HAL_Driver/Src/stm32f0xx_hal_exti.c **** 
 104:Drivers/STM32F0xx_HAL_Driver/Src/stm32f0xx_hal_exti.c **** #ifdef HAL_EXTI_MODULE_ENABLED
 105:Drivers/STM32F0xx_HAL_Driver/Src/stm32f0xx_hal_exti.c **** 
 106:Drivers/STM32F0xx_HAL_Driver/Src/stm32f0xx_hal_exti.c **** /* Private typedef -----------------------------------------------------------*/
 107:Drivers/STM32F0xx_HAL_Driver/Src/stm32f0xx_hal_exti.c **** /* Private defines -----------------------------------------------------------*/
 108:Drivers/STM32F0xx_HAL_Driver/Src/stm32f0xx_hal_exti.c **** /** @defgroup EXTI_Private_Constants EXTI Private Constants
 109:Drivers/STM32F0xx_HAL_Driver/Src/stm32f0xx_hal_exti.c ****   * @{
 110:Drivers/STM32F0xx_HAL_Driver/Src/stm32f0xx_hal_exti.c ****   */
 111:Drivers/STM32F0xx_HAL_Driver/Src/stm32f0xx_hal_exti.c **** 
 112:Drivers/STM32F0xx_HAL_Driver/Src/stm32f0xx_hal_exti.c **** /**
 113:Drivers/STM32F0xx_HAL_Driver/Src/stm32f0xx_hal_exti.c ****   * @}
 114:Drivers/STM32F0xx_HAL_Driver/Src/stm32f0xx_hal_exti.c ****   */
 115:Drivers/STM32F0xx_HAL_Driver/Src/stm32f0xx_hal_exti.c **** 
 116:Drivers/STM32F0xx_HAL_Driver/Src/stm32f0xx_hal_exti.c **** /* Private macros ------------------------------------------------------------*/
 117:Drivers/STM32F0xx_HAL_Driver/Src/stm32f0xx_hal_exti.c **** /* Private variables ---------------------------------------------------------*/
 118:Drivers/STM32F0xx_HAL_Driver/Src/stm32f0xx_hal_exti.c **** /* Private function prototypes -----------------------------------------------*/
 119:Drivers/STM32F0xx_HAL_Driver/Src/stm32f0xx_hal_exti.c **** /* Exported functions --------------------------------------------------------*/
 120:Drivers/STM32F0xx_HAL_Driver/Src/stm32f0xx_hal_exti.c **** 
 121:Drivers/STM32F0xx_HAL_Driver/Src/stm32f0xx_hal_exti.c **** /** @addtogroup EXTI_Exported_Functions
 122:Drivers/STM32F0xx_HAL_Driver/Src/stm32f0xx_hal_exti.c ****   * @{
 123:Drivers/STM32F0xx_HAL_Driver/Src/stm32f0xx_hal_exti.c ****   */
 124:Drivers/STM32F0xx_HAL_Driver/Src/stm32f0xx_hal_exti.c **** 
 125:Drivers/STM32F0xx_HAL_Driver/Src/stm32f0xx_hal_exti.c **** /** @addtogroup EXTI_Exported_Functions_Group1
 126:Drivers/STM32F0xx_HAL_Driver/Src/stm32f0xx_hal_exti.c ****   *  @brief    Configuration functions
 127:Drivers/STM32F0xx_HAL_Driver/Src/stm32f0xx_hal_exti.c ****   *
 128:Drivers/STM32F0xx_HAL_Driver/Src/stm32f0xx_hal_exti.c **** @verbatim
 129:Drivers/STM32F0xx_HAL_Driver/Src/stm32f0xx_hal_exti.c ****  ===============================================================================
 130:Drivers/STM32F0xx_HAL_Driver/Src/stm32f0xx_hal_exti.c ****               ##### Configuration functions #####
 131:Drivers/STM32F0xx_HAL_Driver/Src/stm32f0xx_hal_exti.c ****  ===============================================================================
 132:Drivers/STM32F0xx_HAL_Driver/Src/stm32f0xx_hal_exti.c **** 
 133:Drivers/STM32F0xx_HAL_Driver/Src/stm32f0xx_hal_exti.c **** @endverbatim
 134:Drivers/STM32F0xx_HAL_Driver/Src/stm32f0xx_hal_exti.c ****   * @{
 135:Drivers/STM32F0xx_HAL_Driver/Src/stm32f0xx_hal_exti.c ****   */
 136:Drivers/STM32F0xx_HAL_Driver/Src/stm32f0xx_hal_exti.c **** 
ARM GAS  /tmp/ccgsDOgC.s 			page 4


 137:Drivers/STM32F0xx_HAL_Driver/Src/stm32f0xx_hal_exti.c **** /**
 138:Drivers/STM32F0xx_HAL_Driver/Src/stm32f0xx_hal_exti.c ****   * @brief  Set configuration of a dedicated Exti line.
 139:Drivers/STM32F0xx_HAL_Driver/Src/stm32f0xx_hal_exti.c ****   * @param  hexti Exti handle.
 140:Drivers/STM32F0xx_HAL_Driver/Src/stm32f0xx_hal_exti.c ****   * @param  pExtiConfig Pointer on EXTI configuration to be set.
 141:Drivers/STM32F0xx_HAL_Driver/Src/stm32f0xx_hal_exti.c ****   * @retval HAL Status.
 142:Drivers/STM32F0xx_HAL_Driver/Src/stm32f0xx_hal_exti.c ****   */
 143:Drivers/STM32F0xx_HAL_Driver/Src/stm32f0xx_hal_exti.c **** HAL_StatusTypeDef HAL_EXTI_SetConfigLine(EXTI_HandleTypeDef *hexti, EXTI_ConfigTypeDef *pExtiConfig
 144:Drivers/STM32F0xx_HAL_Driver/Src/stm32f0xx_hal_exti.c **** {
  33              		.loc 1 144 1 view -0
  34              		.cfi_startproc
  35              		@ args = 0, pretend = 0, frame = 0
  36              		@ frame_needed = 0, uses_anonymous_args = 0
  37              		.loc 1 144 1 is_stmt 0 view .LVU1
  38 0000 F8B5     		push	{r3, r4, r5, r6, r7, lr}
  39              	.LCFI0:
  40              		.cfi_def_cfa_offset 24
  41              		.cfi_offset 3, -24
  42              		.cfi_offset 4, -20
  43              		.cfi_offset 5, -16
  44              		.cfi_offset 6, -12
  45              		.cfi_offset 7, -8
  46              		.cfi_offset 14, -4
  47 0002 0500     		movs	r5, r0
  48 0004 0C00     		movs	r4, r1
 145:Drivers/STM32F0xx_HAL_Driver/Src/stm32f0xx_hal_exti.c ****   uint32_t regval;
  49              		.loc 1 145 3 is_stmt 1 view .LVU2
 146:Drivers/STM32F0xx_HAL_Driver/Src/stm32f0xx_hal_exti.c ****   uint32_t linepos;
  50              		.loc 1 146 3 view .LVU3
 147:Drivers/STM32F0xx_HAL_Driver/Src/stm32f0xx_hal_exti.c ****   uint32_t maskline;
  51              		.loc 1 147 3 view .LVU4
 148:Drivers/STM32F0xx_HAL_Driver/Src/stm32f0xx_hal_exti.c **** 
 149:Drivers/STM32F0xx_HAL_Driver/Src/stm32f0xx_hal_exti.c ****   /* Check null pointer */
 150:Drivers/STM32F0xx_HAL_Driver/Src/stm32f0xx_hal_exti.c ****   if ((hexti == NULL) || (pExtiConfig == NULL))
  52              		.loc 1 150 3 view .LVU5
  53              		.loc 1 150 6 is_stmt 0 view .LVU6
  54 0006 0028     		cmp	r0, #0
  55 0008 00D1     		bne	.LCB22
  56 000a 8EE0     		b	.L18	@long jump
  57              	.LCB22:
  58              		.loc 1 150 23 discriminator 1 view .LVU7
  59 000c 0029     		cmp	r1, #0
  60 000e 00D1     		bne	.LCB24
  61 0010 8DE0     		b	.L19	@long jump
  62              	.LCB24:
 151:Drivers/STM32F0xx_HAL_Driver/Src/stm32f0xx_hal_exti.c ****   {
 152:Drivers/STM32F0xx_HAL_Driver/Src/stm32f0xx_hal_exti.c ****     return HAL_ERROR;
 153:Drivers/STM32F0xx_HAL_Driver/Src/stm32f0xx_hal_exti.c ****   }
 154:Drivers/STM32F0xx_HAL_Driver/Src/stm32f0xx_hal_exti.c **** 
 155:Drivers/STM32F0xx_HAL_Driver/Src/stm32f0xx_hal_exti.c ****   /* Check parameters */
 156:Drivers/STM32F0xx_HAL_Driver/Src/stm32f0xx_hal_exti.c ****   assert_param(IS_EXTI_LINE(pExtiConfig->Line));
  63              		.loc 1 156 3 is_stmt 1 view .LVU8
  64 0012 0B68     		ldr	r3, [r1]
  65 0014 474A     		ldr	r2, .L24
  66 0016 1342     		tst	r3, r2
  67 0018 0ED1     		bne	.L3
  68              		.loc 1 156 3 is_stmt 0 discriminator 2 view .LVU9
  69 001a E022     		movs	r2, #224
ARM GAS  /tmp/ccgsDOgC.s 			page 5


  70 001c D204     		lsls	r2, r2, #19
  71 001e 1340     		ands	r3, r2
  72 0020 8022     		movs	r2, #128
  73 0022 5204     		lsls	r2, r2, #17
  74 0024 9342     		cmp	r3, r2
  75 0026 0BD0     		beq	.L4
  76              		.loc 1 156 3 discriminator 3 view .LVU10
  77 0028 8022     		movs	r2, #128
  78 002a 9204     		lsls	r2, r2, #18
  79 002c 9342     		cmp	r3, r2
  80 002e 07D0     		beq	.L4
  81              		.loc 1 156 3 discriminator 4 view .LVU11
  82 0030 C022     		movs	r2, #192
  83 0032 D204     		lsls	r2, r2, #19
  84 0034 9342     		cmp	r3, r2
  85 0036 03D0     		beq	.L4
  86              	.L3:
  87              		.loc 1 156 3 discriminator 5 view .LVU12
  88 0038 9C21     		movs	r1, #156
  89              	.LVL1:
  90              		.loc 1 156 3 discriminator 5 view .LVU13
  91 003a 3F48     		ldr	r0, .L24+4
  92              	.LVL2:
  93              		.loc 1 156 3 discriminator 5 view .LVU14
  94 003c FFF7FEFF 		bl	assert_failed
  95              	.LVL3:
  96              	.L4:
 157:Drivers/STM32F0xx_HAL_Driver/Src/stm32f0xx_hal_exti.c ****   assert_param(IS_EXTI_MODE(pExtiConfig->Mode));
  97              		.loc 1 157 3 is_stmt 1 view .LVU15
  98 0040 6368     		ldr	r3, [r4, #4]
  99 0042 9A07     		lsls	r2, r3, #30
 100 0044 02D0     		beq	.L5
 101              		.loc 1 157 3 is_stmt 0 discriminator 2 view .LVU16
 102 0046 0322     		movs	r2, #3
 103 0048 9343     		bics	r3, r2
 104 004a 03D0     		beq	.L6
 105              	.L5:
 106              		.loc 1 157 3 discriminator 3 view .LVU17
 107 004c 9D21     		movs	r1, #157
 108 004e 3A48     		ldr	r0, .L24+4
 109 0050 FFF7FEFF 		bl	assert_failed
 110              	.LVL4:
 111              	.L6:
 158:Drivers/STM32F0xx_HAL_Driver/Src/stm32f0xx_hal_exti.c **** 
 159:Drivers/STM32F0xx_HAL_Driver/Src/stm32f0xx_hal_exti.c ****   /* Assign line number to handle */
 160:Drivers/STM32F0xx_HAL_Driver/Src/stm32f0xx_hal_exti.c ****   hexti->Line = pExtiConfig->Line;
 112              		.loc 1 160 3 is_stmt 1 view .LVU18
 113              		.loc 1 160 28 is_stmt 0 view .LVU19
 114 0054 2768     		ldr	r7, [r4]
 115              		.loc 1 160 15 view .LVU20
 116 0056 2F60     		str	r7, [r5]
 161:Drivers/STM32F0xx_HAL_Driver/Src/stm32f0xx_hal_exti.c **** 
 162:Drivers/STM32F0xx_HAL_Driver/Src/stm32f0xx_hal_exti.c ****   /* Compute line mask */
 163:Drivers/STM32F0xx_HAL_Driver/Src/stm32f0xx_hal_exti.c ****   linepos = (pExtiConfig->Line & EXTI_PIN_MASK);
 117              		.loc 1 163 3 is_stmt 1 view .LVU21
 118              		.loc 1 163 11 is_stmt 0 view .LVU22
 119 0058 1F25     		movs	r5, #31
ARM GAS  /tmp/ccgsDOgC.s 			page 6


 120              	.LVL5:
 121              		.loc 1 163 11 view .LVU23
 122 005a 3D40     		ands	r5, r7
 123              	.LVL6:
 164:Drivers/STM32F0xx_HAL_Driver/Src/stm32f0xx_hal_exti.c ****   maskline = (1uL << linepos);
 124              		.loc 1 164 3 is_stmt 1 view .LVU24
 125              		.loc 1 164 12 is_stmt 0 view .LVU25
 126 005c 0126     		movs	r6, #1
 127 005e AE40     		lsls	r6, r6, r5
 128              	.LVL7:
 165:Drivers/STM32F0xx_HAL_Driver/Src/stm32f0xx_hal_exti.c **** 
 166:Drivers/STM32F0xx_HAL_Driver/Src/stm32f0xx_hal_exti.c ****   /* Configure triggers for configurable lines */
 167:Drivers/STM32F0xx_HAL_Driver/Src/stm32f0xx_hal_exti.c ****   if ((pExtiConfig->Line & EXTI_CONFIG) != 0x00u)
 129              		.loc 1 167 3 is_stmt 1 view .LVU26
 130              		.loc 1 167 6 is_stmt 0 view .LVU27
 131 0060 BB01     		lsls	r3, r7, #6
 132 0062 17D5     		bpl	.L7
 168:Drivers/STM32F0xx_HAL_Driver/Src/stm32f0xx_hal_exti.c ****   {
 169:Drivers/STM32F0xx_HAL_Driver/Src/stm32f0xx_hal_exti.c ****     assert_param(IS_EXTI_TRIGGER(pExtiConfig->Trigger));
 133              		.loc 1 169 5 is_stmt 1 view .LVU28
 134 0064 0323     		movs	r3, #3
 135 0066 A268     		ldr	r2, [r4, #8]
 136 0068 9A43     		bics	r2, r3
 137 006a 23D1     		bne	.L20
 138              	.L8:
 170:Drivers/STM32F0xx_HAL_Driver/Src/stm32f0xx_hal_exti.c **** 
 171:Drivers/STM32F0xx_HAL_Driver/Src/stm32f0xx_hal_exti.c ****     /* Configure rising trigger */
 172:Drivers/STM32F0xx_HAL_Driver/Src/stm32f0xx_hal_exti.c ****     /* Mask or set line */
 173:Drivers/STM32F0xx_HAL_Driver/Src/stm32f0xx_hal_exti.c ****     if ((pExtiConfig->Trigger & EXTI_TRIGGER_RISING) != 0x00u)
 139              		.loc 1 173 5 view .LVU29
 140              		.loc 1 173 8 is_stmt 0 view .LVU30
 141 006c A368     		ldr	r3, [r4, #8]
 142 006e DB07     		lsls	r3, r3, #31
 143 0070 25D5     		bpl	.L9
 174:Drivers/STM32F0xx_HAL_Driver/Src/stm32f0xx_hal_exti.c ****     {
 175:Drivers/STM32F0xx_HAL_Driver/Src/stm32f0xx_hal_exti.c ****       EXTI->RTSR |= maskline;
 144              		.loc 1 175 7 is_stmt 1 view .LVU31
 145              		.loc 1 175 18 is_stmt 0 view .LVU32
 146 0072 324A     		ldr	r2, .L24+8
 147 0074 9368     		ldr	r3, [r2, #8]
 148 0076 3343     		orrs	r3, r6
 149 0078 9360     		str	r3, [r2, #8]
 150              	.L10:
 176:Drivers/STM32F0xx_HAL_Driver/Src/stm32f0xx_hal_exti.c ****     }
 177:Drivers/STM32F0xx_HAL_Driver/Src/stm32f0xx_hal_exti.c ****     else
 178:Drivers/STM32F0xx_HAL_Driver/Src/stm32f0xx_hal_exti.c ****     {
 179:Drivers/STM32F0xx_HAL_Driver/Src/stm32f0xx_hal_exti.c ****       EXTI->RTSR &= ~maskline;
 180:Drivers/STM32F0xx_HAL_Driver/Src/stm32f0xx_hal_exti.c ****     }
 181:Drivers/STM32F0xx_HAL_Driver/Src/stm32f0xx_hal_exti.c **** 
 182:Drivers/STM32F0xx_HAL_Driver/Src/stm32f0xx_hal_exti.c ****     /* Configure falling trigger */
 183:Drivers/STM32F0xx_HAL_Driver/Src/stm32f0xx_hal_exti.c ****     /* Mask or set line */
 184:Drivers/STM32F0xx_HAL_Driver/Src/stm32f0xx_hal_exti.c ****     if ((pExtiConfig->Trigger & EXTI_TRIGGER_FALLING) != 0x00u)
 151              		.loc 1 184 5 is_stmt 1 view .LVU33
 152              		.loc 1 184 8 is_stmt 0 view .LVU34
 153 007a A368     		ldr	r3, [r4, #8]
 154 007c 9B07     		lsls	r3, r3, #30
 155 007e 23D5     		bpl	.L11
ARM GAS  /tmp/ccgsDOgC.s 			page 7


 185:Drivers/STM32F0xx_HAL_Driver/Src/stm32f0xx_hal_exti.c ****     {
 186:Drivers/STM32F0xx_HAL_Driver/Src/stm32f0xx_hal_exti.c ****       EXTI->FTSR |= maskline;
 156              		.loc 1 186 7 is_stmt 1 view .LVU35
 157              		.loc 1 186 18 is_stmt 0 view .LVU36
 158 0080 2E4A     		ldr	r2, .L24+8
 159 0082 D368     		ldr	r3, [r2, #12]
 160 0084 3343     		orrs	r3, r6
 161 0086 D360     		str	r3, [r2, #12]
 162              	.L12:
 187:Drivers/STM32F0xx_HAL_Driver/Src/stm32f0xx_hal_exti.c ****     }
 188:Drivers/STM32F0xx_HAL_Driver/Src/stm32f0xx_hal_exti.c ****     else
 189:Drivers/STM32F0xx_HAL_Driver/Src/stm32f0xx_hal_exti.c ****     {
 190:Drivers/STM32F0xx_HAL_Driver/Src/stm32f0xx_hal_exti.c ****       EXTI->FTSR &= ~maskline;
 191:Drivers/STM32F0xx_HAL_Driver/Src/stm32f0xx_hal_exti.c ****     }
 192:Drivers/STM32F0xx_HAL_Driver/Src/stm32f0xx_hal_exti.c **** 
 193:Drivers/STM32F0xx_HAL_Driver/Src/stm32f0xx_hal_exti.c **** 
 194:Drivers/STM32F0xx_HAL_Driver/Src/stm32f0xx_hal_exti.c ****     /* Configure gpio port selection in case of gpio exti line */
 195:Drivers/STM32F0xx_HAL_Driver/Src/stm32f0xx_hal_exti.c ****     if ((pExtiConfig->Line & EXTI_GPIO) == EXTI_GPIO)
 163              		.loc 1 195 5 is_stmt 1 view .LVU37
 164              		.loc 1 195 28 is_stmt 0 view .LVU38
 165 0088 C022     		movs	r2, #192
 166 008a D204     		lsls	r2, r2, #19
 167 008c 2368     		ldr	r3, [r4]
 168 008e 1340     		ands	r3, r2
 169              		.loc 1 195 8 view .LVU39
 170 0090 9342     		cmp	r3, r2
 171 0092 1ED0     		beq	.L21
 172              	.LVL8:
 173              	.L7:
 196:Drivers/STM32F0xx_HAL_Driver/Src/stm32f0xx_hal_exti.c ****     {
 197:Drivers/STM32F0xx_HAL_Driver/Src/stm32f0xx_hal_exti.c ****       assert_param(IS_EXTI_GPIO_PORT(pExtiConfig->GPIOSel));
 198:Drivers/STM32F0xx_HAL_Driver/Src/stm32f0xx_hal_exti.c ****       assert_param(IS_EXTI_GPIO_PIN(linepos));
 199:Drivers/STM32F0xx_HAL_Driver/Src/stm32f0xx_hal_exti.c **** 
 200:Drivers/STM32F0xx_HAL_Driver/Src/stm32f0xx_hal_exti.c ****       regval = SYSCFG->EXTICR[linepos >> 2u];
 201:Drivers/STM32F0xx_HAL_Driver/Src/stm32f0xx_hal_exti.c ****       regval &= ~(SYSCFG_EXTICR1_EXTI0 << (SYSCFG_EXTICR1_EXTI1_Pos * (linepos & 0x03u)));
 202:Drivers/STM32F0xx_HAL_Driver/Src/stm32f0xx_hal_exti.c ****       regval |= (pExtiConfig->GPIOSel << (SYSCFG_EXTICR1_EXTI1_Pos * (linepos & 0x03u)));
 203:Drivers/STM32F0xx_HAL_Driver/Src/stm32f0xx_hal_exti.c ****       SYSCFG->EXTICR[linepos >> 2u] = regval;
 204:Drivers/STM32F0xx_HAL_Driver/Src/stm32f0xx_hal_exti.c ****     }
 205:Drivers/STM32F0xx_HAL_Driver/Src/stm32f0xx_hal_exti.c ****   }
 206:Drivers/STM32F0xx_HAL_Driver/Src/stm32f0xx_hal_exti.c **** 
 207:Drivers/STM32F0xx_HAL_Driver/Src/stm32f0xx_hal_exti.c ****   /* Configure interrupt mode : read current mode */
 208:Drivers/STM32F0xx_HAL_Driver/Src/stm32f0xx_hal_exti.c ****   /* Mask or set line */
 209:Drivers/STM32F0xx_HAL_Driver/Src/stm32f0xx_hal_exti.c ****   if ((pExtiConfig->Mode & EXTI_MODE_INTERRUPT) != 0x00u)
 174              		.loc 1 209 3 is_stmt 1 view .LVU40
 175              		.loc 1 209 6 is_stmt 0 view .LVU41
 176 0094 6368     		ldr	r3, [r4, #4]
 177 0096 DB07     		lsls	r3, r3, #31
 178 0098 3CD5     		bpl	.L15
 210:Drivers/STM32F0xx_HAL_Driver/Src/stm32f0xx_hal_exti.c ****   {
 211:Drivers/STM32F0xx_HAL_Driver/Src/stm32f0xx_hal_exti.c ****     EXTI->IMR |= maskline;
 179              		.loc 1 211 5 is_stmt 1 view .LVU42
 180              		.loc 1 211 15 is_stmt 0 view .LVU43
 181 009a 284A     		ldr	r2, .L24+8
 182 009c 1368     		ldr	r3, [r2]
 183 009e 3343     		orrs	r3, r6
 184 00a0 1360     		str	r3, [r2]
 185              	.L16:
ARM GAS  /tmp/ccgsDOgC.s 			page 8


 212:Drivers/STM32F0xx_HAL_Driver/Src/stm32f0xx_hal_exti.c ****   }
 213:Drivers/STM32F0xx_HAL_Driver/Src/stm32f0xx_hal_exti.c ****   else
 214:Drivers/STM32F0xx_HAL_Driver/Src/stm32f0xx_hal_exti.c ****   {
 215:Drivers/STM32F0xx_HAL_Driver/Src/stm32f0xx_hal_exti.c ****     EXTI->IMR &= ~maskline;
 216:Drivers/STM32F0xx_HAL_Driver/Src/stm32f0xx_hal_exti.c ****   }
 217:Drivers/STM32F0xx_HAL_Driver/Src/stm32f0xx_hal_exti.c **** 
 218:Drivers/STM32F0xx_HAL_Driver/Src/stm32f0xx_hal_exti.c ****   /* Configure event mode : read current mode */
 219:Drivers/STM32F0xx_HAL_Driver/Src/stm32f0xx_hal_exti.c ****   /* Mask or set line */
 220:Drivers/STM32F0xx_HAL_Driver/Src/stm32f0xx_hal_exti.c ****   if ((pExtiConfig->Mode & EXTI_MODE_EVENT) != 0x00u)
 186              		.loc 1 220 3 is_stmt 1 view .LVU44
 187              		.loc 1 220 19 is_stmt 0 view .LVU45
 188 00a2 6368     		ldr	r3, [r4, #4]
 189              		.loc 1 220 6 view .LVU46
 190 00a4 9B07     		lsls	r3, r3, #30
 191 00a6 3AD5     		bpl	.L17
 221:Drivers/STM32F0xx_HAL_Driver/Src/stm32f0xx_hal_exti.c ****   {
 222:Drivers/STM32F0xx_HAL_Driver/Src/stm32f0xx_hal_exti.c ****     EXTI->EMR |= maskline;
 192              		.loc 1 222 5 is_stmt 1 view .LVU47
 193              		.loc 1 222 15 is_stmt 0 view .LVU48
 194 00a8 244A     		ldr	r2, .L24+8
 195 00aa 5368     		ldr	r3, [r2, #4]
 196 00ac 1E43     		orrs	r6, r3
 197              	.LVL9:
 198              		.loc 1 222 15 view .LVU49
 199 00ae 5660     		str	r6, [r2, #4]
 223:Drivers/STM32F0xx_HAL_Driver/Src/stm32f0xx_hal_exti.c ****   }
 224:Drivers/STM32F0xx_HAL_Driver/Src/stm32f0xx_hal_exti.c ****   else
 225:Drivers/STM32F0xx_HAL_Driver/Src/stm32f0xx_hal_exti.c ****   {
 226:Drivers/STM32F0xx_HAL_Driver/Src/stm32f0xx_hal_exti.c ****     EXTI->EMR &= ~maskline;
 227:Drivers/STM32F0xx_HAL_Driver/Src/stm32f0xx_hal_exti.c ****   }
 228:Drivers/STM32F0xx_HAL_Driver/Src/stm32f0xx_hal_exti.c **** 
 229:Drivers/STM32F0xx_HAL_Driver/Src/stm32f0xx_hal_exti.c ****   return HAL_OK;
 200              		.loc 1 229 10 view .LVU50
 201 00b0 0020     		movs	r0, #0
 202              	.L2:
 230:Drivers/STM32F0xx_HAL_Driver/Src/stm32f0xx_hal_exti.c **** }
 203              		.loc 1 230 1 view .LVU51
 204              		@ sp needed
 205              	.LVL10:
 206              		.loc 1 230 1 view .LVU52
 207 00b2 F8BD     		pop	{r3, r4, r5, r6, r7, pc}
 208              	.LVL11:
 209              	.L20:
 169:Drivers/STM32F0xx_HAL_Driver/Src/stm32f0xx_hal_exti.c **** 
 210              		.loc 1 169 5 discriminator 1 view .LVU53
 211 00b4 A921     		movs	r1, #169
 212 00b6 2048     		ldr	r0, .L24+4
 213 00b8 FFF7FEFF 		bl	assert_failed
 214              	.LVL12:
 215 00bc D6E7     		b	.L8
 216              	.L9:
 179:Drivers/STM32F0xx_HAL_Driver/Src/stm32f0xx_hal_exti.c ****     }
 217              		.loc 1 179 7 is_stmt 1 view .LVU54
 179:Drivers/STM32F0xx_HAL_Driver/Src/stm32f0xx_hal_exti.c ****     }
 218              		.loc 1 179 18 is_stmt 0 view .LVU55
 219 00be 1F4A     		ldr	r2, .L24+8
 220 00c0 9368     		ldr	r3, [r2, #8]
ARM GAS  /tmp/ccgsDOgC.s 			page 9


 221 00c2 B343     		bics	r3, r6
 222 00c4 9360     		str	r3, [r2, #8]
 223 00c6 D8E7     		b	.L10
 224              	.L11:
 190:Drivers/STM32F0xx_HAL_Driver/Src/stm32f0xx_hal_exti.c ****     }
 225              		.loc 1 190 7 is_stmt 1 view .LVU56
 190:Drivers/STM32F0xx_HAL_Driver/Src/stm32f0xx_hal_exti.c ****     }
 226              		.loc 1 190 18 is_stmt 0 view .LVU57
 227 00c8 1C4A     		ldr	r2, .L24+8
 228 00ca D368     		ldr	r3, [r2, #12]
 229 00cc B343     		bics	r3, r6
 230 00ce D360     		str	r3, [r2, #12]
 231 00d0 DAE7     		b	.L12
 232              	.L21:
 197:Drivers/STM32F0xx_HAL_Driver/Src/stm32f0xx_hal_exti.c ****       assert_param(IS_EXTI_GPIO_PIN(linepos));
 233              		.loc 1 197 7 is_stmt 1 view .LVU58
 234 00d2 E368     		ldr	r3, [r4, #12]
 235 00d4 032B     		cmp	r3, #3
 236 00d6 01D9     		bls	.L13
 197:Drivers/STM32F0xx_HAL_Driver/Src/stm32f0xx_hal_exti.c ****       assert_param(IS_EXTI_GPIO_PIN(linepos));
 237              		.loc 1 197 7 is_stmt 0 discriminator 1 view .LVU59
 238 00d8 052B     		cmp	r3, #5
 239 00da 11D1     		bne	.L22
 240              	.L13:
 198:Drivers/STM32F0xx_HAL_Driver/Src/stm32f0xx_hal_exti.c **** 
 241              		.loc 1 198 7 is_stmt 1 view .LVU60
 242 00dc FB06     		lsls	r3, r7, #27
 243 00de 14D4     		bmi	.L23
 244              	.L14:
 200:Drivers/STM32F0xx_HAL_Driver/Src/stm32f0xx_hal_exti.c ****       regval &= ~(SYSCFG_EXTICR1_EXTI0 << (SYSCFG_EXTICR1_EXTI1_Pos * (linepos & 0x03u)));
 245              		.loc 1 200 7 view .LVU61
 200:Drivers/STM32F0xx_HAL_Driver/Src/stm32f0xx_hal_exti.c ****       regval &= ~(SYSCFG_EXTICR1_EXTI0 << (SYSCFG_EXTICR1_EXTI1_Pos * (linepos & 0x03u)));
 246              		.loc 1 200 39 is_stmt 0 view .LVU62
 247 00e0 AD08     		lsrs	r5, r5, #2
 248              	.LVL13:
 200:Drivers/STM32F0xx_HAL_Driver/Src/stm32f0xx_hal_exti.c ****       regval &= ~(SYSCFG_EXTICR1_EXTI0 << (SYSCFG_EXTICR1_EXTI1_Pos * (linepos & 0x03u)));
 249              		.loc 1 200 14 view .LVU63
 250 00e2 1749     		ldr	r1, .L24+12
 251 00e4 0235     		adds	r5, r5, #2
 252 00e6 AD00     		lsls	r5, r5, #2
 253 00e8 6A58     		ldr	r2, [r5, r1]
 254              	.LVL14:
 201:Drivers/STM32F0xx_HAL_Driver/Src/stm32f0xx_hal_exti.c ****       regval |= (pExtiConfig->GPIOSel << (SYSCFG_EXTICR1_EXTI1_Pos * (linepos & 0x03u)));
 255              		.loc 1 201 7 is_stmt 1 view .LVU64
 201:Drivers/STM32F0xx_HAL_Driver/Src/stm32f0xx_hal_exti.c ****       regval |= (pExtiConfig->GPIOSel << (SYSCFG_EXTICR1_EXTI1_Pos * (linepos & 0x03u)));
 256              		.loc 1 201 80 is_stmt 0 view .LVU65
 257 00ea 0323     		movs	r3, #3
 258 00ec 1F40     		ands	r7, r3
 259              	.LVL15:
 201:Drivers/STM32F0xx_HAL_Driver/Src/stm32f0xx_hal_exti.c ****       regval |= (pExtiConfig->GPIOSel << (SYSCFG_EXTICR1_EXTI1_Pos * (linepos & 0x03u)));
 260              		.loc 1 201 69 view .LVU66
 261 00ee BF00     		lsls	r7, r7, #2
 201:Drivers/STM32F0xx_HAL_Driver/Src/stm32f0xx_hal_exti.c ****       regval |= (pExtiConfig->GPIOSel << (SYSCFG_EXTICR1_EXTI1_Pos * (linepos & 0x03u)));
 262              		.loc 1 201 40 view .LVU67
 263 00f0 0C33     		adds	r3, r3, #12
 264 00f2 BB40     		lsls	r3, r3, r7
 201:Drivers/STM32F0xx_HAL_Driver/Src/stm32f0xx_hal_exti.c ****       regval |= (pExtiConfig->GPIOSel << (SYSCFG_EXTICR1_EXTI1_Pos * (linepos & 0x03u)));
ARM GAS  /tmp/ccgsDOgC.s 			page 10


 265              		.loc 1 201 14 view .LVU68
 266 00f4 9A43     		bics	r2, r3
 267              	.LVL16:
 202:Drivers/STM32F0xx_HAL_Driver/Src/stm32f0xx_hal_exti.c ****       SYSCFG->EXTICR[linepos >> 2u] = regval;
 268              		.loc 1 202 7 is_stmt 1 view .LVU69
 202:Drivers/STM32F0xx_HAL_Driver/Src/stm32f0xx_hal_exti.c ****       SYSCFG->EXTICR[linepos >> 2u] = regval;
 269              		.loc 1 202 39 is_stmt 0 view .LVU70
 270 00f6 E368     		ldr	r3, [r4, #12]
 271 00f8 BB40     		lsls	r3, r3, r7
 202:Drivers/STM32F0xx_HAL_Driver/Src/stm32f0xx_hal_exti.c ****       SYSCFG->EXTICR[linepos >> 2u] = regval;
 272              		.loc 1 202 14 view .LVU71
 273 00fa 1343     		orrs	r3, r2
 274              	.LVL17:
 203:Drivers/STM32F0xx_HAL_Driver/Src/stm32f0xx_hal_exti.c ****     }
 275              		.loc 1 203 7 is_stmt 1 view .LVU72
 203:Drivers/STM32F0xx_HAL_Driver/Src/stm32f0xx_hal_exti.c ****     }
 276              		.loc 1 203 37 is_stmt 0 view .LVU73
 277 00fc 6B50     		str	r3, [r5, r1]
 278 00fe C9E7     		b	.L7
 279              	.LVL18:
 280              	.L22:
 197:Drivers/STM32F0xx_HAL_Driver/Src/stm32f0xx_hal_exti.c ****       assert_param(IS_EXTI_GPIO_PIN(linepos));
 281              		.loc 1 197 7 discriminator 2 view .LVU74
 282 0100 C521     		movs	r1, #197
 283 0102 0D48     		ldr	r0, .L24+4
 284 0104 FFF7FEFF 		bl	assert_failed
 285              	.LVL19:
 286 0108 E8E7     		b	.L13
 287              	.L23:
 198:Drivers/STM32F0xx_HAL_Driver/Src/stm32f0xx_hal_exti.c **** 
 288              		.loc 1 198 7 discriminator 1 view .LVU75
 289 010a C621     		movs	r1, #198
 290 010c 0A48     		ldr	r0, .L24+4
 291 010e FFF7FEFF 		bl	assert_failed
 292              	.LVL20:
 293 0112 E5E7     		b	.L14
 294              	.LVL21:
 295              	.L15:
 215:Drivers/STM32F0xx_HAL_Driver/Src/stm32f0xx_hal_exti.c ****   }
 296              		.loc 1 215 5 is_stmt 1 view .LVU76
 215:Drivers/STM32F0xx_HAL_Driver/Src/stm32f0xx_hal_exti.c ****   }
 297              		.loc 1 215 15 is_stmt 0 view .LVU77
 298 0114 094A     		ldr	r2, .L24+8
 299 0116 1368     		ldr	r3, [r2]
 300 0118 B343     		bics	r3, r6
 301 011a 1360     		str	r3, [r2]
 302 011c C1E7     		b	.L16
 303              	.L17:
 226:Drivers/STM32F0xx_HAL_Driver/Src/stm32f0xx_hal_exti.c ****   }
 304              		.loc 1 226 5 is_stmt 1 view .LVU78
 226:Drivers/STM32F0xx_HAL_Driver/Src/stm32f0xx_hal_exti.c ****   }
 305              		.loc 1 226 15 is_stmt 0 view .LVU79
 306 011e 074A     		ldr	r2, .L24+8
 307 0120 5368     		ldr	r3, [r2, #4]
 308 0122 B343     		bics	r3, r6
 309 0124 5360     		str	r3, [r2, #4]
 229:Drivers/STM32F0xx_HAL_Driver/Src/stm32f0xx_hal_exti.c **** }
ARM GAS  /tmp/ccgsDOgC.s 			page 11


 310              		.loc 1 229 10 view .LVU80
 311 0126 0020     		movs	r0, #0
 312 0128 C3E7     		b	.L2
 313              	.LVL22:
 314              	.L18:
 152:Drivers/STM32F0xx_HAL_Driver/Src/stm32f0xx_hal_exti.c ****   }
 315              		.loc 1 152 12 view .LVU81
 316 012a 0120     		movs	r0, #1
 317              	.LVL23:
 152:Drivers/STM32F0xx_HAL_Driver/Src/stm32f0xx_hal_exti.c ****   }
 318              		.loc 1 152 12 view .LVU82
 319 012c C1E7     		b	.L2
 320              	.LVL24:
 321              	.L19:
 152:Drivers/STM32F0xx_HAL_Driver/Src/stm32f0xx_hal_exti.c ****   }
 322              		.loc 1 152 12 view .LVU83
 323 012e 0120     		movs	r0, #1
 324              	.LVL25:
 152:Drivers/STM32F0xx_HAL_Driver/Src/stm32f0xx_hal_exti.c ****   }
 325              		.loc 1 152 12 view .LVU84
 326 0130 BFE7     		b	.L2
 327              	.L25:
 328 0132 C046     		.align	2
 329              	.L24:
 330 0134 E0FFFFF8 		.word	-117440544
 331 0138 00000000 		.word	.LC0
 332 013c 00040140 		.word	1073808384
 333 0140 00000140 		.word	1073807360
 334              		.cfi_endproc
 335              	.LFE40:
 337              		.section	.text.HAL_EXTI_GetConfigLine,"ax",%progbits
 338              		.align	1
 339              		.global	HAL_EXTI_GetConfigLine
 340              		.syntax unified
 341              		.code	16
 342              		.thumb_func
 344              	HAL_EXTI_GetConfigLine:
 345              	.LVL26:
 346              	.LFB41:
 231:Drivers/STM32F0xx_HAL_Driver/Src/stm32f0xx_hal_exti.c **** 
 232:Drivers/STM32F0xx_HAL_Driver/Src/stm32f0xx_hal_exti.c **** /**
 233:Drivers/STM32F0xx_HAL_Driver/Src/stm32f0xx_hal_exti.c ****   * @brief  Get configuration of a dedicated Exti line.
 234:Drivers/STM32F0xx_HAL_Driver/Src/stm32f0xx_hal_exti.c ****   * @param  hexti Exti handle.
 235:Drivers/STM32F0xx_HAL_Driver/Src/stm32f0xx_hal_exti.c ****   * @param  pExtiConfig Pointer on structure to store Exti configuration.
 236:Drivers/STM32F0xx_HAL_Driver/Src/stm32f0xx_hal_exti.c ****   * @retval HAL Status.
 237:Drivers/STM32F0xx_HAL_Driver/Src/stm32f0xx_hal_exti.c ****   */
 238:Drivers/STM32F0xx_HAL_Driver/Src/stm32f0xx_hal_exti.c **** HAL_StatusTypeDef HAL_EXTI_GetConfigLine(EXTI_HandleTypeDef *hexti, EXTI_ConfigTypeDef *pExtiConfig
 239:Drivers/STM32F0xx_HAL_Driver/Src/stm32f0xx_hal_exti.c **** {
 347              		.loc 1 239 1 is_stmt 1 view -0
 348              		.cfi_startproc
 349              		@ args = 0, pretend = 0, frame = 0
 350              		@ frame_needed = 0, uses_anonymous_args = 0
 351              		.loc 1 239 1 is_stmt 0 view .LVU86
 352 0000 70B5     		push	{r4, r5, r6, lr}
 353              	.LCFI1:
 354              		.cfi_def_cfa_offset 16
 355              		.cfi_offset 4, -16
ARM GAS  /tmp/ccgsDOgC.s 			page 12


 356              		.cfi_offset 5, -12
 357              		.cfi_offset 6, -8
 358              		.cfi_offset 14, -4
 359 0002 0500     		movs	r5, r0
 360 0004 0C00     		movs	r4, r1
 240:Drivers/STM32F0xx_HAL_Driver/Src/stm32f0xx_hal_exti.c ****   uint32_t regval;
 361              		.loc 1 240 3 is_stmt 1 view .LVU87
 241:Drivers/STM32F0xx_HAL_Driver/Src/stm32f0xx_hal_exti.c ****   uint32_t linepos;
 362              		.loc 1 241 3 view .LVU88
 242:Drivers/STM32F0xx_HAL_Driver/Src/stm32f0xx_hal_exti.c ****   uint32_t maskline;
 363              		.loc 1 242 3 view .LVU89
 243:Drivers/STM32F0xx_HAL_Driver/Src/stm32f0xx_hal_exti.c **** 
 244:Drivers/STM32F0xx_HAL_Driver/Src/stm32f0xx_hal_exti.c ****   /* Check null pointer */
 245:Drivers/STM32F0xx_HAL_Driver/Src/stm32f0xx_hal_exti.c ****   if ((hexti == NULL) || (pExtiConfig == NULL))
 364              		.loc 1 245 3 view .LVU90
 365              		.loc 1 245 6 is_stmt 0 view .LVU91
 366 0006 0028     		cmp	r0, #0
 367 0008 5FD0     		beq	.L36
 368              		.loc 1 245 23 discriminator 1 view .LVU92
 369 000a 0029     		cmp	r1, #0
 370 000c 5FD0     		beq	.L37
 246:Drivers/STM32F0xx_HAL_Driver/Src/stm32f0xx_hal_exti.c ****   {
 247:Drivers/STM32F0xx_HAL_Driver/Src/stm32f0xx_hal_exti.c ****     return HAL_ERROR;
 248:Drivers/STM32F0xx_HAL_Driver/Src/stm32f0xx_hal_exti.c ****   }
 249:Drivers/STM32F0xx_HAL_Driver/Src/stm32f0xx_hal_exti.c **** 
 250:Drivers/STM32F0xx_HAL_Driver/Src/stm32f0xx_hal_exti.c ****   /* Check the parameter */
 251:Drivers/STM32F0xx_HAL_Driver/Src/stm32f0xx_hal_exti.c ****   assert_param(IS_EXTI_LINE(hexti->Line));
 371              		.loc 1 251 3 is_stmt 1 view .LVU93
 372 000e 0368     		ldr	r3, [r0]
 373 0010 314A     		ldr	r2, .L42
 374 0012 1342     		tst	r3, r2
 375 0014 0ED1     		bne	.L28
 376              		.loc 1 251 3 is_stmt 0 discriminator 2 view .LVU94
 377 0016 E022     		movs	r2, #224
 378 0018 D204     		lsls	r2, r2, #19
 379 001a 1340     		ands	r3, r2
 380 001c 8022     		movs	r2, #128
 381 001e 5204     		lsls	r2, r2, #17
 382 0020 9342     		cmp	r3, r2
 383 0022 0BD0     		beq	.L29
 384              		.loc 1 251 3 discriminator 3 view .LVU95
 385 0024 8022     		movs	r2, #128
 386 0026 9204     		lsls	r2, r2, #18
 387 0028 9342     		cmp	r3, r2
 388 002a 07D0     		beq	.L29
 389              		.loc 1 251 3 discriminator 4 view .LVU96
 390 002c C022     		movs	r2, #192
 391 002e D204     		lsls	r2, r2, #19
 392 0030 9342     		cmp	r3, r2
 393 0032 03D0     		beq	.L29
 394              	.L28:
 395              		.loc 1 251 3 discriminator 5 view .LVU97
 396 0034 FB21     		movs	r1, #251
 397              	.LVL27:
 398              		.loc 1 251 3 discriminator 5 view .LVU98
 399 0036 2948     		ldr	r0, .L42+4
 400              	.LVL28:
ARM GAS  /tmp/ccgsDOgC.s 			page 13


 401              		.loc 1 251 3 discriminator 5 view .LVU99
 402 0038 FFF7FEFF 		bl	assert_failed
 403              	.LVL29:
 404              	.L29:
 252:Drivers/STM32F0xx_HAL_Driver/Src/stm32f0xx_hal_exti.c **** 
 253:Drivers/STM32F0xx_HAL_Driver/Src/stm32f0xx_hal_exti.c ****   /* Store handle line number to configuration structure */
 254:Drivers/STM32F0xx_HAL_Driver/Src/stm32f0xx_hal_exti.c ****   pExtiConfig->Line = hexti->Line;
 405              		.loc 1 254 3 is_stmt 1 view .LVU100
 406              		.loc 1 254 28 is_stmt 0 view .LVU101
 407 003c 2968     		ldr	r1, [r5]
 408              		.loc 1 254 21 view .LVU102
 409 003e 2160     		str	r1, [r4]
 255:Drivers/STM32F0xx_HAL_Driver/Src/stm32f0xx_hal_exti.c **** 
 256:Drivers/STM32F0xx_HAL_Driver/Src/stm32f0xx_hal_exti.c ****   /* Compute line mask */
 257:Drivers/STM32F0xx_HAL_Driver/Src/stm32f0xx_hal_exti.c ****   linepos = (pExtiConfig->Line & EXTI_PIN_MASK);
 410              		.loc 1 257 3 is_stmt 1 view .LVU103
 411              		.loc 1 257 11 is_stmt 0 view .LVU104
 412 0040 1F25     		movs	r5, #31
 413              	.LVL30:
 414              		.loc 1 257 11 view .LVU105
 415 0042 0D40     		ands	r5, r1
 416              	.LVL31:
 258:Drivers/STM32F0xx_HAL_Driver/Src/stm32f0xx_hal_exti.c ****   maskline = (1uL << linepos);
 417              		.loc 1 258 3 is_stmt 1 view .LVU106
 418              		.loc 1 258 12 is_stmt 0 view .LVU107
 419 0044 0122     		movs	r2, #1
 420 0046 AA40     		lsls	r2, r2, r5
 421              	.LVL32:
 259:Drivers/STM32F0xx_HAL_Driver/Src/stm32f0xx_hal_exti.c **** 
 260:Drivers/STM32F0xx_HAL_Driver/Src/stm32f0xx_hal_exti.c ****   /* 1] Get core mode : interrupt */
 261:Drivers/STM32F0xx_HAL_Driver/Src/stm32f0xx_hal_exti.c **** 
 262:Drivers/STM32F0xx_HAL_Driver/Src/stm32f0xx_hal_exti.c ****   /* Check if selected line is enable */
 263:Drivers/STM32F0xx_HAL_Driver/Src/stm32f0xx_hal_exti.c ****   if ((EXTI->IMR & maskline) != 0x00u)
 422              		.loc 1 263 3 is_stmt 1 view .LVU108
 423              		.loc 1 263 12 is_stmt 0 view .LVU109
 424 0048 254B     		ldr	r3, .L42+8
 425 004a 1B68     		ldr	r3, [r3]
 426              		.loc 1 263 6 view .LVU110
 427 004c 1A42     		tst	r2, r3
 428 004e 24D0     		beq	.L30
 264:Drivers/STM32F0xx_HAL_Driver/Src/stm32f0xx_hal_exti.c ****   {
 265:Drivers/STM32F0xx_HAL_Driver/Src/stm32f0xx_hal_exti.c ****     pExtiConfig->Mode = EXTI_MODE_INTERRUPT;
 429              		.loc 1 265 5 is_stmt 1 view .LVU111
 430              		.loc 1 265 23 is_stmt 0 view .LVU112
 431 0050 0123     		movs	r3, #1
 432 0052 6360     		str	r3, [r4, #4]
 433              	.L31:
 266:Drivers/STM32F0xx_HAL_Driver/Src/stm32f0xx_hal_exti.c ****   }
 267:Drivers/STM32F0xx_HAL_Driver/Src/stm32f0xx_hal_exti.c ****   else
 268:Drivers/STM32F0xx_HAL_Driver/Src/stm32f0xx_hal_exti.c ****   {
 269:Drivers/STM32F0xx_HAL_Driver/Src/stm32f0xx_hal_exti.c ****     pExtiConfig->Mode = EXTI_MODE_NONE;
 270:Drivers/STM32F0xx_HAL_Driver/Src/stm32f0xx_hal_exti.c ****   }
 271:Drivers/STM32F0xx_HAL_Driver/Src/stm32f0xx_hal_exti.c **** 
 272:Drivers/STM32F0xx_HAL_Driver/Src/stm32f0xx_hal_exti.c ****   /* Get event mode */
 273:Drivers/STM32F0xx_HAL_Driver/Src/stm32f0xx_hal_exti.c ****   /* Check if selected line is enable */
 274:Drivers/STM32F0xx_HAL_Driver/Src/stm32f0xx_hal_exti.c ****   if ((EXTI->EMR & maskline) != 0x00u)
 434              		.loc 1 274 3 is_stmt 1 view .LVU113
ARM GAS  /tmp/ccgsDOgC.s 			page 14


 435              		.loc 1 274 12 is_stmt 0 view .LVU114
 436 0054 224B     		ldr	r3, .L42+8
 437 0056 5B68     		ldr	r3, [r3, #4]
 438              		.loc 1 274 6 view .LVU115
 439 0058 1A42     		tst	r2, r3
 440 005a 03D0     		beq	.L32
 275:Drivers/STM32F0xx_HAL_Driver/Src/stm32f0xx_hal_exti.c ****   {
 276:Drivers/STM32F0xx_HAL_Driver/Src/stm32f0xx_hal_exti.c ****     pExtiConfig->Mode |= EXTI_MODE_EVENT;
 441              		.loc 1 276 5 is_stmt 1 view .LVU116
 442              		.loc 1 276 23 is_stmt 0 view .LVU117
 443 005c 0223     		movs	r3, #2
 444 005e 6068     		ldr	r0, [r4, #4]
 445 0060 0343     		orrs	r3, r0
 446 0062 6360     		str	r3, [r4, #4]
 447              	.L32:
 277:Drivers/STM32F0xx_HAL_Driver/Src/stm32f0xx_hal_exti.c ****   }
 278:Drivers/STM32F0xx_HAL_Driver/Src/stm32f0xx_hal_exti.c **** 
 279:Drivers/STM32F0xx_HAL_Driver/Src/stm32f0xx_hal_exti.c ****   /* Get default Trigger and GPIOSel configuration */
 280:Drivers/STM32F0xx_HAL_Driver/Src/stm32f0xx_hal_exti.c ****   pExtiConfig->Trigger = EXTI_TRIGGER_NONE;
 448              		.loc 1 280 3 is_stmt 1 view .LVU118
 449              		.loc 1 280 24 is_stmt 0 view .LVU119
 450 0064 0023     		movs	r3, #0
 451 0066 A360     		str	r3, [r4, #8]
 281:Drivers/STM32F0xx_HAL_Driver/Src/stm32f0xx_hal_exti.c ****   pExtiConfig->GPIOSel = 0x00u;
 452              		.loc 1 281 3 is_stmt 1 view .LVU120
 453              		.loc 1 281 24 is_stmt 0 view .LVU121
 454 0068 E360     		str	r3, [r4, #12]
 282:Drivers/STM32F0xx_HAL_Driver/Src/stm32f0xx_hal_exti.c **** 
 283:Drivers/STM32F0xx_HAL_Driver/Src/stm32f0xx_hal_exti.c ****   /* 2] Get trigger for configurable lines : rising */
 284:Drivers/STM32F0xx_HAL_Driver/Src/stm32f0xx_hal_exti.c ****   if ((pExtiConfig->Line & EXTI_CONFIG) != 0x00u)
 455              		.loc 1 284 3 is_stmt 1 view .LVU122
 456              		.loc 1 284 6 is_stmt 0 view .LVU123
 457 006a 8B01     		lsls	r3, r1, #6
 458 006c 31D5     		bpl	.L38
 285:Drivers/STM32F0xx_HAL_Driver/Src/stm32f0xx_hal_exti.c ****   {
 286:Drivers/STM32F0xx_HAL_Driver/Src/stm32f0xx_hal_exti.c ****     /* Check if configuration of selected line is enable */
 287:Drivers/STM32F0xx_HAL_Driver/Src/stm32f0xx_hal_exti.c ****     if ((EXTI->RTSR & maskline) != 0x00u)
 459              		.loc 1 287 5 is_stmt 1 view .LVU124
 460              		.loc 1 287 14 is_stmt 0 view .LVU125
 461 006e 1C4B     		ldr	r3, .L42+8
 462 0070 9B68     		ldr	r3, [r3, #8]
 463              		.loc 1 287 8 view .LVU126
 464 0072 1A42     		tst	r2, r3
 465 0074 01D0     		beq	.L33
 288:Drivers/STM32F0xx_HAL_Driver/Src/stm32f0xx_hal_exti.c ****     {
 289:Drivers/STM32F0xx_HAL_Driver/Src/stm32f0xx_hal_exti.c ****       pExtiConfig->Trigger = EXTI_TRIGGER_RISING;
 466              		.loc 1 289 7 is_stmt 1 view .LVU127
 467              		.loc 1 289 28 is_stmt 0 view .LVU128
 468 0076 0123     		movs	r3, #1
 469 0078 A360     		str	r3, [r4, #8]
 470              	.L33:
 290:Drivers/STM32F0xx_HAL_Driver/Src/stm32f0xx_hal_exti.c ****     }
 291:Drivers/STM32F0xx_HAL_Driver/Src/stm32f0xx_hal_exti.c **** 
 292:Drivers/STM32F0xx_HAL_Driver/Src/stm32f0xx_hal_exti.c ****     /* Get falling configuration */
 293:Drivers/STM32F0xx_HAL_Driver/Src/stm32f0xx_hal_exti.c ****     /* Check if configuration of selected line is enable */
 294:Drivers/STM32F0xx_HAL_Driver/Src/stm32f0xx_hal_exti.c ****     if ((EXTI->FTSR & maskline) != 0x00u)
 471              		.loc 1 294 5 is_stmt 1 view .LVU129
ARM GAS  /tmp/ccgsDOgC.s 			page 15


 472              		.loc 1 294 14 is_stmt 0 view .LVU130
 473 007a 194B     		ldr	r3, .L42+8
 474 007c DB68     		ldr	r3, [r3, #12]
 475              		.loc 1 294 8 view .LVU131
 476 007e 1A42     		tst	r2, r3
 477 0080 03D0     		beq	.L34
 295:Drivers/STM32F0xx_HAL_Driver/Src/stm32f0xx_hal_exti.c ****     {
 296:Drivers/STM32F0xx_HAL_Driver/Src/stm32f0xx_hal_exti.c ****       pExtiConfig->Trigger |= EXTI_TRIGGER_FALLING;
 478              		.loc 1 296 7 is_stmt 1 view .LVU132
 479              		.loc 1 296 28 is_stmt 0 view .LVU133
 480 0082 0223     		movs	r3, #2
 481 0084 A268     		ldr	r2, [r4, #8]
 482              	.LVL33:
 483              		.loc 1 296 28 view .LVU134
 484 0086 1343     		orrs	r3, r2
 485 0088 A360     		str	r3, [r4, #8]
 486              	.L34:
 297:Drivers/STM32F0xx_HAL_Driver/Src/stm32f0xx_hal_exti.c ****     }
 298:Drivers/STM32F0xx_HAL_Driver/Src/stm32f0xx_hal_exti.c **** 
 299:Drivers/STM32F0xx_HAL_Driver/Src/stm32f0xx_hal_exti.c ****     /* Get Gpio port selection for gpio lines */
 300:Drivers/STM32F0xx_HAL_Driver/Src/stm32f0xx_hal_exti.c ****     if ((pExtiConfig->Line & EXTI_GPIO) == EXTI_GPIO)
 487              		.loc 1 300 5 is_stmt 1 view .LVU135
 488              		.loc 1 300 28 is_stmt 0 view .LVU136
 489 008a C023     		movs	r3, #192
 490 008c DB04     		lsls	r3, r3, #19
 491 008e 0A00     		movs	r2, r1
 492 0090 1A40     		ands	r2, r3
 493              		.loc 1 300 8 view .LVU137
 494 0092 9A42     		cmp	r2, r3
 495 0094 04D0     		beq	.L40
 301:Drivers/STM32F0xx_HAL_Driver/Src/stm32f0xx_hal_exti.c ****     {
 302:Drivers/STM32F0xx_HAL_Driver/Src/stm32f0xx_hal_exti.c ****       assert_param(IS_EXTI_GPIO_PIN(linepos));
 303:Drivers/STM32F0xx_HAL_Driver/Src/stm32f0xx_hal_exti.c **** 
 304:Drivers/STM32F0xx_HAL_Driver/Src/stm32f0xx_hal_exti.c ****       regval = SYSCFG->EXTICR[linepos >> 2u];
 305:Drivers/STM32F0xx_HAL_Driver/Src/stm32f0xx_hal_exti.c ****       pExtiConfig->GPIOSel = ((regval << (SYSCFG_EXTICR1_EXTI1_Pos * (3uL - (linepos & 0x03u)))) >>
 306:Drivers/STM32F0xx_HAL_Driver/Src/stm32f0xx_hal_exti.c ****     }
 307:Drivers/STM32F0xx_HAL_Driver/Src/stm32f0xx_hal_exti.c ****   }
 308:Drivers/STM32F0xx_HAL_Driver/Src/stm32f0xx_hal_exti.c **** 
 309:Drivers/STM32F0xx_HAL_Driver/Src/stm32f0xx_hal_exti.c ****   return HAL_OK;
 496              		.loc 1 309 10 view .LVU138
 497 0096 0020     		movs	r0, #0
 498 0098 1CE0     		b	.L27
 499              	.LVL34:
 500              	.L30:
 269:Drivers/STM32F0xx_HAL_Driver/Src/stm32f0xx_hal_exti.c ****   }
 501              		.loc 1 269 5 is_stmt 1 view .LVU139
 269:Drivers/STM32F0xx_HAL_Driver/Src/stm32f0xx_hal_exti.c ****   }
 502              		.loc 1 269 23 is_stmt 0 view .LVU140
 503 009a 0023     		movs	r3, #0
 504 009c 6360     		str	r3, [r4, #4]
 505 009e D9E7     		b	.L31
 506              	.LVL35:
 507              	.L40:
 302:Drivers/STM32F0xx_HAL_Driver/Src/stm32f0xx_hal_exti.c **** 
 508              		.loc 1 302 7 is_stmt 1 view .LVU141
 509 00a0 CB06     		lsls	r3, r1, #27
 510 00a2 0CD4     		bmi	.L41
ARM GAS  /tmp/ccgsDOgC.s 			page 16


 511              	.L35:
 304:Drivers/STM32F0xx_HAL_Driver/Src/stm32f0xx_hal_exti.c ****       pExtiConfig->GPIOSel = ((regval << (SYSCFG_EXTICR1_EXTI1_Pos * (3uL - (linepos & 0x03u)))) >>
 512              		.loc 1 304 7 view .LVU142
 304:Drivers/STM32F0xx_HAL_Driver/Src/stm32f0xx_hal_exti.c ****       pExtiConfig->GPIOSel = ((regval << (SYSCFG_EXTICR1_EXTI1_Pos * (3uL - (linepos & 0x03u)))) >>
 513              		.loc 1 304 39 is_stmt 0 view .LVU143
 514 00a4 AB08     		lsrs	r3, r5, #2
 304:Drivers/STM32F0xx_HAL_Driver/Src/stm32f0xx_hal_exti.c ****       pExtiConfig->GPIOSel = ((regval << (SYSCFG_EXTICR1_EXTI1_Pos * (3uL - (linepos & 0x03u)))) >>
 515              		.loc 1 304 14 view .LVU144
 516 00a6 0233     		adds	r3, r3, #2
 517 00a8 9B00     		lsls	r3, r3, #2
 518 00aa 0E4A     		ldr	r2, .L42+12
 519 00ac 9B58     		ldr	r3, [r3, r2]
 520              	.LVL36:
 305:Drivers/STM32F0xx_HAL_Driver/Src/stm32f0xx_hal_exti.c ****     }
 521              		.loc 1 305 7 is_stmt 1 view .LVU145
 305:Drivers/STM32F0xx_HAL_Driver/Src/stm32f0xx_hal_exti.c ****     }
 522              		.loc 1 305 75 is_stmt 0 view .LVU146
 523 00ae 0322     		movs	r2, #3
 524 00b0 AA43     		bics	r2, r5
 305:Drivers/STM32F0xx_HAL_Driver/Src/stm32f0xx_hal_exti.c ****     }
 525              		.loc 1 305 68 view .LVU147
 526 00b2 9200     		lsls	r2, r2, #2
 305:Drivers/STM32F0xx_HAL_Driver/Src/stm32f0xx_hal_exti.c ****     }
 527              		.loc 1 305 39 view .LVU148
 528 00b4 9340     		lsls	r3, r3, r2
 529              	.LVL37:
 305:Drivers/STM32F0xx_HAL_Driver/Src/stm32f0xx_hal_exti.c ****     }
 530              		.loc 1 305 98 view .LVU149
 531 00b6 1B0E     		lsrs	r3, r3, #24
 305:Drivers/STM32F0xx_HAL_Driver/Src/stm32f0xx_hal_exti.c ****     }
 532              		.loc 1 305 28 view .LVU150
 533 00b8 E360     		str	r3, [r4, #12]
 534              		.loc 1 309 10 view .LVU151
 535 00ba 0020     		movs	r0, #0
 536 00bc 0AE0     		b	.L27
 537              	.L41:
 302:Drivers/STM32F0xx_HAL_Driver/Src/stm32f0xx_hal_exti.c **** 
 538              		.loc 1 302 7 discriminator 1 view .LVU152
 539 00be 9721     		movs	r1, #151
 540 00c0 4900     		lsls	r1, r1, #1
 541 00c2 0648     		ldr	r0, .L42+4
 542 00c4 FFF7FEFF 		bl	assert_failed
 543              	.LVL38:
 544 00c8 ECE7     		b	.L35
 545              	.LVL39:
 546              	.L36:
 247:Drivers/STM32F0xx_HAL_Driver/Src/stm32f0xx_hal_exti.c ****   }
 547              		.loc 1 247 12 view .LVU153
 548 00ca 0120     		movs	r0, #1
 549              	.LVL40:
 247:Drivers/STM32F0xx_HAL_Driver/Src/stm32f0xx_hal_exti.c ****   }
 550              		.loc 1 247 12 view .LVU154
 551 00cc 02E0     		b	.L27
 552              	.LVL41:
 553              	.L37:
 247:Drivers/STM32F0xx_HAL_Driver/Src/stm32f0xx_hal_exti.c ****   }
 554              		.loc 1 247 12 view .LVU155
ARM GAS  /tmp/ccgsDOgC.s 			page 17


 555 00ce 0120     		movs	r0, #1
 556              	.LVL42:
 247:Drivers/STM32F0xx_HAL_Driver/Src/stm32f0xx_hal_exti.c ****   }
 557              		.loc 1 247 12 view .LVU156
 558 00d0 00E0     		b	.L27
 559              	.LVL43:
 560              	.L38:
 561              		.loc 1 309 10 view .LVU157
 562 00d2 0020     		movs	r0, #0
 563              	.LVL44:
 564              	.L27:
 310:Drivers/STM32F0xx_HAL_Driver/Src/stm32f0xx_hal_exti.c **** }
 565              		.loc 1 310 1 view .LVU158
 566              		@ sp needed
 567              	.LVL45:
 568              		.loc 1 310 1 view .LVU159
 569 00d4 70BD     		pop	{r4, r5, r6, pc}
 570              	.L43:
 571 00d6 C046     		.align	2
 572              	.L42:
 573 00d8 E0FFFFF8 		.word	-117440544
 574 00dc 00000000 		.word	.LC0
 575 00e0 00040140 		.word	1073808384
 576 00e4 00000140 		.word	1073807360
 577              		.cfi_endproc
 578              	.LFE41:
 580              		.section	.text.HAL_EXTI_ClearConfigLine,"ax",%progbits
 581              		.align	1
 582              		.global	HAL_EXTI_ClearConfigLine
 583              		.syntax unified
 584              		.code	16
 585              		.thumb_func
 587              	HAL_EXTI_ClearConfigLine:
 588              	.LVL46:
 589              	.LFB42:
 311:Drivers/STM32F0xx_HAL_Driver/Src/stm32f0xx_hal_exti.c **** 
 312:Drivers/STM32F0xx_HAL_Driver/Src/stm32f0xx_hal_exti.c **** /**
 313:Drivers/STM32F0xx_HAL_Driver/Src/stm32f0xx_hal_exti.c ****   * @brief  Clear whole configuration of a dedicated Exti line.
 314:Drivers/STM32F0xx_HAL_Driver/Src/stm32f0xx_hal_exti.c ****   * @param  hexti Exti handle.
 315:Drivers/STM32F0xx_HAL_Driver/Src/stm32f0xx_hal_exti.c ****   * @retval HAL Status.
 316:Drivers/STM32F0xx_HAL_Driver/Src/stm32f0xx_hal_exti.c ****   */
 317:Drivers/STM32F0xx_HAL_Driver/Src/stm32f0xx_hal_exti.c **** HAL_StatusTypeDef HAL_EXTI_ClearConfigLine(EXTI_HandleTypeDef *hexti)
 318:Drivers/STM32F0xx_HAL_Driver/Src/stm32f0xx_hal_exti.c **** {
 590              		.loc 1 318 1 is_stmt 1 view -0
 591              		.cfi_startproc
 592              		@ args = 0, pretend = 0, frame = 0
 593              		@ frame_needed = 0, uses_anonymous_args = 0
 594              		.loc 1 318 1 is_stmt 0 view .LVU161
 595 0000 70B5     		push	{r4, r5, r6, lr}
 596              	.LCFI2:
 597              		.cfi_def_cfa_offset 16
 598              		.cfi_offset 4, -16
 599              		.cfi_offset 5, -12
 600              		.cfi_offset 6, -8
 601              		.cfi_offset 14, -4
 602 0002 041E     		subs	r4, r0, #0
 319:Drivers/STM32F0xx_HAL_Driver/Src/stm32f0xx_hal_exti.c ****   uint32_t regval;
ARM GAS  /tmp/ccgsDOgC.s 			page 18


 603              		.loc 1 319 3 is_stmt 1 view .LVU162
 320:Drivers/STM32F0xx_HAL_Driver/Src/stm32f0xx_hal_exti.c ****   uint32_t linepos;
 604              		.loc 1 320 3 view .LVU163
 321:Drivers/STM32F0xx_HAL_Driver/Src/stm32f0xx_hal_exti.c ****   uint32_t maskline;
 605              		.loc 1 321 3 view .LVU164
 322:Drivers/STM32F0xx_HAL_Driver/Src/stm32f0xx_hal_exti.c **** 
 323:Drivers/STM32F0xx_HAL_Driver/Src/stm32f0xx_hal_exti.c ****   /* Check null pointer */
 324:Drivers/STM32F0xx_HAL_Driver/Src/stm32f0xx_hal_exti.c ****   if (hexti == NULL)
 606              		.loc 1 324 3 view .LVU165
 607              		.loc 1 324 6 is_stmt 0 view .LVU166
 608 0004 4CD0     		beq	.L49
 325:Drivers/STM32F0xx_HAL_Driver/Src/stm32f0xx_hal_exti.c ****   {
 326:Drivers/STM32F0xx_HAL_Driver/Src/stm32f0xx_hal_exti.c ****     return HAL_ERROR;
 327:Drivers/STM32F0xx_HAL_Driver/Src/stm32f0xx_hal_exti.c ****   }
 328:Drivers/STM32F0xx_HAL_Driver/Src/stm32f0xx_hal_exti.c **** 
 329:Drivers/STM32F0xx_HAL_Driver/Src/stm32f0xx_hal_exti.c ****   /* Check the parameter */
 330:Drivers/STM32F0xx_HAL_Driver/Src/stm32f0xx_hal_exti.c ****   assert_param(IS_EXTI_LINE(hexti->Line));
 609              		.loc 1 330 3 is_stmt 1 view .LVU167
 610 0006 0368     		ldr	r3, [r0]
 611 0008 274A     		ldr	r2, .L54
 612 000a 1342     		tst	r3, r2
 613 000c 0ED1     		bne	.L46
 614              		.loc 1 330 3 is_stmt 0 discriminator 2 view .LVU168
 615 000e E022     		movs	r2, #224
 616 0010 D204     		lsls	r2, r2, #19
 617 0012 1340     		ands	r3, r2
 618 0014 8022     		movs	r2, #128
 619 0016 5204     		lsls	r2, r2, #17
 620 0018 9342     		cmp	r3, r2
 621 001a 0CD0     		beq	.L47
 622              		.loc 1 330 3 discriminator 3 view .LVU169
 623 001c 8022     		movs	r2, #128
 624 001e 9204     		lsls	r2, r2, #18
 625 0020 9342     		cmp	r3, r2
 626 0022 08D0     		beq	.L47
 627              		.loc 1 330 3 discriminator 4 view .LVU170
 628 0024 C022     		movs	r2, #192
 629 0026 D204     		lsls	r2, r2, #19
 630 0028 9342     		cmp	r3, r2
 631 002a 04D0     		beq	.L47
 632              	.L46:
 633              		.loc 1 330 3 discriminator 5 view .LVU171
 634 002c A521     		movs	r1, #165
 635 002e 4900     		lsls	r1, r1, #1
 636 0030 1E48     		ldr	r0, .L54+4
 637              	.LVL47:
 638              		.loc 1 330 3 discriminator 5 view .LVU172
 639 0032 FFF7FEFF 		bl	assert_failed
 640              	.LVL48:
 641              	.L47:
 331:Drivers/STM32F0xx_HAL_Driver/Src/stm32f0xx_hal_exti.c **** 
 332:Drivers/STM32F0xx_HAL_Driver/Src/stm32f0xx_hal_exti.c ****   /* compute line mask */
 333:Drivers/STM32F0xx_HAL_Driver/Src/stm32f0xx_hal_exti.c ****   linepos = (hexti->Line & EXTI_PIN_MASK);
 642              		.loc 1 333 3 is_stmt 1 view .LVU173
 643              		.loc 1 333 19 is_stmt 0 view .LVU174
 644 0036 2668     		ldr	r6, [r4]
 645              		.loc 1 333 11 view .LVU175
ARM GAS  /tmp/ccgsDOgC.s 			page 19


 646 0038 1F25     		movs	r5, #31
 647 003a 3540     		ands	r5, r6
 648              	.LVL49:
 334:Drivers/STM32F0xx_HAL_Driver/Src/stm32f0xx_hal_exti.c ****   maskline = (1uL << linepos);
 649              		.loc 1 334 3 is_stmt 1 view .LVU176
 650              		.loc 1 334 12 is_stmt 0 view .LVU177
 651 003c 0123     		movs	r3, #1
 652 003e AB40     		lsls	r3, r3, r5
 653              	.LVL50:
 335:Drivers/STM32F0xx_HAL_Driver/Src/stm32f0xx_hal_exti.c **** 
 336:Drivers/STM32F0xx_HAL_Driver/Src/stm32f0xx_hal_exti.c ****   /* 1] Clear interrupt mode */
 337:Drivers/STM32F0xx_HAL_Driver/Src/stm32f0xx_hal_exti.c ****   EXTI->IMR = (EXTI->IMR & ~maskline);
 654              		.loc 1 337 3 is_stmt 1 view .LVU178
 655              		.loc 1 337 20 is_stmt 0 view .LVU179
 656 0040 1B4A     		ldr	r2, .L54+8
 657 0042 1168     		ldr	r1, [r2]
 658              		.loc 1 337 28 view .LVU180
 659 0044 D843     		mvns	r0, r3
 660              		.loc 1 337 26 view .LVU181
 661 0046 9943     		bics	r1, r3
 662              		.loc 1 337 13 view .LVU182
 663 0048 1160     		str	r1, [r2]
 338:Drivers/STM32F0xx_HAL_Driver/Src/stm32f0xx_hal_exti.c **** 
 339:Drivers/STM32F0xx_HAL_Driver/Src/stm32f0xx_hal_exti.c ****   /* 2] Clear event mode */
 340:Drivers/STM32F0xx_HAL_Driver/Src/stm32f0xx_hal_exti.c ****   EXTI->EMR = (EXTI->EMR & ~maskline);
 664              		.loc 1 340 3 is_stmt 1 view .LVU183
 665              		.loc 1 340 20 is_stmt 0 view .LVU184
 666 004a 5168     		ldr	r1, [r2, #4]
 667              		.loc 1 340 26 view .LVU185
 668 004c 9943     		bics	r1, r3
 669              		.loc 1 340 13 view .LVU186
 670 004e 5160     		str	r1, [r2, #4]
 341:Drivers/STM32F0xx_HAL_Driver/Src/stm32f0xx_hal_exti.c **** 
 342:Drivers/STM32F0xx_HAL_Driver/Src/stm32f0xx_hal_exti.c ****   /* 3] Clear triggers in case of configurable lines */
 343:Drivers/STM32F0xx_HAL_Driver/Src/stm32f0xx_hal_exti.c ****   if ((hexti->Line & EXTI_CONFIG) != 0x00u)
 671              		.loc 1 343 3 is_stmt 1 view .LVU187
 672              		.loc 1 343 6 is_stmt 0 view .LVU188
 673 0050 2368     		ldr	r3, [r4]
 674              	.LVL51:
 675              		.loc 1 343 6 view .LVU189
 676 0052 9B01     		lsls	r3, r3, #6
 677 0054 26D5     		bpl	.L50
 344:Drivers/STM32F0xx_HAL_Driver/Src/stm32f0xx_hal_exti.c ****   {
 345:Drivers/STM32F0xx_HAL_Driver/Src/stm32f0xx_hal_exti.c ****     EXTI->RTSR = (EXTI->RTSR & ~maskline);
 678              		.loc 1 345 5 is_stmt 1 view .LVU190
 679              		.loc 1 345 23 is_stmt 0 view .LVU191
 680 0056 1300     		movs	r3, r2
 681 0058 9268     		ldr	r2, [r2, #8]
 682              		.loc 1 345 30 view .LVU192
 683 005a 0240     		ands	r2, r0
 684              		.loc 1 345 16 view .LVU193
 685 005c 9A60     		str	r2, [r3, #8]
 346:Drivers/STM32F0xx_HAL_Driver/Src/stm32f0xx_hal_exti.c ****     EXTI->FTSR = (EXTI->FTSR & ~maskline);
 686              		.loc 1 346 5 is_stmt 1 view .LVU194
 687              		.loc 1 346 23 is_stmt 0 view .LVU195
 688 005e DA68     		ldr	r2, [r3, #12]
 689              		.loc 1 346 30 view .LVU196
ARM GAS  /tmp/ccgsDOgC.s 			page 20


 690 0060 1040     		ands	r0, r2
 691              	.LVL52:
 692              		.loc 1 346 16 view .LVU197
 693 0062 D860     		str	r0, [r3, #12]
 347:Drivers/STM32F0xx_HAL_Driver/Src/stm32f0xx_hal_exti.c **** 
 348:Drivers/STM32F0xx_HAL_Driver/Src/stm32f0xx_hal_exti.c ****     /* Get Gpio port selection for gpio lines */
 349:Drivers/STM32F0xx_HAL_Driver/Src/stm32f0xx_hal_exti.c ****     if ((hexti->Line & EXTI_GPIO) == EXTI_GPIO)
 694              		.loc 1 349 5 is_stmt 1 view .LVU198
 695              		.loc 1 349 15 is_stmt 0 view .LVU199
 696 0064 2368     		ldr	r3, [r4]
 697              		.loc 1 349 22 view .LVU200
 698 0066 C022     		movs	r2, #192
 699 0068 D204     		lsls	r2, r2, #19
 700 006a 1340     		ands	r3, r2
 701              		.loc 1 349 8 view .LVU201
 702 006c 9342     		cmp	r3, r2
 703 006e 01D0     		beq	.L52
 350:Drivers/STM32F0xx_HAL_Driver/Src/stm32f0xx_hal_exti.c ****     {
 351:Drivers/STM32F0xx_HAL_Driver/Src/stm32f0xx_hal_exti.c ****       assert_param(IS_EXTI_GPIO_PIN(linepos));
 352:Drivers/STM32F0xx_HAL_Driver/Src/stm32f0xx_hal_exti.c **** 
 353:Drivers/STM32F0xx_HAL_Driver/Src/stm32f0xx_hal_exti.c ****       regval = SYSCFG->EXTICR[linepos >> 2u];
 354:Drivers/STM32F0xx_HAL_Driver/Src/stm32f0xx_hal_exti.c ****       regval &= ~(SYSCFG_EXTICR1_EXTI0 << (SYSCFG_EXTICR1_EXTI1_Pos * (linepos & 0x03u)));
 355:Drivers/STM32F0xx_HAL_Driver/Src/stm32f0xx_hal_exti.c ****       SYSCFG->EXTICR[linepos >> 2u] = regval;
 356:Drivers/STM32F0xx_HAL_Driver/Src/stm32f0xx_hal_exti.c ****     }
 357:Drivers/STM32F0xx_HAL_Driver/Src/stm32f0xx_hal_exti.c ****   }
 358:Drivers/STM32F0xx_HAL_Driver/Src/stm32f0xx_hal_exti.c **** 
 359:Drivers/STM32F0xx_HAL_Driver/Src/stm32f0xx_hal_exti.c ****   return HAL_OK;
 704              		.loc 1 359 10 view .LVU202
 705 0070 0020     		movs	r0, #0
 706 0072 18E0     		b	.L45
 707              	.L52:
 351:Drivers/STM32F0xx_HAL_Driver/Src/stm32f0xx_hal_exti.c **** 
 708              		.loc 1 351 7 is_stmt 1 view .LVU203
 709 0074 F306     		lsls	r3, r6, #27
 710 0076 0DD4     		bmi	.L53
 711              	.L48:
 353:Drivers/STM32F0xx_HAL_Driver/Src/stm32f0xx_hal_exti.c ****       regval &= ~(SYSCFG_EXTICR1_EXTI0 << (SYSCFG_EXTICR1_EXTI1_Pos * (linepos & 0x03u)));
 712              		.loc 1 353 7 view .LVU204
 353:Drivers/STM32F0xx_HAL_Driver/Src/stm32f0xx_hal_exti.c ****       regval &= ~(SYSCFG_EXTICR1_EXTI0 << (SYSCFG_EXTICR1_EXTI1_Pos * (linepos & 0x03u)));
 713              		.loc 1 353 39 is_stmt 0 view .LVU205
 714 0078 AD08     		lsrs	r5, r5, #2
 715              	.LVL53:
 353:Drivers/STM32F0xx_HAL_Driver/Src/stm32f0xx_hal_exti.c ****       regval &= ~(SYSCFG_EXTICR1_EXTI0 << (SYSCFG_EXTICR1_EXTI1_Pos * (linepos & 0x03u)));
 716              		.loc 1 353 14 view .LVU206
 717 007a 0E49     		ldr	r1, .L54+12
 718 007c 0235     		adds	r5, r5, #2
 719 007e AD00     		lsls	r5, r5, #2
 720 0080 6A58     		ldr	r2, [r5, r1]
 721              	.LVL54:
 354:Drivers/STM32F0xx_HAL_Driver/Src/stm32f0xx_hal_exti.c ****       SYSCFG->EXTICR[linepos >> 2u] = regval;
 722              		.loc 1 354 7 is_stmt 1 view .LVU207
 354:Drivers/STM32F0xx_HAL_Driver/Src/stm32f0xx_hal_exti.c ****       SYSCFG->EXTICR[linepos >> 2u] = regval;
 723              		.loc 1 354 80 is_stmt 0 view .LVU208
 724 0082 0323     		movs	r3, #3
 725 0084 1E40     		ands	r6, r3
 726              	.LVL55:
 354:Drivers/STM32F0xx_HAL_Driver/Src/stm32f0xx_hal_exti.c ****       SYSCFG->EXTICR[linepos >> 2u] = regval;
ARM GAS  /tmp/ccgsDOgC.s 			page 21


 727              		.loc 1 354 69 view .LVU209
 728 0086 B600     		lsls	r6, r6, #2
 354:Drivers/STM32F0xx_HAL_Driver/Src/stm32f0xx_hal_exti.c ****       SYSCFG->EXTICR[linepos >> 2u] = regval;
 729              		.loc 1 354 40 view .LVU210
 730 0088 0C33     		adds	r3, r3, #12
 731 008a B340     		lsls	r3, r3, r6
 354:Drivers/STM32F0xx_HAL_Driver/Src/stm32f0xx_hal_exti.c ****       SYSCFG->EXTICR[linepos >> 2u] = regval;
 732              		.loc 1 354 14 view .LVU211
 733 008c 9A43     		bics	r2, r3
 734              	.LVL56:
 355:Drivers/STM32F0xx_HAL_Driver/Src/stm32f0xx_hal_exti.c ****     }
 735              		.loc 1 355 7 is_stmt 1 view .LVU212
 355:Drivers/STM32F0xx_HAL_Driver/Src/stm32f0xx_hal_exti.c ****     }
 736              		.loc 1 355 37 is_stmt 0 view .LVU213
 737 008e 6A50     		str	r2, [r5, r1]
 738              		.loc 1 359 10 view .LVU214
 739 0090 0020     		movs	r0, #0
 740 0092 08E0     		b	.L45
 741              	.LVL57:
 742              	.L53:
 351:Drivers/STM32F0xx_HAL_Driver/Src/stm32f0xx_hal_exti.c **** 
 743              		.loc 1 351 7 discriminator 1 view .LVU215
 744 0094 6021     		movs	r1, #96
 745 0096 FF31     		adds	r1, r1, #255
 746 0098 0448     		ldr	r0, .L54+4
 747 009a FFF7FEFF 		bl	assert_failed
 748              	.LVL58:
 749 009e EBE7     		b	.L48
 750              	.LVL59:
 751              	.L49:
 326:Drivers/STM32F0xx_HAL_Driver/Src/stm32f0xx_hal_exti.c ****   }
 752              		.loc 1 326 12 view .LVU216
 753 00a0 0120     		movs	r0, #1
 754              	.LVL60:
 326:Drivers/STM32F0xx_HAL_Driver/Src/stm32f0xx_hal_exti.c ****   }
 755              		.loc 1 326 12 view .LVU217
 756 00a2 00E0     		b	.L45
 757              	.LVL61:
 758              	.L50:
 759              		.loc 1 359 10 view .LVU218
 760 00a4 0020     		movs	r0, #0
 761              	.LVL62:
 762              	.L45:
 360:Drivers/STM32F0xx_HAL_Driver/Src/stm32f0xx_hal_exti.c **** }
 763              		.loc 1 360 1 view .LVU219
 764              		@ sp needed
 765              	.LVL63:
 766              		.loc 1 360 1 view .LVU220
 767 00a6 70BD     		pop	{r4, r5, r6, pc}
 768              	.L55:
 769              		.align	2
 770              	.L54:
 771 00a8 E0FFFFF8 		.word	-117440544
 772 00ac 00000000 		.word	.LC0
 773 00b0 00040140 		.word	1073808384
 774 00b4 00000140 		.word	1073807360
 775              		.cfi_endproc
ARM GAS  /tmp/ccgsDOgC.s 			page 22


 776              	.LFE42:
 778              		.section	.text.HAL_EXTI_RegisterCallback,"ax",%progbits
 779              		.align	1
 780              		.global	HAL_EXTI_RegisterCallback
 781              		.syntax unified
 782              		.code	16
 783              		.thumb_func
 785              	HAL_EXTI_RegisterCallback:
 786              	.LVL64:
 787              	.LFB43:
 361:Drivers/STM32F0xx_HAL_Driver/Src/stm32f0xx_hal_exti.c **** 
 362:Drivers/STM32F0xx_HAL_Driver/Src/stm32f0xx_hal_exti.c **** /**
 363:Drivers/STM32F0xx_HAL_Driver/Src/stm32f0xx_hal_exti.c ****   * @brief  Register callback for a dedicated Exti line.
 364:Drivers/STM32F0xx_HAL_Driver/Src/stm32f0xx_hal_exti.c ****   * @param  hexti Exti handle.
 365:Drivers/STM32F0xx_HAL_Driver/Src/stm32f0xx_hal_exti.c ****   * @param  CallbackID User callback identifier.
 366:Drivers/STM32F0xx_HAL_Driver/Src/stm32f0xx_hal_exti.c ****   *         This parameter can be one of @arg @ref EXTI_CallbackIDTypeDef values.
 367:Drivers/STM32F0xx_HAL_Driver/Src/stm32f0xx_hal_exti.c ****   * @param  pPendingCbfn function pointer to be stored as callback.
 368:Drivers/STM32F0xx_HAL_Driver/Src/stm32f0xx_hal_exti.c ****   * @retval HAL Status.
 369:Drivers/STM32F0xx_HAL_Driver/Src/stm32f0xx_hal_exti.c ****   */
 370:Drivers/STM32F0xx_HAL_Driver/Src/stm32f0xx_hal_exti.c **** HAL_StatusTypeDef HAL_EXTI_RegisterCallback(EXTI_HandleTypeDef *hexti, EXTI_CallbackIDTypeDef Callb
 371:Drivers/STM32F0xx_HAL_Driver/Src/stm32f0xx_hal_exti.c **** {
 788              		.loc 1 371 1 is_stmt 1 view -0
 789              		.cfi_startproc
 790              		@ args = 0, pretend = 0, frame = 0
 791              		@ frame_needed = 0, uses_anonymous_args = 0
 792              		@ link register save eliminated.
 372:Drivers/STM32F0xx_HAL_Driver/Src/stm32f0xx_hal_exti.c ****   HAL_StatusTypeDef status = HAL_OK;
 793              		.loc 1 372 3 view .LVU222
 373:Drivers/STM32F0xx_HAL_Driver/Src/stm32f0xx_hal_exti.c **** 
 374:Drivers/STM32F0xx_HAL_Driver/Src/stm32f0xx_hal_exti.c ****   switch (CallbackID)
 794              		.loc 1 374 3 view .LVU223
 795 0000 0029     		cmp	r1, #0
 796 0002 02D1     		bne	.L58
 375:Drivers/STM32F0xx_HAL_Driver/Src/stm32f0xx_hal_exti.c ****   {
 376:Drivers/STM32F0xx_HAL_Driver/Src/stm32f0xx_hal_exti.c ****     case  HAL_EXTI_COMMON_CB_ID:
 377:Drivers/STM32F0xx_HAL_Driver/Src/stm32f0xx_hal_exti.c ****       hexti->PendingCallback = pPendingCbfn;
 797              		.loc 1 377 7 view .LVU224
 798              		.loc 1 377 30 is_stmt 0 view .LVU225
 799 0004 4260     		str	r2, [r0, #4]
 378:Drivers/STM32F0xx_HAL_Driver/Src/stm32f0xx_hal_exti.c ****       break;
 800              		.loc 1 378 7 is_stmt 1 view .LVU226
 372:Drivers/STM32F0xx_HAL_Driver/Src/stm32f0xx_hal_exti.c **** 
 801              		.loc 1 372 21 is_stmt 0 view .LVU227
 802 0006 0800     		movs	r0, r1
 803              	.LVL65:
 804              	.L57:
 379:Drivers/STM32F0xx_HAL_Driver/Src/stm32f0xx_hal_exti.c **** 
 380:Drivers/STM32F0xx_HAL_Driver/Src/stm32f0xx_hal_exti.c ****     default:
 381:Drivers/STM32F0xx_HAL_Driver/Src/stm32f0xx_hal_exti.c ****       status = HAL_ERROR;
 382:Drivers/STM32F0xx_HAL_Driver/Src/stm32f0xx_hal_exti.c ****       break;
 383:Drivers/STM32F0xx_HAL_Driver/Src/stm32f0xx_hal_exti.c ****   }
 384:Drivers/STM32F0xx_HAL_Driver/Src/stm32f0xx_hal_exti.c **** 
 385:Drivers/STM32F0xx_HAL_Driver/Src/stm32f0xx_hal_exti.c ****   return status;
 805              		.loc 1 385 3 is_stmt 1 view .LVU228
 386:Drivers/STM32F0xx_HAL_Driver/Src/stm32f0xx_hal_exti.c **** }
 806              		.loc 1 386 1 is_stmt 0 view .LVU229
 807              		@ sp needed
ARM GAS  /tmp/ccgsDOgC.s 			page 23


 808 0008 7047     		bx	lr
 809              	.LVL66:
 810              	.L58:
 381:Drivers/STM32F0xx_HAL_Driver/Src/stm32f0xx_hal_exti.c ****       break;
 811              		.loc 1 381 14 view .LVU230
 812 000a 0120     		movs	r0, #1
 813              	.LVL67:
 381:Drivers/STM32F0xx_HAL_Driver/Src/stm32f0xx_hal_exti.c ****       break;
 814              		.loc 1 381 14 view .LVU231
 815 000c FCE7     		b	.L57
 816              		.cfi_endproc
 817              	.LFE43:
 819              		.section	.text.HAL_EXTI_GetHandle,"ax",%progbits
 820              		.align	1
 821              		.global	HAL_EXTI_GetHandle
 822              		.syntax unified
 823              		.code	16
 824              		.thumb_func
 826              	HAL_EXTI_GetHandle:
 827              	.LVL68:
 828              	.LFB44:
 387:Drivers/STM32F0xx_HAL_Driver/Src/stm32f0xx_hal_exti.c **** 
 388:Drivers/STM32F0xx_HAL_Driver/Src/stm32f0xx_hal_exti.c **** /**
 389:Drivers/STM32F0xx_HAL_Driver/Src/stm32f0xx_hal_exti.c ****   * @brief  Store line number as handle private field.
 390:Drivers/STM32F0xx_HAL_Driver/Src/stm32f0xx_hal_exti.c ****   * @param  hexti Exti handle.
 391:Drivers/STM32F0xx_HAL_Driver/Src/stm32f0xx_hal_exti.c ****   * @param  ExtiLine Exti line number.
 392:Drivers/STM32F0xx_HAL_Driver/Src/stm32f0xx_hal_exti.c ****   *         This parameter can be from 0 to @ref EXTI_LINE_NB.
 393:Drivers/STM32F0xx_HAL_Driver/Src/stm32f0xx_hal_exti.c ****   * @retval HAL Status.
 394:Drivers/STM32F0xx_HAL_Driver/Src/stm32f0xx_hal_exti.c ****   */
 395:Drivers/STM32F0xx_HAL_Driver/Src/stm32f0xx_hal_exti.c **** HAL_StatusTypeDef HAL_EXTI_GetHandle(EXTI_HandleTypeDef *hexti, uint32_t ExtiLine)
 396:Drivers/STM32F0xx_HAL_Driver/Src/stm32f0xx_hal_exti.c **** {
 829              		.loc 1 396 1 is_stmt 1 view -0
 830              		.cfi_startproc
 831              		@ args = 0, pretend = 0, frame = 0
 832              		@ frame_needed = 0, uses_anonymous_args = 0
 833              		.loc 1 396 1 is_stmt 0 view .LVU233
 834 0000 70B5     		push	{r4, r5, r6, lr}
 835              	.LCFI3:
 836              		.cfi_def_cfa_offset 16
 837              		.cfi_offset 4, -16
 838              		.cfi_offset 5, -12
 839              		.cfi_offset 6, -8
 840              		.cfi_offset 14, -4
 841 0002 0500     		movs	r5, r0
 842 0004 0C00     		movs	r4, r1
 397:Drivers/STM32F0xx_HAL_Driver/Src/stm32f0xx_hal_exti.c ****   /* Check the parameters */
 398:Drivers/STM32F0xx_HAL_Driver/Src/stm32f0xx_hal_exti.c ****   assert_param(IS_EXTI_LINE(ExtiLine));
 843              		.loc 1 398 3 is_stmt 1 view .LVU234
 844 0006 0F4B     		ldr	r3, .L64
 845 0008 1942     		tst	r1, r3
 846 000a 0ED1     		bne	.L60
 847              		.loc 1 398 3 is_stmt 0 discriminator 2 view .LVU235
 848 000c E023     		movs	r3, #224
 849 000e DB04     		lsls	r3, r3, #19
 850 0010 0B40     		ands	r3, r1
 851 0012 8022     		movs	r2, #128
 852 0014 5204     		lsls	r2, r2, #17
ARM GAS  /tmp/ccgsDOgC.s 			page 24


 853 0016 9342     		cmp	r3, r2
 854 0018 0CD0     		beq	.L61
 855              		.loc 1 398 3 discriminator 3 view .LVU236
 856 001a 8022     		movs	r2, #128
 857 001c 9204     		lsls	r2, r2, #18
 858 001e 9342     		cmp	r3, r2
 859 0020 08D0     		beq	.L61
 860              		.loc 1 398 3 discriminator 4 view .LVU237
 861 0022 C022     		movs	r2, #192
 862 0024 D204     		lsls	r2, r2, #19
 863 0026 9342     		cmp	r3, r2
 864 0028 04D0     		beq	.L61
 865              	.L60:
 866              		.loc 1 398 3 discriminator 5 view .LVU238
 867 002a C721     		movs	r1, #199
 868              	.LVL69:
 869              		.loc 1 398 3 discriminator 5 view .LVU239
 870 002c 4900     		lsls	r1, r1, #1
 871 002e 0648     		ldr	r0, .L64+4
 872              	.LVL70:
 873              		.loc 1 398 3 discriminator 5 view .LVU240
 874 0030 FFF7FEFF 		bl	assert_failed
 875              	.LVL71:
 876              	.L61:
 399:Drivers/STM32F0xx_HAL_Driver/Src/stm32f0xx_hal_exti.c **** 
 400:Drivers/STM32F0xx_HAL_Driver/Src/stm32f0xx_hal_exti.c ****   /* Check null pointer */
 401:Drivers/STM32F0xx_HAL_Driver/Src/stm32f0xx_hal_exti.c ****   if (hexti == NULL)
 877              		.loc 1 401 3 is_stmt 1 view .LVU241
 878              		.loc 1 401 6 is_stmt 0 view .LVU242
 879 0034 002D     		cmp	r5, #0
 880 0036 02D0     		beq	.L63
 402:Drivers/STM32F0xx_HAL_Driver/Src/stm32f0xx_hal_exti.c ****   {
 403:Drivers/STM32F0xx_HAL_Driver/Src/stm32f0xx_hal_exti.c ****     return HAL_ERROR;
 404:Drivers/STM32F0xx_HAL_Driver/Src/stm32f0xx_hal_exti.c ****   }
 405:Drivers/STM32F0xx_HAL_Driver/Src/stm32f0xx_hal_exti.c ****   else
 406:Drivers/STM32F0xx_HAL_Driver/Src/stm32f0xx_hal_exti.c ****   {
 407:Drivers/STM32F0xx_HAL_Driver/Src/stm32f0xx_hal_exti.c ****     /* Store line number as handle private field */
 408:Drivers/STM32F0xx_HAL_Driver/Src/stm32f0xx_hal_exti.c ****     hexti->Line = ExtiLine;
 881              		.loc 1 408 5 is_stmt 1 view .LVU243
 882              		.loc 1 408 17 is_stmt 0 view .LVU244
 883 0038 2C60     		str	r4, [r5]
 409:Drivers/STM32F0xx_HAL_Driver/Src/stm32f0xx_hal_exti.c **** 
 410:Drivers/STM32F0xx_HAL_Driver/Src/stm32f0xx_hal_exti.c ****     return HAL_OK;
 884              		.loc 1 410 5 is_stmt 1 view .LVU245
 885              		.loc 1 410 12 is_stmt 0 view .LVU246
 886 003a 0020     		movs	r0, #0
 887              	.L62:
 411:Drivers/STM32F0xx_HAL_Driver/Src/stm32f0xx_hal_exti.c ****   }
 412:Drivers/STM32F0xx_HAL_Driver/Src/stm32f0xx_hal_exti.c **** }
 888              		.loc 1 412 1 view .LVU247
 889              		@ sp needed
 890              	.LVL72:
 891              	.LVL73:
 892              		.loc 1 412 1 view .LVU248
 893 003c 70BD     		pop	{r4, r5, r6, pc}
 894              	.LVL74:
 895              	.L63:
ARM GAS  /tmp/ccgsDOgC.s 			page 25


 403:Drivers/STM32F0xx_HAL_Driver/Src/stm32f0xx_hal_exti.c ****   }
 896              		.loc 1 403 12 view .LVU249
 897 003e 0120     		movs	r0, #1
 898 0040 FCE7     		b	.L62
 899              	.L65:
 900 0042 C046     		.align	2
 901              	.L64:
 902 0044 E0FFFFF8 		.word	-117440544
 903 0048 00000000 		.word	.LC0
 904              		.cfi_endproc
 905              	.LFE44:
 907              		.section	.text.HAL_EXTI_IRQHandler,"ax",%progbits
 908              		.align	1
 909              		.global	HAL_EXTI_IRQHandler
 910              		.syntax unified
 911              		.code	16
 912              		.thumb_func
 914              	HAL_EXTI_IRQHandler:
 915              	.LVL75:
 916              	.LFB45:
 413:Drivers/STM32F0xx_HAL_Driver/Src/stm32f0xx_hal_exti.c **** 
 414:Drivers/STM32F0xx_HAL_Driver/Src/stm32f0xx_hal_exti.c **** /**
 415:Drivers/STM32F0xx_HAL_Driver/Src/stm32f0xx_hal_exti.c ****   * @}
 416:Drivers/STM32F0xx_HAL_Driver/Src/stm32f0xx_hal_exti.c ****   */
 417:Drivers/STM32F0xx_HAL_Driver/Src/stm32f0xx_hal_exti.c **** 
 418:Drivers/STM32F0xx_HAL_Driver/Src/stm32f0xx_hal_exti.c **** /** @addtogroup EXTI_Exported_Functions_Group2
 419:Drivers/STM32F0xx_HAL_Driver/Src/stm32f0xx_hal_exti.c ****   *  @brief EXTI IO functions.
 420:Drivers/STM32F0xx_HAL_Driver/Src/stm32f0xx_hal_exti.c ****   *
 421:Drivers/STM32F0xx_HAL_Driver/Src/stm32f0xx_hal_exti.c **** @verbatim
 422:Drivers/STM32F0xx_HAL_Driver/Src/stm32f0xx_hal_exti.c ****  ===============================================================================
 423:Drivers/STM32F0xx_HAL_Driver/Src/stm32f0xx_hal_exti.c ****                        ##### IO operation functions #####
 424:Drivers/STM32F0xx_HAL_Driver/Src/stm32f0xx_hal_exti.c ****  ===============================================================================
 425:Drivers/STM32F0xx_HAL_Driver/Src/stm32f0xx_hal_exti.c **** 
 426:Drivers/STM32F0xx_HAL_Driver/Src/stm32f0xx_hal_exti.c **** @endverbatim
 427:Drivers/STM32F0xx_HAL_Driver/Src/stm32f0xx_hal_exti.c ****   * @{
 428:Drivers/STM32F0xx_HAL_Driver/Src/stm32f0xx_hal_exti.c ****   */
 429:Drivers/STM32F0xx_HAL_Driver/Src/stm32f0xx_hal_exti.c **** 
 430:Drivers/STM32F0xx_HAL_Driver/Src/stm32f0xx_hal_exti.c **** /**
 431:Drivers/STM32F0xx_HAL_Driver/Src/stm32f0xx_hal_exti.c ****   * @brief  Handle EXTI interrupt request.
 432:Drivers/STM32F0xx_HAL_Driver/Src/stm32f0xx_hal_exti.c ****   * @param  hexti Exti handle.
 433:Drivers/STM32F0xx_HAL_Driver/Src/stm32f0xx_hal_exti.c ****   * @retval none.
 434:Drivers/STM32F0xx_HAL_Driver/Src/stm32f0xx_hal_exti.c ****   */
 435:Drivers/STM32F0xx_HAL_Driver/Src/stm32f0xx_hal_exti.c **** void HAL_EXTI_IRQHandler(EXTI_HandleTypeDef *hexti)
 436:Drivers/STM32F0xx_HAL_Driver/Src/stm32f0xx_hal_exti.c **** {
 917              		.loc 1 436 1 is_stmt 1 view -0
 918              		.cfi_startproc
 919              		@ args = 0, pretend = 0, frame = 0
 920              		@ frame_needed = 0, uses_anonymous_args = 0
 921              		.loc 1 436 1 is_stmt 0 view .LVU251
 922 0000 10B5     		push	{r4, lr}
 923              	.LCFI4:
 924              		.cfi_def_cfa_offset 8
 925              		.cfi_offset 4, -8
 926              		.cfi_offset 14, -4
 437:Drivers/STM32F0xx_HAL_Driver/Src/stm32f0xx_hal_exti.c ****   uint32_t regval;
 927              		.loc 1 437 3 is_stmt 1 view .LVU252
 438:Drivers/STM32F0xx_HAL_Driver/Src/stm32f0xx_hal_exti.c ****   uint32_t maskline;
ARM GAS  /tmp/ccgsDOgC.s 			page 26


 928              		.loc 1 438 3 view .LVU253
 439:Drivers/STM32F0xx_HAL_Driver/Src/stm32f0xx_hal_exti.c **** 
 440:Drivers/STM32F0xx_HAL_Driver/Src/stm32f0xx_hal_exti.c ****   /* Compute line mask */
 441:Drivers/STM32F0xx_HAL_Driver/Src/stm32f0xx_hal_exti.c ****   maskline = (1uL << (hexti->Line & EXTI_PIN_MASK));
 929              		.loc 1 441 3 view .LVU254
 930              		.loc 1 441 35 is_stmt 0 view .LVU255
 931 0002 1F22     		movs	r2, #31
 932 0004 0368     		ldr	r3, [r0]
 933 0006 1A40     		ands	r2, r3
 934              		.loc 1 441 12 view .LVU256
 935 0008 0123     		movs	r3, #1
 936 000a 9340     		lsls	r3, r3, r2
 937              	.LVL76:
 442:Drivers/STM32F0xx_HAL_Driver/Src/stm32f0xx_hal_exti.c **** 
 443:Drivers/STM32F0xx_HAL_Driver/Src/stm32f0xx_hal_exti.c ****   /* Get pending bit  */
 444:Drivers/STM32F0xx_HAL_Driver/Src/stm32f0xx_hal_exti.c ****   regval = (EXTI->PR & maskline);
 938              		.loc 1 444 3 is_stmt 1 view .LVU257
 939              		.loc 1 444 17 is_stmt 0 view .LVU258
 940 000c 054A     		ldr	r2, .L68
 941 000e 5269     		ldr	r2, [r2, #20]
 942              	.LVL77:
 445:Drivers/STM32F0xx_HAL_Driver/Src/stm32f0xx_hal_exti.c ****   if (regval != 0x00u)
 943              		.loc 1 445 3 is_stmt 1 view .LVU259
 944              		.loc 1 445 6 is_stmt 0 view .LVU260
 945 0010 1342     		tst	r3, r2
 946 0012 05D0     		beq	.L66
 446:Drivers/STM32F0xx_HAL_Driver/Src/stm32f0xx_hal_exti.c ****   {
 447:Drivers/STM32F0xx_HAL_Driver/Src/stm32f0xx_hal_exti.c ****     /* Clear pending bit */
 448:Drivers/STM32F0xx_HAL_Driver/Src/stm32f0xx_hal_exti.c ****     EXTI->PR = maskline;
 947              		.loc 1 448 5 is_stmt 1 view .LVU261
 948              		.loc 1 448 14 is_stmt 0 view .LVU262
 949 0014 034A     		ldr	r2, .L68
 950              	.LVL78:
 951              		.loc 1 448 14 view .LVU263
 952 0016 5361     		str	r3, [r2, #20]
 449:Drivers/STM32F0xx_HAL_Driver/Src/stm32f0xx_hal_exti.c **** 
 450:Drivers/STM32F0xx_HAL_Driver/Src/stm32f0xx_hal_exti.c ****     /* Call callback */
 451:Drivers/STM32F0xx_HAL_Driver/Src/stm32f0xx_hal_exti.c ****     if (hexti->PendingCallback != NULL)
 953              		.loc 1 451 5 is_stmt 1 view .LVU264
 954              		.loc 1 451 14 is_stmt 0 view .LVU265
 955 0018 4368     		ldr	r3, [r0, #4]
 956              	.LVL79:
 957              		.loc 1 451 8 view .LVU266
 958 001a 002B     		cmp	r3, #0
 959 001c 00D0     		beq	.L66
 452:Drivers/STM32F0xx_HAL_Driver/Src/stm32f0xx_hal_exti.c ****     {
 453:Drivers/STM32F0xx_HAL_Driver/Src/stm32f0xx_hal_exti.c ****       hexti->PendingCallback();
 960              		.loc 1 453 7 is_stmt 1 view .LVU267
 961 001e 9847     		blx	r3
 962              	.LVL80:
 963              	.L66:
 454:Drivers/STM32F0xx_HAL_Driver/Src/stm32f0xx_hal_exti.c ****     }
 455:Drivers/STM32F0xx_HAL_Driver/Src/stm32f0xx_hal_exti.c ****   }
 456:Drivers/STM32F0xx_HAL_Driver/Src/stm32f0xx_hal_exti.c **** }
 964              		.loc 1 456 1 is_stmt 0 view .LVU268
 965              		@ sp needed
 966 0020 10BD     		pop	{r4, pc}
ARM GAS  /tmp/ccgsDOgC.s 			page 27


 967              	.L69:
 968 0022 C046     		.align	2
 969              	.L68:
 970 0024 00040140 		.word	1073808384
 971              		.cfi_endproc
 972              	.LFE45:
 974              		.section	.text.HAL_EXTI_GetPending,"ax",%progbits
 975              		.align	1
 976              		.global	HAL_EXTI_GetPending
 977              		.syntax unified
 978              		.code	16
 979              		.thumb_func
 981              	HAL_EXTI_GetPending:
 982              	.LVL81:
 983              	.LFB46:
 457:Drivers/STM32F0xx_HAL_Driver/Src/stm32f0xx_hal_exti.c **** 
 458:Drivers/STM32F0xx_HAL_Driver/Src/stm32f0xx_hal_exti.c **** /**
 459:Drivers/STM32F0xx_HAL_Driver/Src/stm32f0xx_hal_exti.c ****   * @brief  Get interrupt pending bit of a dedicated line.
 460:Drivers/STM32F0xx_HAL_Driver/Src/stm32f0xx_hal_exti.c ****   * @param  hexti Exti handle.
 461:Drivers/STM32F0xx_HAL_Driver/Src/stm32f0xx_hal_exti.c ****   * @param  Edge Specify which pending edge as to be checked.
 462:Drivers/STM32F0xx_HAL_Driver/Src/stm32f0xx_hal_exti.c ****   *         This parameter can be one of the following values:
 463:Drivers/STM32F0xx_HAL_Driver/Src/stm32f0xx_hal_exti.c ****   *           @arg @ref EXTI_TRIGGER_RISING_FALLING
 464:Drivers/STM32F0xx_HAL_Driver/Src/stm32f0xx_hal_exti.c ****   *         This parameter is kept for compatibility with other series.
 465:Drivers/STM32F0xx_HAL_Driver/Src/stm32f0xx_hal_exti.c ****   * @retval 1 if interrupt is pending else 0.
 466:Drivers/STM32F0xx_HAL_Driver/Src/stm32f0xx_hal_exti.c ****   */
 467:Drivers/STM32F0xx_HAL_Driver/Src/stm32f0xx_hal_exti.c **** uint32_t HAL_EXTI_GetPending(EXTI_HandleTypeDef *hexti, uint32_t Edge)
 468:Drivers/STM32F0xx_HAL_Driver/Src/stm32f0xx_hal_exti.c **** {
 984              		.loc 1 468 1 is_stmt 1 view -0
 985              		.cfi_startproc
 986              		@ args = 0, pretend = 0, frame = 0
 987              		@ frame_needed = 0, uses_anonymous_args = 0
 988              		.loc 1 468 1 is_stmt 0 view .LVU270
 989 0000 70B5     		push	{r4, r5, r6, lr}
 990              	.LCFI5:
 991              		.cfi_def_cfa_offset 16
 992              		.cfi_offset 4, -16
 993              		.cfi_offset 5, -12
 994              		.cfi_offset 6, -8
 995              		.cfi_offset 14, -4
 996 0002 0400     		movs	r4, r0
 997 0004 0D00     		movs	r5, r1
 469:Drivers/STM32F0xx_HAL_Driver/Src/stm32f0xx_hal_exti.c ****   uint32_t regval;
 998              		.loc 1 469 3 is_stmt 1 view .LVU271
 470:Drivers/STM32F0xx_HAL_Driver/Src/stm32f0xx_hal_exti.c ****   uint32_t linepos;
 999              		.loc 1 470 3 view .LVU272
 471:Drivers/STM32F0xx_HAL_Driver/Src/stm32f0xx_hal_exti.c ****   uint32_t maskline;
 1000              		.loc 1 471 3 view .LVU273
 472:Drivers/STM32F0xx_HAL_Driver/Src/stm32f0xx_hal_exti.c **** 
 473:Drivers/STM32F0xx_HAL_Driver/Src/stm32f0xx_hal_exti.c ****   /* Check parameters */
 474:Drivers/STM32F0xx_HAL_Driver/Src/stm32f0xx_hal_exti.c ****   assert_param(IS_EXTI_LINE(hexti->Line));
 1001              		.loc 1 474 3 view .LVU274
 1002 0006 0368     		ldr	r3, [r0]
 1003 0008 184A     		ldr	r2, .L77
 1004 000a 1342     		tst	r3, r2
 1005 000c 0ED1     		bne	.L71
 1006              		.loc 1 474 3 is_stmt 0 discriminator 2 view .LVU275
 1007 000e E022     		movs	r2, #224
ARM GAS  /tmp/ccgsDOgC.s 			page 28


 1008 0010 D204     		lsls	r2, r2, #19
 1009 0012 1340     		ands	r3, r2
 1010 0014 8022     		movs	r2, #128
 1011 0016 5204     		lsls	r2, r2, #17
 1012 0018 9342     		cmp	r3, r2
 1013 001a 0CD0     		beq	.L72
 1014              		.loc 1 474 3 discriminator 3 view .LVU276
 1015 001c 8022     		movs	r2, #128
 1016 001e 9204     		lsls	r2, r2, #18
 1017 0020 9342     		cmp	r3, r2
 1018 0022 08D0     		beq	.L72
 1019              		.loc 1 474 3 discriminator 4 view .LVU277
 1020 0024 C022     		movs	r2, #192
 1021 0026 D204     		lsls	r2, r2, #19
 1022 0028 9342     		cmp	r3, r2
 1023 002a 04D0     		beq	.L72
 1024              	.L71:
 1025              		.loc 1 474 3 discriminator 5 view .LVU278
 1026 002c ED21     		movs	r1, #237
 1027              	.LVL82:
 1028              		.loc 1 474 3 discriminator 5 view .LVU279
 1029 002e 4900     		lsls	r1, r1, #1
 1030 0030 0F48     		ldr	r0, .L77+4
 1031              	.LVL83:
 1032              		.loc 1 474 3 discriminator 5 view .LVU280
 1033 0032 FFF7FEFF 		bl	assert_failed
 1034              	.LVL84:
 1035              	.L72:
 475:Drivers/STM32F0xx_HAL_Driver/Src/stm32f0xx_hal_exti.c ****   assert_param(IS_EXTI_CONFIG_LINE(hexti->Line));
 1036              		.loc 1 475 3 is_stmt 1 view .LVU281
 1037 0036 2368     		ldr	r3, [r4]
 1038 0038 9B01     		lsls	r3, r3, #6
 1039 003a 0BD5     		bpl	.L75
 1040              	.L73:
 476:Drivers/STM32F0xx_HAL_Driver/Src/stm32f0xx_hal_exti.c ****   assert_param(IS_EXTI_PENDING_EDGE(Edge));
 1041              		.loc 1 476 3 view .LVU282
 1042 003c 032D     		cmp	r5, #3
 1043 003e 0FD1     		bne	.L76
 1044              	.L74:
 477:Drivers/STM32F0xx_HAL_Driver/Src/stm32f0xx_hal_exti.c **** 
 478:Drivers/STM32F0xx_HAL_Driver/Src/stm32f0xx_hal_exti.c ****   /* Compute line mask */
 479:Drivers/STM32F0xx_HAL_Driver/Src/stm32f0xx_hal_exti.c ****   linepos = (hexti->Line & EXTI_PIN_MASK);
 1045              		.loc 1 479 3 view .LVU283
 1046              		.loc 1 479 19 is_stmt 0 view .LVU284
 1047 0040 2268     		ldr	r2, [r4]
 1048              		.loc 1 479 11 view .LVU285
 1049 0042 1F23     		movs	r3, #31
 1050 0044 1340     		ands	r3, r2
 1051              	.LVL85:
 480:Drivers/STM32F0xx_HAL_Driver/Src/stm32f0xx_hal_exti.c ****   maskline = (1uL << linepos);
 1052              		.loc 1 480 3 is_stmt 1 view .LVU286
 1053              		.loc 1 480 12 is_stmt 0 view .LVU287
 1054 0046 0120     		movs	r0, #1
 1055 0048 9840     		lsls	r0, r0, r3
 1056              	.LVL86:
 481:Drivers/STM32F0xx_HAL_Driver/Src/stm32f0xx_hal_exti.c **** 
 482:Drivers/STM32F0xx_HAL_Driver/Src/stm32f0xx_hal_exti.c ****   /* return 1 if bit is set else 0 */
ARM GAS  /tmp/ccgsDOgC.s 			page 29


 483:Drivers/STM32F0xx_HAL_Driver/Src/stm32f0xx_hal_exti.c ****   regval = ((EXTI->PR & maskline) >> linepos);
 1057              		.loc 1 483 3 is_stmt 1 view .LVU288
 1058              		.loc 1 483 18 is_stmt 0 view .LVU289
 1059 004a 0A4A     		ldr	r2, .L77+8
 1060 004c 5269     		ldr	r2, [r2, #20]
 1061              		.loc 1 483 23 view .LVU290
 1062 004e 1040     		ands	r0, r2
 1063              	.LVL87:
 1064              		.loc 1 483 10 view .LVU291
 1065 0050 D840     		lsrs	r0, r0, r3
 1066              	.LVL88:
 484:Drivers/STM32F0xx_HAL_Driver/Src/stm32f0xx_hal_exti.c ****   return regval;
 1067              		.loc 1 484 3 is_stmt 1 view .LVU292
 485:Drivers/STM32F0xx_HAL_Driver/Src/stm32f0xx_hal_exti.c **** }
 1068              		.loc 1 485 1 is_stmt 0 view .LVU293
 1069              		@ sp needed
 1070              	.LVL89:
 1071              	.LVL90:
 1072              		.loc 1 485 1 view .LVU294
 1073 0052 70BD     		pop	{r4, r5, r6, pc}
 1074              	.LVL91:
 1075              	.L75:
 475:Drivers/STM32F0xx_HAL_Driver/Src/stm32f0xx_hal_exti.c ****   assert_param(IS_EXTI_PENDING_EDGE(Edge));
 1076              		.loc 1 475 3 discriminator 1 view .LVU295
 1077 0054 DC21     		movs	r1, #220
 1078 0056 FF31     		adds	r1, r1, #255
 1079 0058 0548     		ldr	r0, .L77+4
 1080 005a FFF7FEFF 		bl	assert_failed
 1081              	.LVL92:
 1082 005e EDE7     		b	.L73
 1083              	.L76:
 476:Drivers/STM32F0xx_HAL_Driver/Src/stm32f0xx_hal_exti.c **** 
 1084              		.loc 1 476 3 discriminator 1 view .LVU296
 1085 0060 EE21     		movs	r1, #238
 1086 0062 4900     		lsls	r1, r1, #1
 1087 0064 0248     		ldr	r0, .L77+4
 1088 0066 FFF7FEFF 		bl	assert_failed
 1089              	.LVL93:
 1090 006a E9E7     		b	.L74
 1091              	.L78:
 1092              		.align	2
 1093              	.L77:
 1094 006c E0FFFFF8 		.word	-117440544
 1095 0070 00000000 		.word	.LC0
 1096 0074 00040140 		.word	1073808384
 1097              		.cfi_endproc
 1098              	.LFE46:
 1100              		.section	.text.HAL_EXTI_ClearPending,"ax",%progbits
 1101              		.align	1
 1102              		.global	HAL_EXTI_ClearPending
 1103              		.syntax unified
 1104              		.code	16
 1105              		.thumb_func
 1107              	HAL_EXTI_ClearPending:
 1108              	.LVL94:
 1109              	.LFB47:
 486:Drivers/STM32F0xx_HAL_Driver/Src/stm32f0xx_hal_exti.c **** 
ARM GAS  /tmp/ccgsDOgC.s 			page 30


 487:Drivers/STM32F0xx_HAL_Driver/Src/stm32f0xx_hal_exti.c **** /**
 488:Drivers/STM32F0xx_HAL_Driver/Src/stm32f0xx_hal_exti.c ****   * @brief  Clear interrupt pending bit of a dedicated line.
 489:Drivers/STM32F0xx_HAL_Driver/Src/stm32f0xx_hal_exti.c ****   * @param  hexti Exti handle.
 490:Drivers/STM32F0xx_HAL_Driver/Src/stm32f0xx_hal_exti.c ****   * @param  Edge Specify which pending edge as to be clear.
 491:Drivers/STM32F0xx_HAL_Driver/Src/stm32f0xx_hal_exti.c ****   *         This parameter can be one of the following values:
 492:Drivers/STM32F0xx_HAL_Driver/Src/stm32f0xx_hal_exti.c ****   *           @arg @ref EXTI_TRIGGER_RISING_FALLING
 493:Drivers/STM32F0xx_HAL_Driver/Src/stm32f0xx_hal_exti.c ****   *         This parameter is kept for compatibility with other series.
 494:Drivers/STM32F0xx_HAL_Driver/Src/stm32f0xx_hal_exti.c ****   * @retval None.
 495:Drivers/STM32F0xx_HAL_Driver/Src/stm32f0xx_hal_exti.c ****   */
 496:Drivers/STM32F0xx_HAL_Driver/Src/stm32f0xx_hal_exti.c **** void HAL_EXTI_ClearPending(EXTI_HandleTypeDef *hexti, uint32_t Edge)
 497:Drivers/STM32F0xx_HAL_Driver/Src/stm32f0xx_hal_exti.c **** {
 1110              		.loc 1 497 1 is_stmt 1 view -0
 1111              		.cfi_startproc
 1112              		@ args = 0, pretend = 0, frame = 0
 1113              		@ frame_needed = 0, uses_anonymous_args = 0
 1114              		.loc 1 497 1 is_stmt 0 view .LVU298
 1115 0000 70B5     		push	{r4, r5, r6, lr}
 1116              	.LCFI6:
 1117              		.cfi_def_cfa_offset 16
 1118              		.cfi_offset 4, -16
 1119              		.cfi_offset 5, -12
 1120              		.cfi_offset 6, -8
 1121              		.cfi_offset 14, -4
 1122 0002 0400     		movs	r4, r0
 1123 0004 0D00     		movs	r5, r1
 498:Drivers/STM32F0xx_HAL_Driver/Src/stm32f0xx_hal_exti.c ****   uint32_t maskline;
 1124              		.loc 1 498 3 is_stmt 1 view .LVU299
 499:Drivers/STM32F0xx_HAL_Driver/Src/stm32f0xx_hal_exti.c **** 
 500:Drivers/STM32F0xx_HAL_Driver/Src/stm32f0xx_hal_exti.c ****   /* Check parameters */
 501:Drivers/STM32F0xx_HAL_Driver/Src/stm32f0xx_hal_exti.c ****   assert_param(IS_EXTI_LINE(hexti->Line));
 1125              		.loc 1 501 3 view .LVU300
 1126 0006 0368     		ldr	r3, [r0]
 1127 0008 174A     		ldr	r2, .L86
 1128 000a 1342     		tst	r3, r2
 1129 000c 0ED1     		bne	.L80
 1130              		.loc 1 501 3 is_stmt 0 discriminator 2 view .LVU301
 1131 000e E022     		movs	r2, #224
 1132 0010 D204     		lsls	r2, r2, #19
 1133 0012 1340     		ands	r3, r2
 1134 0014 8022     		movs	r2, #128
 1135 0016 5204     		lsls	r2, r2, #17
 1136 0018 9342     		cmp	r3, r2
 1137 001a 0CD0     		beq	.L81
 1138              		.loc 1 501 3 discriminator 3 view .LVU302
 1139 001c 8022     		movs	r2, #128
 1140 001e 9204     		lsls	r2, r2, #18
 1141 0020 9342     		cmp	r3, r2
 1142 0022 08D0     		beq	.L81
 1143              		.loc 1 501 3 discriminator 4 view .LVU303
 1144 0024 C022     		movs	r2, #192
 1145 0026 D204     		lsls	r2, r2, #19
 1146 0028 9342     		cmp	r3, r2
 1147 002a 04D0     		beq	.L81
 1148              	.L80:
 1149              		.loc 1 501 3 discriminator 5 view .LVU304
 1150 002c F621     		movs	r1, #246
 1151              	.LVL95:
ARM GAS  /tmp/ccgsDOgC.s 			page 31


 1152              		.loc 1 501 3 discriminator 5 view .LVU305
 1153 002e FF31     		adds	r1, r1, #255
 1154 0030 0E48     		ldr	r0, .L86+4
 1155              	.LVL96:
 1156              		.loc 1 501 3 discriminator 5 view .LVU306
 1157 0032 FFF7FEFF 		bl	assert_failed
 1158              	.LVL97:
 1159              	.L81:
 502:Drivers/STM32F0xx_HAL_Driver/Src/stm32f0xx_hal_exti.c ****   assert_param(IS_EXTI_CONFIG_LINE(hexti->Line));
 1160              		.loc 1 502 3 is_stmt 1 view .LVU307
 1161 0036 2368     		ldr	r3, [r4]
 1162 0038 9B01     		lsls	r3, r3, #6
 1163 003a 09D5     		bpl	.L84
 1164              	.L82:
 503:Drivers/STM32F0xx_HAL_Driver/Src/stm32f0xx_hal_exti.c ****   assert_param(IS_EXTI_PENDING_EDGE(Edge));
 1165              		.loc 1 503 3 view .LVU308
 1166 003c 032D     		cmp	r5, #3
 1167 003e 0DD1     		bne	.L85
 1168              	.L83:
 504:Drivers/STM32F0xx_HAL_Driver/Src/stm32f0xx_hal_exti.c **** 
 505:Drivers/STM32F0xx_HAL_Driver/Src/stm32f0xx_hal_exti.c ****   /* Compute line mask */
 506:Drivers/STM32F0xx_HAL_Driver/Src/stm32f0xx_hal_exti.c ****   maskline = (1uL << (hexti->Line & EXTI_PIN_MASK));
 1169              		.loc 1 506 3 view .LVU309
 1170              		.loc 1 506 28 is_stmt 0 view .LVU310
 1171 0040 2368     		ldr	r3, [r4]
 1172              		.loc 1 506 35 view .LVU311
 1173 0042 1F22     		movs	r2, #31
 1174 0044 1A40     		ands	r2, r3
 1175              		.loc 1 506 12 view .LVU312
 1176 0046 0123     		movs	r3, #1
 1177 0048 9340     		lsls	r3, r3, r2
 1178              	.LVL98:
 507:Drivers/STM32F0xx_HAL_Driver/Src/stm32f0xx_hal_exti.c **** 
 508:Drivers/STM32F0xx_HAL_Driver/Src/stm32f0xx_hal_exti.c ****   /* Clear Pending bit */
 509:Drivers/STM32F0xx_HAL_Driver/Src/stm32f0xx_hal_exti.c ****   EXTI->PR =  maskline;
 1179              		.loc 1 509 3 is_stmt 1 view .LVU313
 1180              		.loc 1 509 12 is_stmt 0 view .LVU314
 1181 004a 094A     		ldr	r2, .L86+8
 1182 004c 5361     		str	r3, [r2, #20]
 510:Drivers/STM32F0xx_HAL_Driver/Src/stm32f0xx_hal_exti.c **** }
 1183              		.loc 1 510 1 view .LVU315
 1184              		@ sp needed
 1185              	.LVL99:
 1186              	.LVL100:
 1187              		.loc 1 510 1 view .LVU316
 1188 004e 70BD     		pop	{r4, r5, r6, pc}
 1189              	.LVL101:
 1190              	.L84:
 502:Drivers/STM32F0xx_HAL_Driver/Src/stm32f0xx_hal_exti.c ****   assert_param(IS_EXTI_PENDING_EDGE(Edge));
 1191              		.loc 1 502 3 discriminator 1 view .LVU317
 1192 0050 FB21     		movs	r1, #251
 1193 0052 4900     		lsls	r1, r1, #1
 1194 0054 0548     		ldr	r0, .L86+4
 1195 0056 FFF7FEFF 		bl	assert_failed
 1196              	.LVL102:
 1197 005a EFE7     		b	.L82
 1198              	.L85:
ARM GAS  /tmp/ccgsDOgC.s 			page 32


 503:Drivers/STM32F0xx_HAL_Driver/Src/stm32f0xx_hal_exti.c **** 
 1199              		.loc 1 503 3 discriminator 1 view .LVU318
 1200 005c F821     		movs	r1, #248
 1201 005e FF31     		adds	r1, r1, #255
 1202 0060 0248     		ldr	r0, .L86+4
 1203 0062 FFF7FEFF 		bl	assert_failed
 1204              	.LVL103:
 1205 0066 EBE7     		b	.L83
 1206              	.L87:
 1207              		.align	2
 1208              	.L86:
 1209 0068 E0FFFFF8 		.word	-117440544
 1210 006c 00000000 		.word	.LC0
 1211 0070 00040140 		.word	1073808384
 1212              		.cfi_endproc
 1213              	.LFE47:
 1215              		.section	.text.HAL_EXTI_GenerateSWI,"ax",%progbits
 1216              		.align	1
 1217              		.global	HAL_EXTI_GenerateSWI
 1218              		.syntax unified
 1219              		.code	16
 1220              		.thumb_func
 1222              	HAL_EXTI_GenerateSWI:
 1223              	.LVL104:
 1224              	.LFB48:
 511:Drivers/STM32F0xx_HAL_Driver/Src/stm32f0xx_hal_exti.c **** 
 512:Drivers/STM32F0xx_HAL_Driver/Src/stm32f0xx_hal_exti.c **** /**
 513:Drivers/STM32F0xx_HAL_Driver/Src/stm32f0xx_hal_exti.c ****   * @brief  Generate a software interrupt for a dedicated line.
 514:Drivers/STM32F0xx_HAL_Driver/Src/stm32f0xx_hal_exti.c ****   * @param  hexti Exti handle.
 515:Drivers/STM32F0xx_HAL_Driver/Src/stm32f0xx_hal_exti.c ****   * @retval None.
 516:Drivers/STM32F0xx_HAL_Driver/Src/stm32f0xx_hal_exti.c ****   */
 517:Drivers/STM32F0xx_HAL_Driver/Src/stm32f0xx_hal_exti.c **** void HAL_EXTI_GenerateSWI(EXTI_HandleTypeDef *hexti)
 518:Drivers/STM32F0xx_HAL_Driver/Src/stm32f0xx_hal_exti.c **** {
 1225              		.loc 1 518 1 is_stmt 1 view -0
 1226              		.cfi_startproc
 1227              		@ args = 0, pretend = 0, frame = 0
 1228              		@ frame_needed = 0, uses_anonymous_args = 0
 1229              		.loc 1 518 1 is_stmt 0 view .LVU320
 1230 0000 10B5     		push	{r4, lr}
 1231              	.LCFI7:
 1232              		.cfi_def_cfa_offset 8
 1233              		.cfi_offset 4, -8
 1234              		.cfi_offset 14, -4
 1235 0002 0400     		movs	r4, r0
 519:Drivers/STM32F0xx_HAL_Driver/Src/stm32f0xx_hal_exti.c ****   uint32_t maskline;
 1236              		.loc 1 519 3 is_stmt 1 view .LVU321
 520:Drivers/STM32F0xx_HAL_Driver/Src/stm32f0xx_hal_exti.c **** 
 521:Drivers/STM32F0xx_HAL_Driver/Src/stm32f0xx_hal_exti.c ****   /* Check parameters */
 522:Drivers/STM32F0xx_HAL_Driver/Src/stm32f0xx_hal_exti.c ****   assert_param(IS_EXTI_LINE(hexti->Line));
 1237              		.loc 1 522 3 view .LVU322
 1238 0004 0368     		ldr	r3, [r0]
 1239 0006 134A     		ldr	r2, .L93
 1240 0008 1342     		tst	r3, r2
 1241 000a 0ED1     		bne	.L89
 1242              		.loc 1 522 3 is_stmt 0 discriminator 2 view .LVU323
 1243 000c E022     		movs	r2, #224
 1244 000e D204     		lsls	r2, r2, #19
ARM GAS  /tmp/ccgsDOgC.s 			page 33


 1245 0010 1340     		ands	r3, r2
 1246 0012 8022     		movs	r2, #128
 1247 0014 5204     		lsls	r2, r2, #17
 1248 0016 9342     		cmp	r3, r2
 1249 0018 0BD0     		beq	.L90
 1250              		.loc 1 522 3 discriminator 3 view .LVU324
 1251 001a 8022     		movs	r2, #128
 1252 001c 9204     		lsls	r2, r2, #18
 1253 001e 9342     		cmp	r3, r2
 1254 0020 07D0     		beq	.L90
 1255              		.loc 1 522 3 discriminator 4 view .LVU325
 1256 0022 C022     		movs	r2, #192
 1257 0024 D204     		lsls	r2, r2, #19
 1258 0026 9342     		cmp	r3, r2
 1259 0028 03D0     		beq	.L90
 1260              	.L89:
 1261              		.loc 1 522 3 discriminator 5 view .LVU326
 1262 002a 0B49     		ldr	r1, .L93+4
 1263 002c 0B48     		ldr	r0, .L93+8
 1264              	.LVL105:
 1265              		.loc 1 522 3 discriminator 5 view .LVU327
 1266 002e FFF7FEFF 		bl	assert_failed
 1267              	.LVL106:
 1268              	.L90:
 523:Drivers/STM32F0xx_HAL_Driver/Src/stm32f0xx_hal_exti.c ****   assert_param(IS_EXTI_CONFIG_LINE(hexti->Line));
 1269              		.loc 1 523 3 is_stmt 1 view .LVU328
 1270 0032 2368     		ldr	r3, [r4]
 1271 0034 9B01     		lsls	r3, r3, #6
 1272 0036 07D5     		bpl	.L92
 1273              	.L91:
 524:Drivers/STM32F0xx_HAL_Driver/Src/stm32f0xx_hal_exti.c **** 
 525:Drivers/STM32F0xx_HAL_Driver/Src/stm32f0xx_hal_exti.c ****   /* Compute line mask */
 526:Drivers/STM32F0xx_HAL_Driver/Src/stm32f0xx_hal_exti.c ****   maskline = (1uL << (hexti->Line & EXTI_PIN_MASK));
 1274              		.loc 1 526 3 view .LVU329
 1275              		.loc 1 526 28 is_stmt 0 view .LVU330
 1276 0038 2368     		ldr	r3, [r4]
 1277              		.loc 1 526 35 view .LVU331
 1278 003a 1F22     		movs	r2, #31
 1279 003c 1A40     		ands	r2, r3
 1280              		.loc 1 526 12 view .LVU332
 1281 003e 0123     		movs	r3, #1
 1282 0040 9340     		lsls	r3, r3, r2
 1283              	.LVL107:
 527:Drivers/STM32F0xx_HAL_Driver/Src/stm32f0xx_hal_exti.c **** 
 528:Drivers/STM32F0xx_HAL_Driver/Src/stm32f0xx_hal_exti.c ****   /* Generate Software interrupt */
 529:Drivers/STM32F0xx_HAL_Driver/Src/stm32f0xx_hal_exti.c ****   EXTI->SWIER = maskline;
 1284              		.loc 1 529 3 is_stmt 1 view .LVU333
 1285              		.loc 1 529 15 is_stmt 0 view .LVU334
 1286 0042 074A     		ldr	r2, .L93+12
 1287 0044 1361     		str	r3, [r2, #16]
 530:Drivers/STM32F0xx_HAL_Driver/Src/stm32f0xx_hal_exti.c **** }
 1288              		.loc 1 530 1 view .LVU335
 1289              		@ sp needed
 1290              	.LVL108:
 1291              		.loc 1 530 1 view .LVU336
 1292 0046 10BD     		pop	{r4, pc}
 1293              	.LVL109:
ARM GAS  /tmp/ccgsDOgC.s 			page 34


 1294              	.L92:
 523:Drivers/STM32F0xx_HAL_Driver/Src/stm32f0xx_hal_exti.c **** 
 1295              		.loc 1 523 3 discriminator 1 view .LVU337
 1296 0048 0649     		ldr	r1, .L93+16
 1297 004a 0448     		ldr	r0, .L93+8
 1298 004c FFF7FEFF 		bl	assert_failed
 1299              	.LVL110:
 1300 0050 F2E7     		b	.L91
 1301              	.L94:
 1302 0052 C046     		.align	2
 1303              	.L93:
 1304 0054 E0FFFFF8 		.word	-117440544
 1305 0058 0A020000 		.word	522
 1306 005c 00000000 		.word	.LC0
 1307 0060 00040140 		.word	1073808384
 1308 0064 0B020000 		.word	523
 1309              		.cfi_endproc
 1310              	.LFE48:
 1312              		.text
 1313              	.Letext0:
 1314              		.file 2 "/usr/share/gcc-arm-none-eabi-10.3-2021.10/arm-none-eabi/include/machine/_default_types.h"
 1315              		.file 3 "/usr/share/gcc-arm-none-eabi-10.3-2021.10/arm-none-eabi/include/sys/_stdint.h"
 1316              		.file 4 "Drivers/CMSIS/Device/ST/STM32F0xx/Include/stm32f051x8.h"
 1317              		.file 5 "Drivers/STM32F0xx_HAL_Driver/Inc/stm32f0xx_hal_def.h"
 1318              		.file 6 "Drivers/STM32F0xx_HAL_Driver/Inc/stm32f0xx_hal_exti.h"
 1319              		.file 7 "Core/Inc/stm32f0xx_hal_conf.h"
ARM GAS  /tmp/ccgsDOgC.s 			page 35

