ARM GAS  /tmp/cc0e6U0t.s 			page 1


   1              		.cpu cortex-m0
   2              		.arch armv6s-m
   3              		.fpu softvfp
   4              		.eabi_attribute 20, 1
   5              		.eabi_attribute 21, 1
   6              		.eabi_attribute 23, 3
   7              		.eabi_attribute 24, 1
   8              		.eabi_attribute 25, 1
   9              		.eabi_attribute 26, 1
  10              		.eabi_attribute 30, 1
  11              		.eabi_attribute 34, 0
  12              		.eabi_attribute 18, 4
  13              		.file	"stm32f0xx_hal_rcc.c"
  14              		.text
  15              	.Ltext0:
  16              		.cfi_sections	.debug_frame
  17              		.section	.text.HAL_RCC_DeInit,"ax",%progbits
  18              		.align	1
  19              		.global	HAL_RCC_DeInit
  20              		.syntax unified
  21              		.code	16
  22              		.thumb_func
  24              	HAL_RCC_DeInit:
  25              	.LFB40:
  26              		.file 1 "Drivers/STM32F0xx_HAL_Driver/Src/stm32f0xx_hal_rcc.c"
   1:Drivers/STM32F0xx_HAL_Driver/Src/stm32f0xx_hal_rcc.c **** /**
   2:Drivers/STM32F0xx_HAL_Driver/Src/stm32f0xx_hal_rcc.c ****   ******************************************************************************
   3:Drivers/STM32F0xx_HAL_Driver/Src/stm32f0xx_hal_rcc.c ****   * @file    stm32f0xx_hal_rcc.c
   4:Drivers/STM32F0xx_HAL_Driver/Src/stm32f0xx_hal_rcc.c ****   * @author  MCD Application Team
   5:Drivers/STM32F0xx_HAL_Driver/Src/stm32f0xx_hal_rcc.c ****   * @brief   RCC HAL module driver.
   6:Drivers/STM32F0xx_HAL_Driver/Src/stm32f0xx_hal_rcc.c ****   *          This file provides firmware functions to manage the following 
   7:Drivers/STM32F0xx_HAL_Driver/Src/stm32f0xx_hal_rcc.c ****   *          functionalities of the Reset and Clock Control (RCC) peripheral:
   8:Drivers/STM32F0xx_HAL_Driver/Src/stm32f0xx_hal_rcc.c ****   *           + Initialization and de-initialization functions
   9:Drivers/STM32F0xx_HAL_Driver/Src/stm32f0xx_hal_rcc.c ****   *           + Peripheral Control functions
  10:Drivers/STM32F0xx_HAL_Driver/Src/stm32f0xx_hal_rcc.c ****   *       
  11:Drivers/STM32F0xx_HAL_Driver/Src/stm32f0xx_hal_rcc.c ****   @verbatim                
  12:Drivers/STM32F0xx_HAL_Driver/Src/stm32f0xx_hal_rcc.c ****   ==============================================================================
  13:Drivers/STM32F0xx_HAL_Driver/Src/stm32f0xx_hal_rcc.c ****                       ##### RCC specific features #####
  14:Drivers/STM32F0xx_HAL_Driver/Src/stm32f0xx_hal_rcc.c ****   ==============================================================================
  15:Drivers/STM32F0xx_HAL_Driver/Src/stm32f0xx_hal_rcc.c ****     [..]  
  16:Drivers/STM32F0xx_HAL_Driver/Src/stm32f0xx_hal_rcc.c ****       After reset the device is running from Internal High Speed oscillator
  17:Drivers/STM32F0xx_HAL_Driver/Src/stm32f0xx_hal_rcc.c ****       (HSI 8MHz) with Flash 0 wait state, Flash prefetch buffer is disabled, 
  18:Drivers/STM32F0xx_HAL_Driver/Src/stm32f0xx_hal_rcc.c ****       and all peripherals are off except internal SRAM, Flash and JTAG.
  19:Drivers/STM32F0xx_HAL_Driver/Src/stm32f0xx_hal_rcc.c ****       (+) There is no prescaler on High speed (AHB) and Low speed (APB) buses;
  20:Drivers/STM32F0xx_HAL_Driver/Src/stm32f0xx_hal_rcc.c ****           all peripherals mapped on these buses are running at HSI speed.
  21:Drivers/STM32F0xx_HAL_Driver/Src/stm32f0xx_hal_rcc.c ****       (+) The clock for all peripherals is switched off, except the SRAM and FLASH.
  22:Drivers/STM32F0xx_HAL_Driver/Src/stm32f0xx_hal_rcc.c ****       (+) All GPIOs are in input floating state, except the JTAG pins which
  23:Drivers/STM32F0xx_HAL_Driver/Src/stm32f0xx_hal_rcc.c ****           are assigned to be used for debug purpose.
  24:Drivers/STM32F0xx_HAL_Driver/Src/stm32f0xx_hal_rcc.c ****     [..] Once the device started from reset, the user application has to:
  25:Drivers/STM32F0xx_HAL_Driver/Src/stm32f0xx_hal_rcc.c ****       (+) Configure the clock source to be used to drive the System clock
  26:Drivers/STM32F0xx_HAL_Driver/Src/stm32f0xx_hal_rcc.c ****           (if the application needs higher frequency/performance)
  27:Drivers/STM32F0xx_HAL_Driver/Src/stm32f0xx_hal_rcc.c ****       (+) Configure the System clock frequency and Flash settings  
  28:Drivers/STM32F0xx_HAL_Driver/Src/stm32f0xx_hal_rcc.c ****       (+) Configure the AHB and APB buses prescalers
  29:Drivers/STM32F0xx_HAL_Driver/Src/stm32f0xx_hal_rcc.c ****       (+) Enable the clock for the peripheral(s) to be used
  30:Drivers/STM32F0xx_HAL_Driver/Src/stm32f0xx_hal_rcc.c ****       (+) Configure the clock source(s) for peripherals whose clocks are not
  31:Drivers/STM32F0xx_HAL_Driver/Src/stm32f0xx_hal_rcc.c ****           derived from the System clock (RTC, ADC, I2C, USART, TIM, USB FS, etc..)
  32:Drivers/STM32F0xx_HAL_Driver/Src/stm32f0xx_hal_rcc.c **** 
ARM GAS  /tmp/cc0e6U0t.s 			page 2


  33:Drivers/STM32F0xx_HAL_Driver/Src/stm32f0xx_hal_rcc.c ****                       ##### RCC Limitations #####
  34:Drivers/STM32F0xx_HAL_Driver/Src/stm32f0xx_hal_rcc.c ****   ==============================================================================
  35:Drivers/STM32F0xx_HAL_Driver/Src/stm32f0xx_hal_rcc.c ****     [..]  
  36:Drivers/STM32F0xx_HAL_Driver/Src/stm32f0xx_hal_rcc.c ****       A delay between an RCC peripheral clock enable and the effective peripheral 
  37:Drivers/STM32F0xx_HAL_Driver/Src/stm32f0xx_hal_rcc.c ****       enabling should be taken into account in order to manage the peripheral read/write 
  38:Drivers/STM32F0xx_HAL_Driver/Src/stm32f0xx_hal_rcc.c ****       from/to registers.
  39:Drivers/STM32F0xx_HAL_Driver/Src/stm32f0xx_hal_rcc.c ****       (+) This delay depends on the peripheral mapping.
  40:Drivers/STM32F0xx_HAL_Driver/Src/stm32f0xx_hal_rcc.c ****         (++) AHB & APB peripherals, 1 dummy read is necessary
  41:Drivers/STM32F0xx_HAL_Driver/Src/stm32f0xx_hal_rcc.c **** 
  42:Drivers/STM32F0xx_HAL_Driver/Src/stm32f0xx_hal_rcc.c ****     [..]  
  43:Drivers/STM32F0xx_HAL_Driver/Src/stm32f0xx_hal_rcc.c ****       Workarounds:
  44:Drivers/STM32F0xx_HAL_Driver/Src/stm32f0xx_hal_rcc.c ****       (#) For AHB & APB peripherals, a dummy read to the peripheral register has been
  45:Drivers/STM32F0xx_HAL_Driver/Src/stm32f0xx_hal_rcc.c ****           inserted in each __HAL_RCC_PPP_CLK_ENABLE() macro.
  46:Drivers/STM32F0xx_HAL_Driver/Src/stm32f0xx_hal_rcc.c **** 
  47:Drivers/STM32F0xx_HAL_Driver/Src/stm32f0xx_hal_rcc.c ****   @endverbatim
  48:Drivers/STM32F0xx_HAL_Driver/Src/stm32f0xx_hal_rcc.c ****   ******************************************************************************
  49:Drivers/STM32F0xx_HAL_Driver/Src/stm32f0xx_hal_rcc.c ****   * @attention
  50:Drivers/STM32F0xx_HAL_Driver/Src/stm32f0xx_hal_rcc.c ****   *
  51:Drivers/STM32F0xx_HAL_Driver/Src/stm32f0xx_hal_rcc.c ****   * <h2><center>&copy; Copyright (c) 2016 STMicroelectronics.
  52:Drivers/STM32F0xx_HAL_Driver/Src/stm32f0xx_hal_rcc.c ****   * All rights reserved.</center></h2>
  53:Drivers/STM32F0xx_HAL_Driver/Src/stm32f0xx_hal_rcc.c ****   *
  54:Drivers/STM32F0xx_HAL_Driver/Src/stm32f0xx_hal_rcc.c ****   * This software component is licensed by ST under BSD 3-Clause license,
  55:Drivers/STM32F0xx_HAL_Driver/Src/stm32f0xx_hal_rcc.c ****   * the "License"; You may not use this file except in compliance with the
  56:Drivers/STM32F0xx_HAL_Driver/Src/stm32f0xx_hal_rcc.c ****   * License. You may obtain a copy of the License at:
  57:Drivers/STM32F0xx_HAL_Driver/Src/stm32f0xx_hal_rcc.c ****   *                        opensource.org/licenses/BSD-3-Clause
  58:Drivers/STM32F0xx_HAL_Driver/Src/stm32f0xx_hal_rcc.c ****   *
  59:Drivers/STM32F0xx_HAL_Driver/Src/stm32f0xx_hal_rcc.c ****   ******************************************************************************
  60:Drivers/STM32F0xx_HAL_Driver/Src/stm32f0xx_hal_rcc.c ****   */
  61:Drivers/STM32F0xx_HAL_Driver/Src/stm32f0xx_hal_rcc.c **** 
  62:Drivers/STM32F0xx_HAL_Driver/Src/stm32f0xx_hal_rcc.c **** /* Includes ------------------------------------------------------------------*/
  63:Drivers/STM32F0xx_HAL_Driver/Src/stm32f0xx_hal_rcc.c **** #include "stm32f0xx_hal.h"
  64:Drivers/STM32F0xx_HAL_Driver/Src/stm32f0xx_hal_rcc.c **** 
  65:Drivers/STM32F0xx_HAL_Driver/Src/stm32f0xx_hal_rcc.c **** /** @addtogroup STM32F0xx_HAL_Driver
  66:Drivers/STM32F0xx_HAL_Driver/Src/stm32f0xx_hal_rcc.c ****   * @{
  67:Drivers/STM32F0xx_HAL_Driver/Src/stm32f0xx_hal_rcc.c ****   */
  68:Drivers/STM32F0xx_HAL_Driver/Src/stm32f0xx_hal_rcc.c **** 
  69:Drivers/STM32F0xx_HAL_Driver/Src/stm32f0xx_hal_rcc.c **** /** @defgroup RCC RCC
  70:Drivers/STM32F0xx_HAL_Driver/Src/stm32f0xx_hal_rcc.c **** * @brief RCC HAL module driver
  71:Drivers/STM32F0xx_HAL_Driver/Src/stm32f0xx_hal_rcc.c ****   * @{
  72:Drivers/STM32F0xx_HAL_Driver/Src/stm32f0xx_hal_rcc.c ****   */
  73:Drivers/STM32F0xx_HAL_Driver/Src/stm32f0xx_hal_rcc.c **** 
  74:Drivers/STM32F0xx_HAL_Driver/Src/stm32f0xx_hal_rcc.c **** #ifdef HAL_RCC_MODULE_ENABLED
  75:Drivers/STM32F0xx_HAL_Driver/Src/stm32f0xx_hal_rcc.c **** 
  76:Drivers/STM32F0xx_HAL_Driver/Src/stm32f0xx_hal_rcc.c **** /* Private typedef -----------------------------------------------------------*/
  77:Drivers/STM32F0xx_HAL_Driver/Src/stm32f0xx_hal_rcc.c **** /* Private define ------------------------------------------------------------*/
  78:Drivers/STM32F0xx_HAL_Driver/Src/stm32f0xx_hal_rcc.c **** /** @defgroup RCC_Private_Constants RCC Private Constants
  79:Drivers/STM32F0xx_HAL_Driver/Src/stm32f0xx_hal_rcc.c ****  * @{
  80:Drivers/STM32F0xx_HAL_Driver/Src/stm32f0xx_hal_rcc.c ****  */
  81:Drivers/STM32F0xx_HAL_Driver/Src/stm32f0xx_hal_rcc.c **** /**
  82:Drivers/STM32F0xx_HAL_Driver/Src/stm32f0xx_hal_rcc.c ****   * @}
  83:Drivers/STM32F0xx_HAL_Driver/Src/stm32f0xx_hal_rcc.c ****   */
  84:Drivers/STM32F0xx_HAL_Driver/Src/stm32f0xx_hal_rcc.c **** /* Private macro -------------------------------------------------------------*/
  85:Drivers/STM32F0xx_HAL_Driver/Src/stm32f0xx_hal_rcc.c **** /** @defgroup RCC_Private_Macros RCC Private Macros
  86:Drivers/STM32F0xx_HAL_Driver/Src/stm32f0xx_hal_rcc.c ****   * @{
  87:Drivers/STM32F0xx_HAL_Driver/Src/stm32f0xx_hal_rcc.c ****   */
  88:Drivers/STM32F0xx_HAL_Driver/Src/stm32f0xx_hal_rcc.c **** 
  89:Drivers/STM32F0xx_HAL_Driver/Src/stm32f0xx_hal_rcc.c **** #define MCO1_CLK_ENABLE()     __HAL_RCC_GPIOA_CLK_ENABLE()
ARM GAS  /tmp/cc0e6U0t.s 			page 3


  90:Drivers/STM32F0xx_HAL_Driver/Src/stm32f0xx_hal_rcc.c **** #define MCO1_GPIO_PORT        GPIOA
  91:Drivers/STM32F0xx_HAL_Driver/Src/stm32f0xx_hal_rcc.c **** #define MCO1_PIN              GPIO_PIN_8
  92:Drivers/STM32F0xx_HAL_Driver/Src/stm32f0xx_hal_rcc.c **** 
  93:Drivers/STM32F0xx_HAL_Driver/Src/stm32f0xx_hal_rcc.c **** /**
  94:Drivers/STM32F0xx_HAL_Driver/Src/stm32f0xx_hal_rcc.c ****   * @}
  95:Drivers/STM32F0xx_HAL_Driver/Src/stm32f0xx_hal_rcc.c ****   */
  96:Drivers/STM32F0xx_HAL_Driver/Src/stm32f0xx_hal_rcc.c **** 
  97:Drivers/STM32F0xx_HAL_Driver/Src/stm32f0xx_hal_rcc.c **** /* Private variables ---------------------------------------------------------*/
  98:Drivers/STM32F0xx_HAL_Driver/Src/stm32f0xx_hal_rcc.c **** /** @defgroup RCC_Private_Variables RCC Private Variables
  99:Drivers/STM32F0xx_HAL_Driver/Src/stm32f0xx_hal_rcc.c ****   * @{
 100:Drivers/STM32F0xx_HAL_Driver/Src/stm32f0xx_hal_rcc.c ****   */
 101:Drivers/STM32F0xx_HAL_Driver/Src/stm32f0xx_hal_rcc.c **** /**
 102:Drivers/STM32F0xx_HAL_Driver/Src/stm32f0xx_hal_rcc.c ****   * @}
 103:Drivers/STM32F0xx_HAL_Driver/Src/stm32f0xx_hal_rcc.c ****   */
 104:Drivers/STM32F0xx_HAL_Driver/Src/stm32f0xx_hal_rcc.c **** 
 105:Drivers/STM32F0xx_HAL_Driver/Src/stm32f0xx_hal_rcc.c **** /* Private function prototypes -----------------------------------------------*/
 106:Drivers/STM32F0xx_HAL_Driver/Src/stm32f0xx_hal_rcc.c **** /* Exported functions ---------------------------------------------------------*/
 107:Drivers/STM32F0xx_HAL_Driver/Src/stm32f0xx_hal_rcc.c **** 
 108:Drivers/STM32F0xx_HAL_Driver/Src/stm32f0xx_hal_rcc.c **** /** @defgroup RCC_Exported_Functions RCC Exported Functions
 109:Drivers/STM32F0xx_HAL_Driver/Src/stm32f0xx_hal_rcc.c ****   * @{
 110:Drivers/STM32F0xx_HAL_Driver/Src/stm32f0xx_hal_rcc.c ****   */
 111:Drivers/STM32F0xx_HAL_Driver/Src/stm32f0xx_hal_rcc.c **** 
 112:Drivers/STM32F0xx_HAL_Driver/Src/stm32f0xx_hal_rcc.c **** /** @defgroup RCC_Exported_Functions_Group1 Initialization and de-initialization functions 
 113:Drivers/STM32F0xx_HAL_Driver/Src/stm32f0xx_hal_rcc.c ****   *  @brief    Initialization and Configuration functions 
 114:Drivers/STM32F0xx_HAL_Driver/Src/stm32f0xx_hal_rcc.c ****   *
 115:Drivers/STM32F0xx_HAL_Driver/Src/stm32f0xx_hal_rcc.c ****   @verbatim    
 116:Drivers/STM32F0xx_HAL_Driver/Src/stm32f0xx_hal_rcc.c ****   ===============================================================================
 117:Drivers/STM32F0xx_HAL_Driver/Src/stm32f0xx_hal_rcc.c ****            ##### Initialization and de-initialization functions #####
 118:Drivers/STM32F0xx_HAL_Driver/Src/stm32f0xx_hal_rcc.c ****   ===============================================================================
 119:Drivers/STM32F0xx_HAL_Driver/Src/stm32f0xx_hal_rcc.c ****     [..]
 120:Drivers/STM32F0xx_HAL_Driver/Src/stm32f0xx_hal_rcc.c ****       This section provides functions allowing to configure the internal/external oscillators
 121:Drivers/STM32F0xx_HAL_Driver/Src/stm32f0xx_hal_rcc.c ****       (HSE, HSI, HSI14, HSI48, LSE, LSI, PLL, CSS and MCO) and the System buses clocks (SYSCLK, 
 122:Drivers/STM32F0xx_HAL_Driver/Src/stm32f0xx_hal_rcc.c ****       AHB and APB1).
 123:Drivers/STM32F0xx_HAL_Driver/Src/stm32f0xx_hal_rcc.c **** 
 124:Drivers/STM32F0xx_HAL_Driver/Src/stm32f0xx_hal_rcc.c ****     [..] Internal/external clock and PLL configuration
 125:Drivers/STM32F0xx_HAL_Driver/Src/stm32f0xx_hal_rcc.c ****       (#) HSI (high-speed internal), 8 MHz factory-trimmed RC used directly or through
 126:Drivers/STM32F0xx_HAL_Driver/Src/stm32f0xx_hal_rcc.c ****           the PLL as System clock source.
 127:Drivers/STM32F0xx_HAL_Driver/Src/stm32f0xx_hal_rcc.c ****           The HSI clock can be used also to clock the USART and I2C peripherals.
 128:Drivers/STM32F0xx_HAL_Driver/Src/stm32f0xx_hal_rcc.c **** 
 129:Drivers/STM32F0xx_HAL_Driver/Src/stm32f0xx_hal_rcc.c ****       (#) HSI14 (high-speed internal), 14 MHz factory-trimmed RC used directly to clock 
 130:Drivers/STM32F0xx_HAL_Driver/Src/stm32f0xx_hal_rcc.c ****           the ADC peripheral.
 131:Drivers/STM32F0xx_HAL_Driver/Src/stm32f0xx_hal_rcc.c **** 
 132:Drivers/STM32F0xx_HAL_Driver/Src/stm32f0xx_hal_rcc.c ****       (#) LSI (low-speed internal), ~40 KHz low consumption RC used as IWDG and/or RTC
 133:Drivers/STM32F0xx_HAL_Driver/Src/stm32f0xx_hal_rcc.c ****           clock source.
 134:Drivers/STM32F0xx_HAL_Driver/Src/stm32f0xx_hal_rcc.c **** 
 135:Drivers/STM32F0xx_HAL_Driver/Src/stm32f0xx_hal_rcc.c ****       (#) HSE (high-speed external), 4 to 32 MHz crystal oscillator used directly or
 136:Drivers/STM32F0xx_HAL_Driver/Src/stm32f0xx_hal_rcc.c ****           through the PLL as System clock source. Can be used also as RTC clock source.
 137:Drivers/STM32F0xx_HAL_Driver/Src/stm32f0xx_hal_rcc.c **** 
 138:Drivers/STM32F0xx_HAL_Driver/Src/stm32f0xx_hal_rcc.c ****       (#) LSE (low-speed external), 32 KHz oscillator used as RTC clock source.   
 139:Drivers/STM32F0xx_HAL_Driver/Src/stm32f0xx_hal_rcc.c **** 
 140:Drivers/STM32F0xx_HAL_Driver/Src/stm32f0xx_hal_rcc.c ****       (#) PLL (clocked by HSI, HSI48 or HSE), featuring different output clocks:
 141:Drivers/STM32F0xx_HAL_Driver/Src/stm32f0xx_hal_rcc.c ****        (++) The first output is used to generate the high speed system clock (up to 48 MHz)
 142:Drivers/STM32F0xx_HAL_Driver/Src/stm32f0xx_hal_rcc.c ****        (++) The second output is used to generate the clock for the USB FS (48 MHz)
 143:Drivers/STM32F0xx_HAL_Driver/Src/stm32f0xx_hal_rcc.c ****        (++) The third output may be used to generate the clock for the TIM, I2C and USART 
 144:Drivers/STM32F0xx_HAL_Driver/Src/stm32f0xx_hal_rcc.c ****             peripherals (up to 48 MHz)
 145:Drivers/STM32F0xx_HAL_Driver/Src/stm32f0xx_hal_rcc.c **** 
 146:Drivers/STM32F0xx_HAL_Driver/Src/stm32f0xx_hal_rcc.c ****       (#) CSS (Clock security system), once enable using the macro __HAL_RCC_CSS_ENABLE()
ARM GAS  /tmp/cc0e6U0t.s 			page 4


 147:Drivers/STM32F0xx_HAL_Driver/Src/stm32f0xx_hal_rcc.c ****           and if a HSE clock failure occurs(HSE used directly or through PLL as System 
 148:Drivers/STM32F0xx_HAL_Driver/Src/stm32f0xx_hal_rcc.c ****           clock source), the System clocks automatically switched to HSI and an interrupt
 149:Drivers/STM32F0xx_HAL_Driver/Src/stm32f0xx_hal_rcc.c ****           is generated if enabled. The interrupt is linked to the Cortex-M0 NMI 
 150:Drivers/STM32F0xx_HAL_Driver/Src/stm32f0xx_hal_rcc.c ****           (Non-Maskable Interrupt) exception vector.   
 151:Drivers/STM32F0xx_HAL_Driver/Src/stm32f0xx_hal_rcc.c **** 
 152:Drivers/STM32F0xx_HAL_Driver/Src/stm32f0xx_hal_rcc.c ****       (#) MCO (microcontroller clock output), used to output SYSCLK, HSI, HSE, LSI, LSE or PLL
 153:Drivers/STM32F0xx_HAL_Driver/Src/stm32f0xx_hal_rcc.c ****           clock (divided by 2) output on pin (such as PA8 pin).
 154:Drivers/STM32F0xx_HAL_Driver/Src/stm32f0xx_hal_rcc.c **** 
 155:Drivers/STM32F0xx_HAL_Driver/Src/stm32f0xx_hal_rcc.c ****     [..] System, AHB and APB buses clocks configuration
 156:Drivers/STM32F0xx_HAL_Driver/Src/stm32f0xx_hal_rcc.c ****       (#) Several clock sources can be used to drive the System clock (SYSCLK): HSI,
 157:Drivers/STM32F0xx_HAL_Driver/Src/stm32f0xx_hal_rcc.c ****           HSE and PLL.
 158:Drivers/STM32F0xx_HAL_Driver/Src/stm32f0xx_hal_rcc.c ****           The AHB clock (HCLK) is derived from System clock through configurable
 159:Drivers/STM32F0xx_HAL_Driver/Src/stm32f0xx_hal_rcc.c ****           prescaler and used to clock the CPU, memory and peripherals mapped
 160:Drivers/STM32F0xx_HAL_Driver/Src/stm32f0xx_hal_rcc.c ****           on AHB bus (DMA, GPIO...). APB1 (PCLK1) clock is derived
 161:Drivers/STM32F0xx_HAL_Driver/Src/stm32f0xx_hal_rcc.c ****           from AHB clock through configurable prescalers and used to clock
 162:Drivers/STM32F0xx_HAL_Driver/Src/stm32f0xx_hal_rcc.c ****           the peripherals mapped on these buses. You can use
 163:Drivers/STM32F0xx_HAL_Driver/Src/stm32f0xx_hal_rcc.c ****           "HAL_RCC_GetSysClockFreq()" function to retrieve the frequencies of these clocks.
 164:Drivers/STM32F0xx_HAL_Driver/Src/stm32f0xx_hal_rcc.c **** 
 165:Drivers/STM32F0xx_HAL_Driver/Src/stm32f0xx_hal_rcc.c ****       (#) All the peripheral clocks are derived from the System clock (SYSCLK) except:
 166:Drivers/STM32F0xx_HAL_Driver/Src/stm32f0xx_hal_rcc.c ****         (++) The FLASH program/erase clock  which is always HSI 8MHz clock.
 167:Drivers/STM32F0xx_HAL_Driver/Src/stm32f0xx_hal_rcc.c ****         (++) The USB 48 MHz clock which is derived from the PLL VCO clock.
 168:Drivers/STM32F0xx_HAL_Driver/Src/stm32f0xx_hal_rcc.c ****         (++) The USART clock which can be derived as well from HSI 8MHz, LSI or LSE.
 169:Drivers/STM32F0xx_HAL_Driver/Src/stm32f0xx_hal_rcc.c ****         (++) The I2C clock which can be derived as well from HSI 8MHz clock.
 170:Drivers/STM32F0xx_HAL_Driver/Src/stm32f0xx_hal_rcc.c ****         (++) The ADC clock which is derived from PLL output.
 171:Drivers/STM32F0xx_HAL_Driver/Src/stm32f0xx_hal_rcc.c ****         (++) The RTC clock which is derived from the LSE, LSI or 1 MHz HSE_RTC
 172:Drivers/STM32F0xx_HAL_Driver/Src/stm32f0xx_hal_rcc.c ****              (HSE divided by a programmable prescaler). The System clock (SYSCLK)
 173:Drivers/STM32F0xx_HAL_Driver/Src/stm32f0xx_hal_rcc.c ****              frequency must be higher or equal to the RTC clock frequency.
 174:Drivers/STM32F0xx_HAL_Driver/Src/stm32f0xx_hal_rcc.c ****         (++) IWDG clock which is always the LSI clock.
 175:Drivers/STM32F0xx_HAL_Driver/Src/stm32f0xx_hal_rcc.c **** 
 176:Drivers/STM32F0xx_HAL_Driver/Src/stm32f0xx_hal_rcc.c ****       (#) For the STM32F0xx devices, the maximum frequency of the SYSCLK, HCLK and PCLK1 is 48 MHz,
 177:Drivers/STM32F0xx_HAL_Driver/Src/stm32f0xx_hal_rcc.c ****           Depending on the SYSCLK frequency, the flash latency should be adapted accordingly.
 178:Drivers/STM32F0xx_HAL_Driver/Src/stm32f0xx_hal_rcc.c **** 
 179:Drivers/STM32F0xx_HAL_Driver/Src/stm32f0xx_hal_rcc.c ****       (#) After reset, the System clock source is the HSI (8 MHz) with 0 WS and
 180:Drivers/STM32F0xx_HAL_Driver/Src/stm32f0xx_hal_rcc.c ****           prefetch is disabled.
 181:Drivers/STM32F0xx_HAL_Driver/Src/stm32f0xx_hal_rcc.c ****   @endverbatim
 182:Drivers/STM32F0xx_HAL_Driver/Src/stm32f0xx_hal_rcc.c ****   * @{
 183:Drivers/STM32F0xx_HAL_Driver/Src/stm32f0xx_hal_rcc.c ****   */
 184:Drivers/STM32F0xx_HAL_Driver/Src/stm32f0xx_hal_rcc.c ****   
 185:Drivers/STM32F0xx_HAL_Driver/Src/stm32f0xx_hal_rcc.c **** /*
 186:Drivers/STM32F0xx_HAL_Driver/Src/stm32f0xx_hal_rcc.c ****   Additional consideration on the SYSCLK based on Latency settings:
 187:Drivers/STM32F0xx_HAL_Driver/Src/stm32f0xx_hal_rcc.c ****           +-----------------------------------------------+
 188:Drivers/STM32F0xx_HAL_Driver/Src/stm32f0xx_hal_rcc.c ****           | Latency       | SYSCLK clock frequency (MHz)  |
 189:Drivers/STM32F0xx_HAL_Driver/Src/stm32f0xx_hal_rcc.c ****           |---------------|-------------------------------|
 190:Drivers/STM32F0xx_HAL_Driver/Src/stm32f0xx_hal_rcc.c ****           |0WS(1CPU cycle)|       0 < SYSCLK <= 24        |
 191:Drivers/STM32F0xx_HAL_Driver/Src/stm32f0xx_hal_rcc.c ****           |---------------|-------------------------------|
 192:Drivers/STM32F0xx_HAL_Driver/Src/stm32f0xx_hal_rcc.c ****           |1WS(2CPU cycle)|      24 < SYSCLK <= 48        |
 193:Drivers/STM32F0xx_HAL_Driver/Src/stm32f0xx_hal_rcc.c ****           +-----------------------------------------------+
 194:Drivers/STM32F0xx_HAL_Driver/Src/stm32f0xx_hal_rcc.c ****   */
 195:Drivers/STM32F0xx_HAL_Driver/Src/stm32f0xx_hal_rcc.c **** 
 196:Drivers/STM32F0xx_HAL_Driver/Src/stm32f0xx_hal_rcc.c **** /**
 197:Drivers/STM32F0xx_HAL_Driver/Src/stm32f0xx_hal_rcc.c ****   * @brief  Resets the RCC clock configuration to the default reset state.
 198:Drivers/STM32F0xx_HAL_Driver/Src/stm32f0xx_hal_rcc.c ****   * @note   The default reset state of the clock configuration is given below:
 199:Drivers/STM32F0xx_HAL_Driver/Src/stm32f0xx_hal_rcc.c ****   *            - HSI ON and used as system clock source
 200:Drivers/STM32F0xx_HAL_Driver/Src/stm32f0xx_hal_rcc.c ****   *            - HSE and PLL OFF
 201:Drivers/STM32F0xx_HAL_Driver/Src/stm32f0xx_hal_rcc.c ****   *            - AHB, APB1 prescaler set to 1.
 202:Drivers/STM32F0xx_HAL_Driver/Src/stm32f0xx_hal_rcc.c ****   *            - CSS and MCO1 OFF
 203:Drivers/STM32F0xx_HAL_Driver/Src/stm32f0xx_hal_rcc.c ****   *            - All interrupts disabled
ARM GAS  /tmp/cc0e6U0t.s 			page 5


 204:Drivers/STM32F0xx_HAL_Driver/Src/stm32f0xx_hal_rcc.c ****   *            - All interrupt and reset flags cleared
 205:Drivers/STM32F0xx_HAL_Driver/Src/stm32f0xx_hal_rcc.c ****   * @note   This function does not modify the configuration of the
 206:Drivers/STM32F0xx_HAL_Driver/Src/stm32f0xx_hal_rcc.c ****   *            - Peripheral clocks
 207:Drivers/STM32F0xx_HAL_Driver/Src/stm32f0xx_hal_rcc.c ****   *            - LSI, LSE and RTC clocks
 208:Drivers/STM32F0xx_HAL_Driver/Src/stm32f0xx_hal_rcc.c ****   * @retval HAL status
 209:Drivers/STM32F0xx_HAL_Driver/Src/stm32f0xx_hal_rcc.c ****   */
 210:Drivers/STM32F0xx_HAL_Driver/Src/stm32f0xx_hal_rcc.c **** HAL_StatusTypeDef HAL_RCC_DeInit(void)
 211:Drivers/STM32F0xx_HAL_Driver/Src/stm32f0xx_hal_rcc.c **** {
  27              		.loc 1 211 1 view -0
  28              		.cfi_startproc
  29              		@ args = 0, pretend = 0, frame = 0
  30              		@ frame_needed = 0, uses_anonymous_args = 0
  31 0000 70B5     		push	{r4, r5, r6, lr}
  32              	.LCFI0:
  33              		.cfi_def_cfa_offset 16
  34              		.cfi_offset 4, -16
  35              		.cfi_offset 5, -12
  36              		.cfi_offset 6, -8
  37              		.cfi_offset 14, -4
 212:Drivers/STM32F0xx_HAL_Driver/Src/stm32f0xx_hal_rcc.c ****   uint32_t tickstart;
  38              		.loc 1 212 3 view .LVU1
 213:Drivers/STM32F0xx_HAL_Driver/Src/stm32f0xx_hal_rcc.c **** 
 214:Drivers/STM32F0xx_HAL_Driver/Src/stm32f0xx_hal_rcc.c ****   /* Get Start Tick*/
 215:Drivers/STM32F0xx_HAL_Driver/Src/stm32f0xx_hal_rcc.c ****   tickstart = HAL_GetTick();
  39              		.loc 1 215 3 view .LVU2
  40              		.loc 1 215 15 is_stmt 0 view .LVU3
  41 0002 FFF7FEFF 		bl	HAL_GetTick
  42              	.LVL0:
  43 0006 0400     		movs	r4, r0
  44              	.LVL1:
 216:Drivers/STM32F0xx_HAL_Driver/Src/stm32f0xx_hal_rcc.c ****   
 217:Drivers/STM32F0xx_HAL_Driver/Src/stm32f0xx_hal_rcc.c ****   /* Set HSION bit, HSITRIM[4:0] bits to the reset value*/
 218:Drivers/STM32F0xx_HAL_Driver/Src/stm32f0xx_hal_rcc.c ****   SET_BIT(RCC->CR, RCC_CR_HSION | RCC_CR_HSITRIM_4); 
  45              		.loc 1 218 3 is_stmt 1 view .LVU4
  46 0008 284A     		ldr	r2, .L17
  47 000a 1368     		ldr	r3, [r2]
  48 000c 8121     		movs	r1, #129
  49 000e 0B43     		orrs	r3, r1
  50 0010 1360     		str	r3, [r2]
 219:Drivers/STM32F0xx_HAL_Driver/Src/stm32f0xx_hal_rcc.c **** 
 220:Drivers/STM32F0xx_HAL_Driver/Src/stm32f0xx_hal_rcc.c ****   /* Wait till HSI is ready */
 221:Drivers/STM32F0xx_HAL_Driver/Src/stm32f0xx_hal_rcc.c ****   while (READ_BIT(RCC->CR, RCC_CR_HSIRDY) == RESET)
  51              		.loc 1 221 3 view .LVU5
  52              	.LVL2:
  53              	.L2:
  54              		.loc 1 221 9 view .LVU6
  55              		.loc 1 221 10 is_stmt 0 view .LVU7
  56 0012 264B     		ldr	r3, .L17
  57 0014 1B68     		ldr	r3, [r3]
  58              		.loc 1 221 9 view .LVU8
  59 0016 9B07     		lsls	r3, r3, #30
  60 0018 07D4     		bmi	.L13
 222:Drivers/STM32F0xx_HAL_Driver/Src/stm32f0xx_hal_rcc.c ****   {
 223:Drivers/STM32F0xx_HAL_Driver/Src/stm32f0xx_hal_rcc.c ****     if ((HAL_GetTick() - tickstart) > HSI_TIMEOUT_VALUE)
  61              		.loc 1 223 5 is_stmt 1 view .LVU9
  62              		.loc 1 223 10 is_stmt 0 view .LVU10
  63 001a FFF7FEFF 		bl	HAL_GetTick
ARM GAS  /tmp/cc0e6U0t.s 			page 6


  64              	.LVL3:
  65              		.loc 1 223 24 view .LVU11
  66 001e 001B     		subs	r0, r0, r4
  67              		.loc 1 223 8 view .LVU12
  68 0020 0228     		cmp	r0, #2
  69 0022 F6D9     		bls	.L2
 224:Drivers/STM32F0xx_HAL_Driver/Src/stm32f0xx_hal_rcc.c ****     {
 225:Drivers/STM32F0xx_HAL_Driver/Src/stm32f0xx_hal_rcc.c ****       return HAL_TIMEOUT;
  70              		.loc 1 225 14 view .LVU13
  71 0024 0324     		movs	r4, #3
  72              	.LVL4:
  73              	.L3:
 226:Drivers/STM32F0xx_HAL_Driver/Src/stm32f0xx_hal_rcc.c ****     }
 227:Drivers/STM32F0xx_HAL_Driver/Src/stm32f0xx_hal_rcc.c ****   }
 228:Drivers/STM32F0xx_HAL_Driver/Src/stm32f0xx_hal_rcc.c **** 
 229:Drivers/STM32F0xx_HAL_Driver/Src/stm32f0xx_hal_rcc.c ****   /* Reset SW[1:0], HPRE[3:0], PPRE[2:0] and MCOSEL[2:0] bits */
 230:Drivers/STM32F0xx_HAL_Driver/Src/stm32f0xx_hal_rcc.c ****   CLEAR_BIT(RCC->CFGR, RCC_CFGR_SW | RCC_CFGR_HPRE | RCC_CFGR_PPRE | RCC_CFGR_MCO);
 231:Drivers/STM32F0xx_HAL_Driver/Src/stm32f0xx_hal_rcc.c **** 
 232:Drivers/STM32F0xx_HAL_Driver/Src/stm32f0xx_hal_rcc.c ****   /* Wait till HSI as SYSCLK status is enabled */
 233:Drivers/STM32F0xx_HAL_Driver/Src/stm32f0xx_hal_rcc.c ****   while (READ_BIT(RCC->CFGR, RCC_CFGR_SWS) != RESET)
 234:Drivers/STM32F0xx_HAL_Driver/Src/stm32f0xx_hal_rcc.c ****   {
 235:Drivers/STM32F0xx_HAL_Driver/Src/stm32f0xx_hal_rcc.c ****     if ((HAL_GetTick() - tickstart) > CLOCKSWITCH_TIMEOUT_VALUE)
 236:Drivers/STM32F0xx_HAL_Driver/Src/stm32f0xx_hal_rcc.c ****     {
 237:Drivers/STM32F0xx_HAL_Driver/Src/stm32f0xx_hal_rcc.c ****       return HAL_TIMEOUT;
 238:Drivers/STM32F0xx_HAL_Driver/Src/stm32f0xx_hal_rcc.c ****     }
 239:Drivers/STM32F0xx_HAL_Driver/Src/stm32f0xx_hal_rcc.c ****   }
 240:Drivers/STM32F0xx_HAL_Driver/Src/stm32f0xx_hal_rcc.c **** 
 241:Drivers/STM32F0xx_HAL_Driver/Src/stm32f0xx_hal_rcc.c ****   /* Update the SystemCoreClock global variable for HSI as system clock source */
 242:Drivers/STM32F0xx_HAL_Driver/Src/stm32f0xx_hal_rcc.c ****   SystemCoreClock = HSI_VALUE;
 243:Drivers/STM32F0xx_HAL_Driver/Src/stm32f0xx_hal_rcc.c **** 
 244:Drivers/STM32F0xx_HAL_Driver/Src/stm32f0xx_hal_rcc.c ****   /* Adapt Systick interrupt period */
 245:Drivers/STM32F0xx_HAL_Driver/Src/stm32f0xx_hal_rcc.c ****   if (HAL_InitTick(uwTickPrio) != HAL_OK)
 246:Drivers/STM32F0xx_HAL_Driver/Src/stm32f0xx_hal_rcc.c ****   {
 247:Drivers/STM32F0xx_HAL_Driver/Src/stm32f0xx_hal_rcc.c ****     return HAL_ERROR;
 248:Drivers/STM32F0xx_HAL_Driver/Src/stm32f0xx_hal_rcc.c ****   }
 249:Drivers/STM32F0xx_HAL_Driver/Src/stm32f0xx_hal_rcc.c **** 
 250:Drivers/STM32F0xx_HAL_Driver/Src/stm32f0xx_hal_rcc.c ****   /* Reset HSEON, CSSON, PLLON bits */
 251:Drivers/STM32F0xx_HAL_Driver/Src/stm32f0xx_hal_rcc.c ****   CLEAR_BIT(RCC->CR, RCC_CR_PLLON | RCC_CR_CSSON | RCC_CR_HSEON);
 252:Drivers/STM32F0xx_HAL_Driver/Src/stm32f0xx_hal_rcc.c ****   
 253:Drivers/STM32F0xx_HAL_Driver/Src/stm32f0xx_hal_rcc.c ****   /* Reset HSEBYP bit */
 254:Drivers/STM32F0xx_HAL_Driver/Src/stm32f0xx_hal_rcc.c ****   CLEAR_BIT(RCC->CR, RCC_CR_HSEBYP);
 255:Drivers/STM32F0xx_HAL_Driver/Src/stm32f0xx_hal_rcc.c **** 
 256:Drivers/STM32F0xx_HAL_Driver/Src/stm32f0xx_hal_rcc.c ****   /* Get start tick */
 257:Drivers/STM32F0xx_HAL_Driver/Src/stm32f0xx_hal_rcc.c ****   tickstart = HAL_GetTick();
 258:Drivers/STM32F0xx_HAL_Driver/Src/stm32f0xx_hal_rcc.c ****   
 259:Drivers/STM32F0xx_HAL_Driver/Src/stm32f0xx_hal_rcc.c ****   /* Wait till PLLRDY is cleared */
 260:Drivers/STM32F0xx_HAL_Driver/Src/stm32f0xx_hal_rcc.c ****   while(READ_BIT(RCC->CR, RCC_CR_PLLRDY) != RESET)
 261:Drivers/STM32F0xx_HAL_Driver/Src/stm32f0xx_hal_rcc.c ****   {
 262:Drivers/STM32F0xx_HAL_Driver/Src/stm32f0xx_hal_rcc.c ****     if((HAL_GetTick() - tickstart) > PLL_TIMEOUT_VALUE)
 263:Drivers/STM32F0xx_HAL_Driver/Src/stm32f0xx_hal_rcc.c ****     {
 264:Drivers/STM32F0xx_HAL_Driver/Src/stm32f0xx_hal_rcc.c ****       return HAL_TIMEOUT;
 265:Drivers/STM32F0xx_HAL_Driver/Src/stm32f0xx_hal_rcc.c ****     }
 266:Drivers/STM32F0xx_HAL_Driver/Src/stm32f0xx_hal_rcc.c ****   }
 267:Drivers/STM32F0xx_HAL_Driver/Src/stm32f0xx_hal_rcc.c **** 
 268:Drivers/STM32F0xx_HAL_Driver/Src/stm32f0xx_hal_rcc.c ****   /* Reset CFGR register */
 269:Drivers/STM32F0xx_HAL_Driver/Src/stm32f0xx_hal_rcc.c ****   CLEAR_REG(RCC->CFGR);
 270:Drivers/STM32F0xx_HAL_Driver/Src/stm32f0xx_hal_rcc.c **** 
ARM GAS  /tmp/cc0e6U0t.s 			page 7


 271:Drivers/STM32F0xx_HAL_Driver/Src/stm32f0xx_hal_rcc.c ****   /* Reset CFGR2 register */
 272:Drivers/STM32F0xx_HAL_Driver/Src/stm32f0xx_hal_rcc.c ****   CLEAR_REG(RCC->CFGR2);
 273:Drivers/STM32F0xx_HAL_Driver/Src/stm32f0xx_hal_rcc.c **** 
 274:Drivers/STM32F0xx_HAL_Driver/Src/stm32f0xx_hal_rcc.c ****   /* Reset CFGR3 register */
 275:Drivers/STM32F0xx_HAL_Driver/Src/stm32f0xx_hal_rcc.c ****   CLEAR_REG(RCC->CFGR3);
 276:Drivers/STM32F0xx_HAL_Driver/Src/stm32f0xx_hal_rcc.c **** 
 277:Drivers/STM32F0xx_HAL_Driver/Src/stm32f0xx_hal_rcc.c ****   /* Disable all interrupts */
 278:Drivers/STM32F0xx_HAL_Driver/Src/stm32f0xx_hal_rcc.c ****   CLEAR_REG(RCC->CIR);
 279:Drivers/STM32F0xx_HAL_Driver/Src/stm32f0xx_hal_rcc.c **** 
 280:Drivers/STM32F0xx_HAL_Driver/Src/stm32f0xx_hal_rcc.c ****   /* Clear all reset flags */
 281:Drivers/STM32F0xx_HAL_Driver/Src/stm32f0xx_hal_rcc.c ****   __HAL_RCC_CLEAR_RESET_FLAGS();
 282:Drivers/STM32F0xx_HAL_Driver/Src/stm32f0xx_hal_rcc.c **** 
 283:Drivers/STM32F0xx_HAL_Driver/Src/stm32f0xx_hal_rcc.c ****   return HAL_OK;
 284:Drivers/STM32F0xx_HAL_Driver/Src/stm32f0xx_hal_rcc.c **** }
  74              		.loc 1 284 1 view .LVU14
  75 0026 2000     		movs	r0, r4
  76              		@ sp needed
  77 0028 70BD     		pop	{r4, r5, r6, pc}
  78              	.LVL5:
  79              	.L13:
 230:Drivers/STM32F0xx_HAL_Driver/Src/stm32f0xx_hal_rcc.c **** 
  80              		.loc 1 230 3 is_stmt 1 view .LVU15
  81 002a 204A     		ldr	r2, .L17
  82 002c 5368     		ldr	r3, [r2, #4]
  83 002e 2049     		ldr	r1, .L17+4
  84 0030 0B40     		ands	r3, r1
  85 0032 5360     		str	r3, [r2, #4]
 233:Drivers/STM32F0xx_HAL_Driver/Src/stm32f0xx_hal_rcc.c ****   {
  86              		.loc 1 233 3 view .LVU16
  87              	.L5:
 233:Drivers/STM32F0xx_HAL_Driver/Src/stm32f0xx_hal_rcc.c ****   {
  88              		.loc 1 233 9 view .LVU17
 233:Drivers/STM32F0xx_HAL_Driver/Src/stm32f0xx_hal_rcc.c ****   {
  89              		.loc 1 233 10 is_stmt 0 view .LVU18
  90 0034 1D4B     		ldr	r3, .L17
  91 0036 5B68     		ldr	r3, [r3, #4]
  92 0038 0C22     		movs	r2, #12
 233:Drivers/STM32F0xx_HAL_Driver/Src/stm32f0xx_hal_rcc.c ****   {
  93              		.loc 1 233 9 view .LVU19
  94 003a 1A42     		tst	r2, r3
  95 003c 07D0     		beq	.L14
 235:Drivers/STM32F0xx_HAL_Driver/Src/stm32f0xx_hal_rcc.c ****     {
  96              		.loc 1 235 5 is_stmt 1 view .LVU20
 235:Drivers/STM32F0xx_HAL_Driver/Src/stm32f0xx_hal_rcc.c ****     {
  97              		.loc 1 235 10 is_stmt 0 view .LVU21
  98 003e FFF7FEFF 		bl	HAL_GetTick
  99              	.LVL6:
 235:Drivers/STM32F0xx_HAL_Driver/Src/stm32f0xx_hal_rcc.c ****     {
 100              		.loc 1 235 24 view .LVU22
 101 0042 001B     		subs	r0, r0, r4
 235:Drivers/STM32F0xx_HAL_Driver/Src/stm32f0xx_hal_rcc.c ****     {
 102              		.loc 1 235 8 view .LVU23
 103 0044 1B4B     		ldr	r3, .L17+8
 104 0046 9842     		cmp	r0, r3
 105 0048 F4D9     		bls	.L5
 237:Drivers/STM32F0xx_HAL_Driver/Src/stm32f0xx_hal_rcc.c ****     }
 106              		.loc 1 237 14 view .LVU24
ARM GAS  /tmp/cc0e6U0t.s 			page 8


 107 004a 0324     		movs	r4, #3
 108              	.LVL7:
 237:Drivers/STM32F0xx_HAL_Driver/Src/stm32f0xx_hal_rcc.c ****     }
 109              		.loc 1 237 14 view .LVU25
 110 004c EBE7     		b	.L3
 111              	.LVL8:
 112              	.L14:
 242:Drivers/STM32F0xx_HAL_Driver/Src/stm32f0xx_hal_rcc.c **** 
 113              		.loc 1 242 3 is_stmt 1 view .LVU26
 242:Drivers/STM32F0xx_HAL_Driver/Src/stm32f0xx_hal_rcc.c **** 
 114              		.loc 1 242 19 is_stmt 0 view .LVU27
 115 004e 1A4B     		ldr	r3, .L17+12
 116 0050 1A4A     		ldr	r2, .L17+16
 117 0052 1A60     		str	r2, [r3]
 245:Drivers/STM32F0xx_HAL_Driver/Src/stm32f0xx_hal_rcc.c ****   {
 118              		.loc 1 245 3 is_stmt 1 view .LVU28
 245:Drivers/STM32F0xx_HAL_Driver/Src/stm32f0xx_hal_rcc.c ****   {
 119              		.loc 1 245 7 is_stmt 0 view .LVU29
 120 0054 1A4B     		ldr	r3, .L17+20
 121 0056 1868     		ldr	r0, [r3]
 122 0058 FFF7FEFF 		bl	HAL_InitTick
 123              	.LVL9:
 124 005c 041E     		subs	r4, r0, #0
 125              	.LVL10:
 245:Drivers/STM32F0xx_HAL_Driver/Src/stm32f0xx_hal_rcc.c ****   {
 126              		.loc 1 245 6 view .LVU30
 127 005e 01D0     		beq	.L15
 247:Drivers/STM32F0xx_HAL_Driver/Src/stm32f0xx_hal_rcc.c ****   }
 128              		.loc 1 247 12 view .LVU31
 129 0060 0124     		movs	r4, #1
 130 0062 E0E7     		b	.L3
 131              	.L15:
 251:Drivers/STM32F0xx_HAL_Driver/Src/stm32f0xx_hal_rcc.c ****   
 132              		.loc 1 251 3 is_stmt 1 view .LVU32
 133 0064 114B     		ldr	r3, .L17
 134 0066 1A68     		ldr	r2, [r3]
 135 0068 1649     		ldr	r1, .L17+24
 136 006a 0A40     		ands	r2, r1
 137 006c 1A60     		str	r2, [r3]
 254:Drivers/STM32F0xx_HAL_Driver/Src/stm32f0xx_hal_rcc.c **** 
 138              		.loc 1 254 3 view .LVU33
 139 006e 1A68     		ldr	r2, [r3]
 140 0070 1549     		ldr	r1, .L17+28
 141 0072 0A40     		ands	r2, r1
 142 0074 1A60     		str	r2, [r3]
 257:Drivers/STM32F0xx_HAL_Driver/Src/stm32f0xx_hal_rcc.c ****   
 143              		.loc 1 257 3 view .LVU34
 257:Drivers/STM32F0xx_HAL_Driver/Src/stm32f0xx_hal_rcc.c ****   
 144              		.loc 1 257 15 is_stmt 0 view .LVU35
 145 0076 FFF7FEFF 		bl	HAL_GetTick
 146              	.LVL11:
 147 007a 0500     		movs	r5, r0
 148              	.LVL12:
 260:Drivers/STM32F0xx_HAL_Driver/Src/stm32f0xx_hal_rcc.c ****   {
 149              		.loc 1 260 3 is_stmt 1 view .LVU36
 150              	.L7:
 260:Drivers/STM32F0xx_HAL_Driver/Src/stm32f0xx_hal_rcc.c ****   {
ARM GAS  /tmp/cc0e6U0t.s 			page 9


 151              		.loc 1 260 8 view .LVU37
 260:Drivers/STM32F0xx_HAL_Driver/Src/stm32f0xx_hal_rcc.c ****   {
 152              		.loc 1 260 9 is_stmt 0 view .LVU38
 153 007c 0B4B     		ldr	r3, .L17
 154 007e 1B68     		ldr	r3, [r3]
 260:Drivers/STM32F0xx_HAL_Driver/Src/stm32f0xx_hal_rcc.c ****   {
 155              		.loc 1 260 8 view .LVU39
 156 0080 9B01     		lsls	r3, r3, #6
 157 0082 06D5     		bpl	.L16
 262:Drivers/STM32F0xx_HAL_Driver/Src/stm32f0xx_hal_rcc.c ****     {
 158              		.loc 1 262 5 is_stmt 1 view .LVU40
 262:Drivers/STM32F0xx_HAL_Driver/Src/stm32f0xx_hal_rcc.c ****     {
 159              		.loc 1 262 9 is_stmt 0 view .LVU41
 160 0084 FFF7FEFF 		bl	HAL_GetTick
 161              	.LVL13:
 262:Drivers/STM32F0xx_HAL_Driver/Src/stm32f0xx_hal_rcc.c ****     {
 162              		.loc 1 262 23 view .LVU42
 163 0088 401B     		subs	r0, r0, r5
 262:Drivers/STM32F0xx_HAL_Driver/Src/stm32f0xx_hal_rcc.c ****     {
 164              		.loc 1 262 7 view .LVU43
 165 008a 0228     		cmp	r0, #2
 166 008c F6D9     		bls	.L7
 264:Drivers/STM32F0xx_HAL_Driver/Src/stm32f0xx_hal_rcc.c ****     }
 167              		.loc 1 264 14 view .LVU44
 168 008e 0324     		movs	r4, #3
 169 0090 C9E7     		b	.L3
 170              	.L16:
 269:Drivers/STM32F0xx_HAL_Driver/Src/stm32f0xx_hal_rcc.c **** 
 171              		.loc 1 269 3 is_stmt 1 view .LVU45
 172 0092 064B     		ldr	r3, .L17
 173 0094 0022     		movs	r2, #0
 174 0096 5A60     		str	r2, [r3, #4]
 272:Drivers/STM32F0xx_HAL_Driver/Src/stm32f0xx_hal_rcc.c **** 
 175              		.loc 1 272 3 view .LVU46
 176 0098 DA62     		str	r2, [r3, #44]
 275:Drivers/STM32F0xx_HAL_Driver/Src/stm32f0xx_hal_rcc.c **** 
 177              		.loc 1 275 3 view .LVU47
 178 009a 1A63     		str	r2, [r3, #48]
 278:Drivers/STM32F0xx_HAL_Driver/Src/stm32f0xx_hal_rcc.c **** 
 179              		.loc 1 278 3 view .LVU48
 180 009c 9A60     		str	r2, [r3, #8]
 281:Drivers/STM32F0xx_HAL_Driver/Src/stm32f0xx_hal_rcc.c **** 
 181              		.loc 1 281 3 view .LVU49
 182 009e 596A     		ldr	r1, [r3, #36]
 183 00a0 8022     		movs	r2, #128
 184 00a2 5204     		lsls	r2, r2, #17
 185 00a4 0A43     		orrs	r2, r1
 186 00a6 5A62     		str	r2, [r3, #36]
 283:Drivers/STM32F0xx_HAL_Driver/Src/stm32f0xx_hal_rcc.c **** }
 187              		.loc 1 283 3 view .LVU50
 283:Drivers/STM32F0xx_HAL_Driver/Src/stm32f0xx_hal_rcc.c **** }
 188              		.loc 1 283 10 is_stmt 0 view .LVU51
 189 00a8 BDE7     		b	.L3
 190              	.L18:
 191 00aa C046     		.align	2
 192              	.L17:
 193 00ac 00100240 		.word	1073876992
ARM GAS  /tmp/cc0e6U0t.s 			page 10


 194 00b0 0CF8FFF0 		.word	-251660276
 195 00b4 88130000 		.word	5000
 196 00b8 00000000 		.word	SystemCoreClock
 197 00bc 00127A00 		.word	8000000
 198 00c0 00000000 		.word	uwTickPrio
 199 00c4 FFFFF6FE 		.word	-17367041
 200 00c8 FFFFFBFF 		.word	-262145
 201              		.cfi_endproc
 202              	.LFE40:
 204              		.section	.rodata.HAL_RCC_OscConfig.str1.4,"aMS",%progbits,1
 205              		.align	2
 206              	.LC2:
 207 0000 44726976 		.ascii	"Drivers/STM32F0xx_HAL_Driver/Src/stm32f0xx_hal_rcc."
 207      6572732F 
 207      53544D33 
 207      32463078 
 207      785F4841 
 208 0033 6300     		.ascii	"c\000"
 209              		.section	.text.HAL_RCC_OscConfig,"ax",%progbits
 210              		.align	1
 211              		.global	HAL_RCC_OscConfig
 212              		.syntax unified
 213              		.code	16
 214              		.thumb_func
 216              	HAL_RCC_OscConfig:
 217              	.LVL14:
 218              	.LFB41:
 285:Drivers/STM32F0xx_HAL_Driver/Src/stm32f0xx_hal_rcc.c **** 
 286:Drivers/STM32F0xx_HAL_Driver/Src/stm32f0xx_hal_rcc.c **** /**
 287:Drivers/STM32F0xx_HAL_Driver/Src/stm32f0xx_hal_rcc.c ****   * @brief  Initializes the RCC Oscillators according to the specified parameters in the
 288:Drivers/STM32F0xx_HAL_Driver/Src/stm32f0xx_hal_rcc.c ****   *         RCC_OscInitTypeDef.
 289:Drivers/STM32F0xx_HAL_Driver/Src/stm32f0xx_hal_rcc.c ****   * @param  RCC_OscInitStruct pointer to an RCC_OscInitTypeDef structure that
 290:Drivers/STM32F0xx_HAL_Driver/Src/stm32f0xx_hal_rcc.c ****   *         contains the configuration information for the RCC Oscillators.
 291:Drivers/STM32F0xx_HAL_Driver/Src/stm32f0xx_hal_rcc.c ****   * @note   The PLL is not disabled when used as system clock.
 292:Drivers/STM32F0xx_HAL_Driver/Src/stm32f0xx_hal_rcc.c ****   * @note   Transitions LSE Bypass to LSE On and LSE On to LSE Bypass are not
 293:Drivers/STM32F0xx_HAL_Driver/Src/stm32f0xx_hal_rcc.c ****   *         supported by this macro. User should request a transition to LSE Off
 294:Drivers/STM32F0xx_HAL_Driver/Src/stm32f0xx_hal_rcc.c ****   *         first and then LSE On or LSE Bypass.
 295:Drivers/STM32F0xx_HAL_Driver/Src/stm32f0xx_hal_rcc.c ****   * @note   Transition HSE Bypass to HSE On and HSE On to HSE Bypass are not
 296:Drivers/STM32F0xx_HAL_Driver/Src/stm32f0xx_hal_rcc.c ****   *         supported by this macro. User should request a transition to HSE Off
 297:Drivers/STM32F0xx_HAL_Driver/Src/stm32f0xx_hal_rcc.c ****   *         first and then HSE On or HSE Bypass.
 298:Drivers/STM32F0xx_HAL_Driver/Src/stm32f0xx_hal_rcc.c ****   * @retval HAL status
 299:Drivers/STM32F0xx_HAL_Driver/Src/stm32f0xx_hal_rcc.c ****   */
 300:Drivers/STM32F0xx_HAL_Driver/Src/stm32f0xx_hal_rcc.c **** HAL_StatusTypeDef HAL_RCC_OscConfig(RCC_OscInitTypeDef  *RCC_OscInitStruct)
 301:Drivers/STM32F0xx_HAL_Driver/Src/stm32f0xx_hal_rcc.c **** {
 219              		.loc 1 301 1 is_stmt 1 view -0
 220              		.cfi_startproc
 221              		@ args = 0, pretend = 0, frame = 8
 222              		@ frame_needed = 0, uses_anonymous_args = 0
 223              		.loc 1 301 1 is_stmt 0 view .LVU53
 224 0000 70B5     		push	{r4, r5, r6, lr}
 225              	.LCFI1:
 226              		.cfi_def_cfa_offset 16
 227              		.cfi_offset 4, -16
 228              		.cfi_offset 5, -12
 229              		.cfi_offset 6, -8
 230              		.cfi_offset 14, -4
 231 0002 82B0     		sub	sp, sp, #8
ARM GAS  /tmp/cc0e6U0t.s 			page 11


 232              	.LCFI2:
 233              		.cfi_def_cfa_offset 24
 234 0004 041E     		subs	r4, r0, #0
 302:Drivers/STM32F0xx_HAL_Driver/Src/stm32f0xx_hal_rcc.c ****   uint32_t tickstart;
 235              		.loc 1 302 3 is_stmt 1 view .LVU54
 303:Drivers/STM32F0xx_HAL_Driver/Src/stm32f0xx_hal_rcc.c ****   uint32_t pll_config;
 236              		.loc 1 303 3 view .LVU55
 304:Drivers/STM32F0xx_HAL_Driver/Src/stm32f0xx_hal_rcc.c ****   uint32_t pll_config2;
 237              		.loc 1 304 3 view .LVU56
 305:Drivers/STM32F0xx_HAL_Driver/Src/stm32f0xx_hal_rcc.c **** 
 306:Drivers/STM32F0xx_HAL_Driver/Src/stm32f0xx_hal_rcc.c ****   /* Check Null pointer */
 307:Drivers/STM32F0xx_HAL_Driver/Src/stm32f0xx_hal_rcc.c ****   if(RCC_OscInitStruct == NULL)
 238              		.loc 1 307 3 view .LVU57
 239              		.loc 1 307 5 is_stmt 0 view .LVU58
 240 0006 00D1     		bne	.LCB195
 241 0008 E5E2     		b	.L90	@long jump
 242              	.LCB195:
 308:Drivers/STM32F0xx_HAL_Driver/Src/stm32f0xx_hal_rcc.c ****   {
 309:Drivers/STM32F0xx_HAL_Driver/Src/stm32f0xx_hal_rcc.c ****     return HAL_ERROR;
 310:Drivers/STM32F0xx_HAL_Driver/Src/stm32f0xx_hal_rcc.c ****   }
 311:Drivers/STM32F0xx_HAL_Driver/Src/stm32f0xx_hal_rcc.c **** 
 312:Drivers/STM32F0xx_HAL_Driver/Src/stm32f0xx_hal_rcc.c ****   /* Check the parameters */
 313:Drivers/STM32F0xx_HAL_Driver/Src/stm32f0xx_hal_rcc.c ****   assert_param(IS_RCC_OSCILLATORTYPE(RCC_OscInitStruct->OscillatorType));
 243              		.loc 1 313 3 is_stmt 1 view .LVU59
 244 000a 0368     		ldr	r3, [r0]
 245 000c 002B     		cmp	r3, #0
 246 000e 01D0     		beq	.L21
 247              		.loc 1 313 3 is_stmt 0 discriminator 1 view .LVU60
 248 0010 DB06     		lsls	r3, r3, #27
 249 0012 22D0     		beq	.L113
 250              	.LVL15:
 251              	.L21:
 314:Drivers/STM32F0xx_HAL_Driver/Src/stm32f0xx_hal_rcc.c **** 
 315:Drivers/STM32F0xx_HAL_Driver/Src/stm32f0xx_hal_rcc.c ****   /*------------------------------- HSE Configuration ------------------------*/ 
 316:Drivers/STM32F0xx_HAL_Driver/Src/stm32f0xx_hal_rcc.c ****   if(((RCC_OscInitStruct->OscillatorType) & RCC_OSCILLATORTYPE_HSE) == RCC_OSCILLATORTYPE_HSE)
 252              		.loc 1 316 3 is_stmt 1 view .LVU61
 253              		.loc 1 316 5 is_stmt 0 view .LVU62
 254 0014 2368     		ldr	r3, [r4]
 255 0016 DB07     		lsls	r3, r3, #31
 256 0018 37D5     		bpl	.L22
 317:Drivers/STM32F0xx_HAL_Driver/Src/stm32f0xx_hal_rcc.c ****   {
 318:Drivers/STM32F0xx_HAL_Driver/Src/stm32f0xx_hal_rcc.c ****     /* Check the parameters */
 319:Drivers/STM32F0xx_HAL_Driver/Src/stm32f0xx_hal_rcc.c ****     assert_param(IS_RCC_HSE(RCC_OscInitStruct->HSEState));
 257              		.loc 1 319 5 is_stmt 1 view .LVU63
 258 001a 6368     		ldr	r3, [r4, #4]
 259 001c 012B     		cmp	r3, #1
 260 001e 01D9     		bls	.L23
 261              		.loc 1 319 5 is_stmt 0 discriminator 1 view .LVU64
 262 0020 052B     		cmp	r3, #5
 263 0022 20D1     		bne	.L114
 264              	.L23:
 320:Drivers/STM32F0xx_HAL_Driver/Src/stm32f0xx_hal_rcc.c **** 
 321:Drivers/STM32F0xx_HAL_Driver/Src/stm32f0xx_hal_rcc.c ****     /* When the HSE is used as system clock or clock source for PLL in these cases it is not allowe
 322:Drivers/STM32F0xx_HAL_Driver/Src/stm32f0xx_hal_rcc.c ****     if((__HAL_RCC_GET_SYSCLK_SOURCE() == RCC_SYSCLKSOURCE_STATUS_HSE) 
 265              		.loc 1 322 5 is_stmt 1 view .LVU65
 266              		.loc 1 322 9 is_stmt 0 view .LVU66
 267 0024 C04B     		ldr	r3, .L140
ARM GAS  /tmp/cc0e6U0t.s 			page 12


 268 0026 5A68     		ldr	r2, [r3, #4]
 269 0028 0C23     		movs	r3, #12
 270 002a 1340     		ands	r3, r2
 271              		.loc 1 322 7 view .LVU67
 272 002c 042B     		cmp	r3, #4
 273 002e 24D0     		beq	.L24
 323:Drivers/STM32F0xx_HAL_Driver/Src/stm32f0xx_hal_rcc.c ****        || ((__HAL_RCC_GET_SYSCLK_SOURCE() == RCC_SYSCLKSOURCE_STATUS_PLLCLK) && (__HAL_RCC_GET_PLL_
 274              		.loc 1 323 13 view .LVU68
 275 0030 BD4B     		ldr	r3, .L140
 276 0032 5A68     		ldr	r2, [r3, #4]
 277 0034 0C23     		movs	r3, #12
 278 0036 1340     		ands	r3, r2
 279              		.loc 1 323 8 view .LVU69
 280 0038 082B     		cmp	r3, #8
 281 003a 1AD0     		beq	.L115
 282              	.L25:
 324:Drivers/STM32F0xx_HAL_Driver/Src/stm32f0xx_hal_rcc.c ****     {
 325:Drivers/STM32F0xx_HAL_Driver/Src/stm32f0xx_hal_rcc.c ****       if((__HAL_RCC_GET_FLAG(RCC_FLAG_HSERDY) != RESET) && (RCC_OscInitStruct->HSEState == RCC_HSE_
 326:Drivers/STM32F0xx_HAL_Driver/Src/stm32f0xx_hal_rcc.c ****       {
 327:Drivers/STM32F0xx_HAL_Driver/Src/stm32f0xx_hal_rcc.c ****         return HAL_ERROR;
 328:Drivers/STM32F0xx_HAL_Driver/Src/stm32f0xx_hal_rcc.c ****       }
 329:Drivers/STM32F0xx_HAL_Driver/Src/stm32f0xx_hal_rcc.c ****     }
 330:Drivers/STM32F0xx_HAL_Driver/Src/stm32f0xx_hal_rcc.c ****     else
 331:Drivers/STM32F0xx_HAL_Driver/Src/stm32f0xx_hal_rcc.c ****     {
 332:Drivers/STM32F0xx_HAL_Driver/Src/stm32f0xx_hal_rcc.c ****       /* Set the new HSE configuration ---------------------------------------*/
 333:Drivers/STM32F0xx_HAL_Driver/Src/stm32f0xx_hal_rcc.c ****       __HAL_RCC_HSE_CONFIG(RCC_OscInitStruct->HSEState);
 283              		.loc 1 333 7 is_stmt 1 view .LVU70
 284              		.loc 1 333 7 view .LVU71
 285 003c 6368     		ldr	r3, [r4, #4]
 286 003e 012B     		cmp	r3, #1
 287 0040 4FD0     		beq	.L116
 288              		.loc 1 333 7 discriminator 2 view .LVU72
 289 0042 002B     		cmp	r3, #0
 290 0044 64D1     		bne	.L28
 291              		.loc 1 333 7 discriminator 4 view .LVU73
 292 0046 B84B     		ldr	r3, .L140
 293 0048 1A68     		ldr	r2, [r3]
 294 004a B849     		ldr	r1, .L140+4
 295 004c 0A40     		ands	r2, r1
 296 004e 1A60     		str	r2, [r3]
 297              		.loc 1 333 7 discriminator 4 view .LVU74
 298 0050 1A68     		ldr	r2, [r3]
 299 0052 B749     		ldr	r1, .L140+8
 300 0054 0A40     		ands	r2, r1
 301 0056 1A60     		str	r2, [r3]
 302 0058 49E0     		b	.L27
 303              	.LVL16:
 304              	.L113:
 313:Drivers/STM32F0xx_HAL_Driver/Src/stm32f0xx_hal_rcc.c **** 
 305              		.loc 1 313 3 is_stmt 0 discriminator 2 view .LVU75
 306 005a 3A21     		movs	r1, #58
 307 005c FF31     		adds	r1, r1, #255
 308 005e B548     		ldr	r0, .L140+12
 309              	.LVL17:
 313:Drivers/STM32F0xx_HAL_Driver/Src/stm32f0xx_hal_rcc.c **** 
 310              		.loc 1 313 3 discriminator 2 view .LVU76
 311 0060 FFF7FEFF 		bl	assert_failed
ARM GAS  /tmp/cc0e6U0t.s 			page 13


 312              	.LVL18:
 313 0064 D6E7     		b	.L21
 314              	.L114:
 319:Drivers/STM32F0xx_HAL_Driver/Src/stm32f0xx_hal_rcc.c **** 
 315              		.loc 1 319 5 discriminator 2 view .LVU77
 316 0066 4021     		movs	r1, #64
 317 0068 FF31     		adds	r1, r1, #255
 318 006a B248     		ldr	r0, .L140+12
 319 006c FFF7FEFF 		bl	assert_failed
 320              	.LVL19:
 321 0070 D8E7     		b	.L23
 322              	.L115:
 323:Drivers/STM32F0xx_HAL_Driver/Src/stm32f0xx_hal_rcc.c ****     {
 323              		.loc 1 323 82 discriminator 1 view .LVU78
 324 0072 AD4B     		ldr	r3, .L140
 325 0074 5B68     		ldr	r3, [r3, #4]
 323:Drivers/STM32F0xx_HAL_Driver/Src/stm32f0xx_hal_rcc.c ****     {
 326              		.loc 1 323 78 discriminator 1 view .LVU79
 327 0076 DB03     		lsls	r3, r3, #15
 328 0078 E0D5     		bpl	.L25
 329              	.L24:
 325:Drivers/STM32F0xx_HAL_Driver/Src/stm32f0xx_hal_rcc.c ****       {
 330              		.loc 1 325 7 is_stmt 1 view .LVU80
 325:Drivers/STM32F0xx_HAL_Driver/Src/stm32f0xx_hal_rcc.c ****       {
 331              		.loc 1 325 11 is_stmt 0 view .LVU81
 332 007a AB4B     		ldr	r3, .L140
 333 007c 1B68     		ldr	r3, [r3]
 325:Drivers/STM32F0xx_HAL_Driver/Src/stm32f0xx_hal_rcc.c ****       {
 334              		.loc 1 325 9 view .LVU82
 335 007e 9B03     		lsls	r3, r3, #14
 336 0080 03D5     		bpl	.L22
 325:Drivers/STM32F0xx_HAL_Driver/Src/stm32f0xx_hal_rcc.c ****       {
 337              		.loc 1 325 57 discriminator 1 view .LVU83
 338 0082 6368     		ldr	r3, [r4, #4]
 339 0084 002B     		cmp	r3, #0
 340 0086 00D1     		bne	.LCB293
 341 0088 A8E2     		b	.L117	@long jump
 342              	.LCB293:
 343              	.L22:
 334:Drivers/STM32F0xx_HAL_Driver/Src/stm32f0xx_hal_rcc.c ****       
 335:Drivers/STM32F0xx_HAL_Driver/Src/stm32f0xx_hal_rcc.c **** 
 336:Drivers/STM32F0xx_HAL_Driver/Src/stm32f0xx_hal_rcc.c ****        /* Check the HSE State */
 337:Drivers/STM32F0xx_HAL_Driver/Src/stm32f0xx_hal_rcc.c ****       if(RCC_OscInitStruct->HSEState != RCC_HSE_OFF)
 338:Drivers/STM32F0xx_HAL_Driver/Src/stm32f0xx_hal_rcc.c ****       {
 339:Drivers/STM32F0xx_HAL_Driver/Src/stm32f0xx_hal_rcc.c ****         /* Get Start Tick */
 340:Drivers/STM32F0xx_HAL_Driver/Src/stm32f0xx_hal_rcc.c ****         tickstart = HAL_GetTick();
 341:Drivers/STM32F0xx_HAL_Driver/Src/stm32f0xx_hal_rcc.c ****         
 342:Drivers/STM32F0xx_HAL_Driver/Src/stm32f0xx_hal_rcc.c ****         /* Wait till HSE is ready */
 343:Drivers/STM32F0xx_HAL_Driver/Src/stm32f0xx_hal_rcc.c ****         while(__HAL_RCC_GET_FLAG(RCC_FLAG_HSERDY) == RESET)
 344:Drivers/STM32F0xx_HAL_Driver/Src/stm32f0xx_hal_rcc.c ****         {
 345:Drivers/STM32F0xx_HAL_Driver/Src/stm32f0xx_hal_rcc.c ****           if((HAL_GetTick() - tickstart ) > HSE_TIMEOUT_VALUE)
 346:Drivers/STM32F0xx_HAL_Driver/Src/stm32f0xx_hal_rcc.c ****           {
 347:Drivers/STM32F0xx_HAL_Driver/Src/stm32f0xx_hal_rcc.c ****             return HAL_TIMEOUT;
 348:Drivers/STM32F0xx_HAL_Driver/Src/stm32f0xx_hal_rcc.c ****           }
 349:Drivers/STM32F0xx_HAL_Driver/Src/stm32f0xx_hal_rcc.c ****         }
 350:Drivers/STM32F0xx_HAL_Driver/Src/stm32f0xx_hal_rcc.c ****       }
 351:Drivers/STM32F0xx_HAL_Driver/Src/stm32f0xx_hal_rcc.c ****       else
ARM GAS  /tmp/cc0e6U0t.s 			page 14


 352:Drivers/STM32F0xx_HAL_Driver/Src/stm32f0xx_hal_rcc.c ****       {
 353:Drivers/STM32F0xx_HAL_Driver/Src/stm32f0xx_hal_rcc.c ****         /* Get Start Tick */
 354:Drivers/STM32F0xx_HAL_Driver/Src/stm32f0xx_hal_rcc.c ****         tickstart = HAL_GetTick();
 355:Drivers/STM32F0xx_HAL_Driver/Src/stm32f0xx_hal_rcc.c ****         
 356:Drivers/STM32F0xx_HAL_Driver/Src/stm32f0xx_hal_rcc.c ****         /* Wait till HSE is disabled */
 357:Drivers/STM32F0xx_HAL_Driver/Src/stm32f0xx_hal_rcc.c ****         while(__HAL_RCC_GET_FLAG(RCC_FLAG_HSERDY) != RESET)
 358:Drivers/STM32F0xx_HAL_Driver/Src/stm32f0xx_hal_rcc.c ****         {
 359:Drivers/STM32F0xx_HAL_Driver/Src/stm32f0xx_hal_rcc.c ****            if((HAL_GetTick() - tickstart ) > HSE_TIMEOUT_VALUE)
 360:Drivers/STM32F0xx_HAL_Driver/Src/stm32f0xx_hal_rcc.c ****           {
 361:Drivers/STM32F0xx_HAL_Driver/Src/stm32f0xx_hal_rcc.c ****             return HAL_TIMEOUT;
 362:Drivers/STM32F0xx_HAL_Driver/Src/stm32f0xx_hal_rcc.c ****           }
 363:Drivers/STM32F0xx_HAL_Driver/Src/stm32f0xx_hal_rcc.c ****         }
 364:Drivers/STM32F0xx_HAL_Driver/Src/stm32f0xx_hal_rcc.c ****       }
 365:Drivers/STM32F0xx_HAL_Driver/Src/stm32f0xx_hal_rcc.c ****     }
 366:Drivers/STM32F0xx_HAL_Driver/Src/stm32f0xx_hal_rcc.c ****   }
 367:Drivers/STM32F0xx_HAL_Driver/Src/stm32f0xx_hal_rcc.c ****   /*----------------------------- HSI Configuration --------------------------*/ 
 368:Drivers/STM32F0xx_HAL_Driver/Src/stm32f0xx_hal_rcc.c ****   if(((RCC_OscInitStruct->OscillatorType) & RCC_OSCILLATORTYPE_HSI) == RCC_OSCILLATORTYPE_HSI)
 344              		.loc 1 368 3 is_stmt 1 view .LVU84
 345              		.loc 1 368 5 is_stmt 0 view .LVU85
 346 008a 2368     		ldr	r3, [r4]
 347 008c 9B07     		lsls	r3, r3, #30
 348 008e 00D4     		bmi	.LCB302
 349 0090 84E0     		b	.L35	@long jump
 350              	.LCB302:
 369:Drivers/STM32F0xx_HAL_Driver/Src/stm32f0xx_hal_rcc.c ****   {
 370:Drivers/STM32F0xx_HAL_Driver/Src/stm32f0xx_hal_rcc.c ****     /* Check the parameters */
 371:Drivers/STM32F0xx_HAL_Driver/Src/stm32f0xx_hal_rcc.c ****     assert_param(IS_RCC_HSI(RCC_OscInitStruct->HSIState));
 351              		.loc 1 371 5 is_stmt 1 view .LVU86
 352 0092 E368     		ldr	r3, [r4, #12]
 353 0094 012B     		cmp	r3, #1
 354 0096 61D8     		bhi	.L118
 355              	.L36:
 372:Drivers/STM32F0xx_HAL_Driver/Src/stm32f0xx_hal_rcc.c ****     assert_param(IS_RCC_CALIBRATION_VALUE(RCC_OscInitStruct->HSICalibrationValue));
 356              		.loc 1 372 5 view .LVU87
 357 0098 2369     		ldr	r3, [r4, #16]
 358 009a 1F2B     		cmp	r3, #31
 359 009c 64D8     		bhi	.L119
 360              	.L37:
 373:Drivers/STM32F0xx_HAL_Driver/Src/stm32f0xx_hal_rcc.c ****     
 374:Drivers/STM32F0xx_HAL_Driver/Src/stm32f0xx_hal_rcc.c ****     /* Check if HSI is used as system clock or as PLL source when PLL is selected as system clock *
 375:Drivers/STM32F0xx_HAL_Driver/Src/stm32f0xx_hal_rcc.c ****     if((__HAL_RCC_GET_SYSCLK_SOURCE() == RCC_SYSCLKSOURCE_STATUS_HSI) 
 361              		.loc 1 375 5 view .LVU88
 362              		.loc 1 375 9 is_stmt 0 view .LVU89
 363 009e A24B     		ldr	r3, .L140
 364 00a0 5B68     		ldr	r3, [r3, #4]
 365 00a2 0C22     		movs	r2, #12
 366              		.loc 1 375 7 view .LVU90
 367 00a4 1A42     		tst	r2, r3
 368 00a6 69D0     		beq	.L38
 376:Drivers/STM32F0xx_HAL_Driver/Src/stm32f0xx_hal_rcc.c ****        || ((__HAL_RCC_GET_SYSCLK_SOURCE() == RCC_SYSCLKSOURCE_STATUS_PLLCLK) && (__HAL_RCC_GET_PLL_
 369              		.loc 1 376 13 view .LVU91
 370 00a8 9F4B     		ldr	r3, .L140
 371 00aa 5A68     		ldr	r2, [r3, #4]
 372 00ac 0C23     		movs	r3, #12
 373 00ae 1340     		ands	r3, r2
 374              		.loc 1 376 8 view .LVU92
 375 00b0 082B     		cmp	r3, #8
ARM GAS  /tmp/cc0e6U0t.s 			page 15


 376 00b2 5FD0     		beq	.L120
 377              	.L39:
 377:Drivers/STM32F0xx_HAL_Driver/Src/stm32f0xx_hal_rcc.c ****     {
 378:Drivers/STM32F0xx_HAL_Driver/Src/stm32f0xx_hal_rcc.c ****       /* When HSI is used as system clock it will not disabled */
 379:Drivers/STM32F0xx_HAL_Driver/Src/stm32f0xx_hal_rcc.c ****       if((__HAL_RCC_GET_FLAG(RCC_FLAG_HSIRDY) != RESET) && (RCC_OscInitStruct->HSIState != RCC_HSI_
 380:Drivers/STM32F0xx_HAL_Driver/Src/stm32f0xx_hal_rcc.c ****       {
 381:Drivers/STM32F0xx_HAL_Driver/Src/stm32f0xx_hal_rcc.c ****         return HAL_ERROR;
 382:Drivers/STM32F0xx_HAL_Driver/Src/stm32f0xx_hal_rcc.c ****       }
 383:Drivers/STM32F0xx_HAL_Driver/Src/stm32f0xx_hal_rcc.c ****       /* Otherwise, just the calibration is allowed */
 384:Drivers/STM32F0xx_HAL_Driver/Src/stm32f0xx_hal_rcc.c ****       else
 385:Drivers/STM32F0xx_HAL_Driver/Src/stm32f0xx_hal_rcc.c ****       {
 386:Drivers/STM32F0xx_HAL_Driver/Src/stm32f0xx_hal_rcc.c ****         /* Adjusts the Internal High Speed oscillator (HSI) calibration value.*/
 387:Drivers/STM32F0xx_HAL_Driver/Src/stm32f0xx_hal_rcc.c ****         __HAL_RCC_HSI_CALIBRATIONVALUE_ADJUST(RCC_OscInitStruct->HSICalibrationValue);
 388:Drivers/STM32F0xx_HAL_Driver/Src/stm32f0xx_hal_rcc.c ****       }
 389:Drivers/STM32F0xx_HAL_Driver/Src/stm32f0xx_hal_rcc.c ****     }
 390:Drivers/STM32F0xx_HAL_Driver/Src/stm32f0xx_hal_rcc.c ****     else
 391:Drivers/STM32F0xx_HAL_Driver/Src/stm32f0xx_hal_rcc.c ****     {
 392:Drivers/STM32F0xx_HAL_Driver/Src/stm32f0xx_hal_rcc.c ****       /* Check the HSI State */
 393:Drivers/STM32F0xx_HAL_Driver/Src/stm32f0xx_hal_rcc.c ****       if(RCC_OscInitStruct->HSIState != RCC_HSI_OFF)
 378              		.loc 1 393 7 is_stmt 1 view .LVU93
 379              		.loc 1 393 9 is_stmt 0 view .LVU94
 380 00b4 E368     		ldr	r3, [r4, #12]
 381 00b6 002B     		cmp	r3, #0
 382 00b8 00D1     		bne	.LCB333
 383 00ba 94E0     		b	.L41	@long jump
 384              	.LCB333:
 394:Drivers/STM32F0xx_HAL_Driver/Src/stm32f0xx_hal_rcc.c ****       {
 395:Drivers/STM32F0xx_HAL_Driver/Src/stm32f0xx_hal_rcc.c ****        /* Enable the Internal High Speed oscillator (HSI). */
 396:Drivers/STM32F0xx_HAL_Driver/Src/stm32f0xx_hal_rcc.c ****         __HAL_RCC_HSI_ENABLE();
 385              		.loc 1 396 9 is_stmt 1 view .LVU95
 386 00bc 9A4A     		ldr	r2, .L140
 387 00be 1368     		ldr	r3, [r2]
 388 00c0 0121     		movs	r1, #1
 389 00c2 0B43     		orrs	r3, r1
 390 00c4 1360     		str	r3, [r2]
 397:Drivers/STM32F0xx_HAL_Driver/Src/stm32f0xx_hal_rcc.c ****         
 398:Drivers/STM32F0xx_HAL_Driver/Src/stm32f0xx_hal_rcc.c ****         /* Get Start Tick */
 399:Drivers/STM32F0xx_HAL_Driver/Src/stm32f0xx_hal_rcc.c ****         tickstart = HAL_GetTick();
 391              		.loc 1 399 9 view .LVU96
 392              		.loc 1 399 21 is_stmt 0 view .LVU97
 393 00c6 FFF7FEFF 		bl	HAL_GetTick
 394              	.LVL20:
 395 00ca 0500     		movs	r5, r0
 396              	.LVL21:
 400:Drivers/STM32F0xx_HAL_Driver/Src/stm32f0xx_hal_rcc.c ****         
 401:Drivers/STM32F0xx_HAL_Driver/Src/stm32f0xx_hal_rcc.c ****         /* Wait till HSI is ready */
 402:Drivers/STM32F0xx_HAL_Driver/Src/stm32f0xx_hal_rcc.c ****         while(__HAL_RCC_GET_FLAG(RCC_FLAG_HSIRDY) == RESET)
 397              		.loc 1 402 9 is_stmt 1 view .LVU98
 398              	.L42:
 399              		.loc 1 402 14 view .LVU99
 400              		.loc 1 402 15 is_stmt 0 view .LVU100
 401 00cc 964B     		ldr	r3, .L140
 402 00ce 1B68     		ldr	r3, [r3]
 403              		.loc 1 402 14 view .LVU101
 404 00d0 9B07     		lsls	r3, r3, #30
 405 00d2 7FD4     		bmi	.L121
 403:Drivers/STM32F0xx_HAL_Driver/Src/stm32f0xx_hal_rcc.c ****         {
ARM GAS  /tmp/cc0e6U0t.s 			page 16


 404:Drivers/STM32F0xx_HAL_Driver/Src/stm32f0xx_hal_rcc.c ****           if((HAL_GetTick() - tickstart ) > HSI_TIMEOUT_VALUE)
 406              		.loc 1 404 11 is_stmt 1 view .LVU102
 407              		.loc 1 404 15 is_stmt 0 view .LVU103
 408 00d4 FFF7FEFF 		bl	HAL_GetTick
 409              	.LVL22:
 410              		.loc 1 404 29 view .LVU104
 411 00d8 401B     		subs	r0, r0, r5
 412              		.loc 1 404 13 view .LVU105
 413 00da 0228     		cmp	r0, #2
 414 00dc F6D9     		bls	.L42
 405:Drivers/STM32F0xx_HAL_Driver/Src/stm32f0xx_hal_rcc.c ****           {
 406:Drivers/STM32F0xx_HAL_Driver/Src/stm32f0xx_hal_rcc.c ****             return HAL_TIMEOUT;
 415              		.loc 1 406 20 view .LVU106
 416 00de 0320     		movs	r0, #3
 417 00e0 7AE2     		b	.L20
 418              	.LVL23:
 419              	.L116:
 333:Drivers/STM32F0xx_HAL_Driver/Src/stm32f0xx_hal_rcc.c ****       
 420              		.loc 1 333 7 is_stmt 1 discriminator 1 view .LVU107
 421 00e2 914A     		ldr	r2, .L140
 422 00e4 1168     		ldr	r1, [r2]
 423 00e6 8023     		movs	r3, #128
 424 00e8 5B02     		lsls	r3, r3, #9
 425 00ea 0B43     		orrs	r3, r1
 426 00ec 1360     		str	r3, [r2]
 427              	.L27:
 333:Drivers/STM32F0xx_HAL_Driver/Src/stm32f0xx_hal_rcc.c ****       
 428              		.loc 1 333 7 discriminator 10 view .LVU108
 337:Drivers/STM32F0xx_HAL_Driver/Src/stm32f0xx_hal_rcc.c ****       {
 429              		.loc 1 337 7 discriminator 10 view .LVU109
 337:Drivers/STM32F0xx_HAL_Driver/Src/stm32f0xx_hal_rcc.c ****       {
 430              		.loc 1 337 9 is_stmt 0 discriminator 10 view .LVU110
 431 00ee 6368     		ldr	r3, [r4, #4]
 432 00f0 002B     		cmp	r3, #0
 433 00f2 25D0     		beq	.L30
 340:Drivers/STM32F0xx_HAL_Driver/Src/stm32f0xx_hal_rcc.c ****         
 434              		.loc 1 340 9 is_stmt 1 view .LVU111
 340:Drivers/STM32F0xx_HAL_Driver/Src/stm32f0xx_hal_rcc.c ****         
 435              		.loc 1 340 21 is_stmt 0 view .LVU112
 436 00f4 FFF7FEFF 		bl	HAL_GetTick
 437              	.LVL24:
 438 00f8 0500     		movs	r5, r0
 439              	.LVL25:
 343:Drivers/STM32F0xx_HAL_Driver/Src/stm32f0xx_hal_rcc.c ****         {
 440              		.loc 1 343 9 is_stmt 1 view .LVU113
 441              	.L31:
 343:Drivers/STM32F0xx_HAL_Driver/Src/stm32f0xx_hal_rcc.c ****         {
 442              		.loc 1 343 14 view .LVU114
 343:Drivers/STM32F0xx_HAL_Driver/Src/stm32f0xx_hal_rcc.c ****         {
 443              		.loc 1 343 15 is_stmt 0 view .LVU115
 444 00fa 8B4B     		ldr	r3, .L140
 445 00fc 1B68     		ldr	r3, [r3]
 343:Drivers/STM32F0xx_HAL_Driver/Src/stm32f0xx_hal_rcc.c ****         {
 446              		.loc 1 343 14 view .LVU116
 447 00fe 9B03     		lsls	r3, r3, #14
 448 0100 C3D4     		bmi	.L22
 345:Drivers/STM32F0xx_HAL_Driver/Src/stm32f0xx_hal_rcc.c ****           {
ARM GAS  /tmp/cc0e6U0t.s 			page 17


 449              		.loc 1 345 11 is_stmt 1 view .LVU117
 345:Drivers/STM32F0xx_HAL_Driver/Src/stm32f0xx_hal_rcc.c ****           {
 450              		.loc 1 345 15 is_stmt 0 view .LVU118
 451 0102 FFF7FEFF 		bl	HAL_GetTick
 452              	.LVL26:
 345:Drivers/STM32F0xx_HAL_Driver/Src/stm32f0xx_hal_rcc.c ****           {
 453              		.loc 1 345 29 view .LVU119
 454 0106 401B     		subs	r0, r0, r5
 345:Drivers/STM32F0xx_HAL_Driver/Src/stm32f0xx_hal_rcc.c ****           {
 455              		.loc 1 345 13 view .LVU120
 456 0108 6428     		cmp	r0, #100
 457 010a F6D9     		bls	.L31
 347:Drivers/STM32F0xx_HAL_Driver/Src/stm32f0xx_hal_rcc.c ****           }
 458              		.loc 1 347 20 view .LVU121
 459 010c 0320     		movs	r0, #3
 460 010e 63E2     		b	.L20
 461              	.LVL27:
 462              	.L28:
 333:Drivers/STM32F0xx_HAL_Driver/Src/stm32f0xx_hal_rcc.c ****       
 463              		.loc 1 333 7 is_stmt 1 discriminator 5 view .LVU122
 464 0110 052B     		cmp	r3, #5
 465 0112 09D0     		beq	.L122
 333:Drivers/STM32F0xx_HAL_Driver/Src/stm32f0xx_hal_rcc.c ****       
 466              		.loc 1 333 7 discriminator 8 view .LVU123
 467 0114 844B     		ldr	r3, .L140
 468 0116 1A68     		ldr	r2, [r3]
 469 0118 8449     		ldr	r1, .L140+4
 470 011a 0A40     		ands	r2, r1
 471 011c 1A60     		str	r2, [r3]
 333:Drivers/STM32F0xx_HAL_Driver/Src/stm32f0xx_hal_rcc.c ****       
 472              		.loc 1 333 7 discriminator 8 view .LVU124
 473 011e 1A68     		ldr	r2, [r3]
 474 0120 8349     		ldr	r1, .L140+8
 475 0122 0A40     		ands	r2, r1
 476 0124 1A60     		str	r2, [r3]
 477 0126 E2E7     		b	.L27
 478              	.L122:
 333:Drivers/STM32F0xx_HAL_Driver/Src/stm32f0xx_hal_rcc.c ****       
 479              		.loc 1 333 7 discriminator 7 view .LVU125
 480 0128 7F4B     		ldr	r3, .L140
 481 012a 1968     		ldr	r1, [r3]
 482 012c 8022     		movs	r2, #128
 483 012e D202     		lsls	r2, r2, #11
 484 0130 0A43     		orrs	r2, r1
 485 0132 1A60     		str	r2, [r3]
 333:Drivers/STM32F0xx_HAL_Driver/Src/stm32f0xx_hal_rcc.c ****       
 486              		.loc 1 333 7 discriminator 7 view .LVU126
 487 0134 1968     		ldr	r1, [r3]
 488 0136 8022     		movs	r2, #128
 489 0138 5202     		lsls	r2, r2, #9
 490 013a 0A43     		orrs	r2, r1
 491 013c 1A60     		str	r2, [r3]
 492 013e D6E7     		b	.L27
 493              	.L30:
 354:Drivers/STM32F0xx_HAL_Driver/Src/stm32f0xx_hal_rcc.c ****         
 494              		.loc 1 354 9 view .LVU127
 354:Drivers/STM32F0xx_HAL_Driver/Src/stm32f0xx_hal_rcc.c ****         
ARM GAS  /tmp/cc0e6U0t.s 			page 18


 495              		.loc 1 354 21 is_stmt 0 view .LVU128
 496 0140 FFF7FEFF 		bl	HAL_GetTick
 497              	.LVL28:
 498 0144 0500     		movs	r5, r0
 499              	.LVL29:
 357:Drivers/STM32F0xx_HAL_Driver/Src/stm32f0xx_hal_rcc.c ****         {
 500              		.loc 1 357 9 is_stmt 1 view .LVU129
 501              	.L33:
 357:Drivers/STM32F0xx_HAL_Driver/Src/stm32f0xx_hal_rcc.c ****         {
 502              		.loc 1 357 14 view .LVU130
 357:Drivers/STM32F0xx_HAL_Driver/Src/stm32f0xx_hal_rcc.c ****         {
 503              		.loc 1 357 15 is_stmt 0 view .LVU131
 504 0146 784B     		ldr	r3, .L140
 505 0148 1B68     		ldr	r3, [r3]
 357:Drivers/STM32F0xx_HAL_Driver/Src/stm32f0xx_hal_rcc.c ****         {
 506              		.loc 1 357 14 view .LVU132
 507 014a 9B03     		lsls	r3, r3, #14
 508 014c 9DD5     		bpl	.L22
 359:Drivers/STM32F0xx_HAL_Driver/Src/stm32f0xx_hal_rcc.c ****           {
 509              		.loc 1 359 12 is_stmt 1 view .LVU133
 359:Drivers/STM32F0xx_HAL_Driver/Src/stm32f0xx_hal_rcc.c ****           {
 510              		.loc 1 359 16 is_stmt 0 view .LVU134
 511 014e FFF7FEFF 		bl	HAL_GetTick
 512              	.LVL30:
 359:Drivers/STM32F0xx_HAL_Driver/Src/stm32f0xx_hal_rcc.c ****           {
 513              		.loc 1 359 30 view .LVU135
 514 0152 401B     		subs	r0, r0, r5
 359:Drivers/STM32F0xx_HAL_Driver/Src/stm32f0xx_hal_rcc.c ****           {
 515              		.loc 1 359 14 view .LVU136
 516 0154 6428     		cmp	r0, #100
 517 0156 F6D9     		bls	.L33
 361:Drivers/STM32F0xx_HAL_Driver/Src/stm32f0xx_hal_rcc.c ****           }
 518              		.loc 1 361 20 view .LVU137
 519 0158 0320     		movs	r0, #3
 520 015a 3DE2     		b	.L20
 521              	.LVL31:
 522              	.L118:
 371:Drivers/STM32F0xx_HAL_Driver/Src/stm32f0xx_hal_rcc.c ****     assert_param(IS_RCC_CALIBRATION_VALUE(RCC_OscInitStruct->HSICalibrationValue));
 523              		.loc 1 371 5 discriminator 1 view .LVU138
 524 015c 7421     		movs	r1, #116
 525 015e FF31     		adds	r1, r1, #255
 526 0160 7448     		ldr	r0, .L140+12
 527 0162 FFF7FEFF 		bl	assert_failed
 528              	.LVL32:
 529 0166 97E7     		b	.L36
 530              	.L119:
 372:Drivers/STM32F0xx_HAL_Driver/Src/stm32f0xx_hal_rcc.c ****     
 531              		.loc 1 372 5 discriminator 1 view .LVU139
 532 0168 BA21     		movs	r1, #186
 533 016a 4900     		lsls	r1, r1, #1
 534 016c 7148     		ldr	r0, .L140+12
 535 016e FFF7FEFF 		bl	assert_failed
 536              	.LVL33:
 537 0172 94E7     		b	.L37
 538              	.L120:
 376:Drivers/STM32F0xx_HAL_Driver/Src/stm32f0xx_hal_rcc.c ****     {
 539              		.loc 1 376 82 discriminator 1 view .LVU140
ARM GAS  /tmp/cc0e6U0t.s 			page 19


 540 0174 6C4B     		ldr	r3, .L140
 541 0176 5B68     		ldr	r3, [r3, #4]
 376:Drivers/STM32F0xx_HAL_Driver/Src/stm32f0xx_hal_rcc.c ****     {
 542              		.loc 1 376 78 discriminator 1 view .LVU141
 543 0178 DB03     		lsls	r3, r3, #15
 544 017a 9BD4     		bmi	.L39
 545              	.L38:
 379:Drivers/STM32F0xx_HAL_Driver/Src/stm32f0xx_hal_rcc.c ****       {
 546              		.loc 1 379 7 is_stmt 1 view .LVU142
 379:Drivers/STM32F0xx_HAL_Driver/Src/stm32f0xx_hal_rcc.c ****       {
 547              		.loc 1 379 11 is_stmt 0 view .LVU143
 548 017c 6A4B     		ldr	r3, .L140
 549 017e 1B68     		ldr	r3, [r3]
 379:Drivers/STM32F0xx_HAL_Driver/Src/stm32f0xx_hal_rcc.c ****       {
 550              		.loc 1 379 9 view .LVU144
 551 0180 9B07     		lsls	r3, r3, #30
 552 0182 03D5     		bpl	.L40
 379:Drivers/STM32F0xx_HAL_Driver/Src/stm32f0xx_hal_rcc.c ****       {
 553              		.loc 1 379 57 discriminator 1 view .LVU145
 554 0184 E368     		ldr	r3, [r4, #12]
 555 0186 012B     		cmp	r3, #1
 556 0188 00D0     		beq	.LCB509
 557 018a 29E2     		b	.L94	@long jump
 558              	.LCB509:
 559              	.L40:
 387:Drivers/STM32F0xx_HAL_Driver/Src/stm32f0xx_hal_rcc.c ****       }
 560              		.loc 1 387 9 is_stmt 1 view .LVU146
 561 018c 6649     		ldr	r1, .L140
 562 018e 0B68     		ldr	r3, [r1]
 563 0190 F822     		movs	r2, #248
 564 0192 9343     		bics	r3, r2
 565 0194 2269     		ldr	r2, [r4, #16]
 566 0196 D200     		lsls	r2, r2, #3
 567 0198 1343     		orrs	r3, r2
 568 019a 0B60     		str	r3, [r1]
 569              	.L35:
 407:Drivers/STM32F0xx_HAL_Driver/Src/stm32f0xx_hal_rcc.c ****           }
 408:Drivers/STM32F0xx_HAL_Driver/Src/stm32f0xx_hal_rcc.c ****         }
 409:Drivers/STM32F0xx_HAL_Driver/Src/stm32f0xx_hal_rcc.c ****                 
 410:Drivers/STM32F0xx_HAL_Driver/Src/stm32f0xx_hal_rcc.c ****         /* Adjusts the Internal High Speed oscillator (HSI) calibration value.*/
 411:Drivers/STM32F0xx_HAL_Driver/Src/stm32f0xx_hal_rcc.c ****         __HAL_RCC_HSI_CALIBRATIONVALUE_ADJUST(RCC_OscInitStruct->HSICalibrationValue);
 412:Drivers/STM32F0xx_HAL_Driver/Src/stm32f0xx_hal_rcc.c ****       }
 413:Drivers/STM32F0xx_HAL_Driver/Src/stm32f0xx_hal_rcc.c ****       else
 414:Drivers/STM32F0xx_HAL_Driver/Src/stm32f0xx_hal_rcc.c ****       {
 415:Drivers/STM32F0xx_HAL_Driver/Src/stm32f0xx_hal_rcc.c ****         /* Disable the Internal High Speed oscillator (HSI). */
 416:Drivers/STM32F0xx_HAL_Driver/Src/stm32f0xx_hal_rcc.c ****         __HAL_RCC_HSI_DISABLE();
 417:Drivers/STM32F0xx_HAL_Driver/Src/stm32f0xx_hal_rcc.c ****         
 418:Drivers/STM32F0xx_HAL_Driver/Src/stm32f0xx_hal_rcc.c ****         /* Get Start Tick */
 419:Drivers/STM32F0xx_HAL_Driver/Src/stm32f0xx_hal_rcc.c ****         tickstart = HAL_GetTick();
 420:Drivers/STM32F0xx_HAL_Driver/Src/stm32f0xx_hal_rcc.c ****         
 421:Drivers/STM32F0xx_HAL_Driver/Src/stm32f0xx_hal_rcc.c ****         /* Wait till HSI is disabled */
 422:Drivers/STM32F0xx_HAL_Driver/Src/stm32f0xx_hal_rcc.c ****         while(__HAL_RCC_GET_FLAG(RCC_FLAG_HSIRDY) != RESET)
 423:Drivers/STM32F0xx_HAL_Driver/Src/stm32f0xx_hal_rcc.c ****         {
 424:Drivers/STM32F0xx_HAL_Driver/Src/stm32f0xx_hal_rcc.c ****           if((HAL_GetTick() - tickstart ) > HSI_TIMEOUT_VALUE)
 425:Drivers/STM32F0xx_HAL_Driver/Src/stm32f0xx_hal_rcc.c ****           {
 426:Drivers/STM32F0xx_HAL_Driver/Src/stm32f0xx_hal_rcc.c ****             return HAL_TIMEOUT;
 427:Drivers/STM32F0xx_HAL_Driver/Src/stm32f0xx_hal_rcc.c ****           }
ARM GAS  /tmp/cc0e6U0t.s 			page 20


 428:Drivers/STM32F0xx_HAL_Driver/Src/stm32f0xx_hal_rcc.c ****         }
 429:Drivers/STM32F0xx_HAL_Driver/Src/stm32f0xx_hal_rcc.c ****       }
 430:Drivers/STM32F0xx_HAL_Driver/Src/stm32f0xx_hal_rcc.c ****     }
 431:Drivers/STM32F0xx_HAL_Driver/Src/stm32f0xx_hal_rcc.c ****   }
 432:Drivers/STM32F0xx_HAL_Driver/Src/stm32f0xx_hal_rcc.c ****   /*------------------------------ LSI Configuration -------------------------*/ 
 433:Drivers/STM32F0xx_HAL_Driver/Src/stm32f0xx_hal_rcc.c ****   if(((RCC_OscInitStruct->OscillatorType) & RCC_OSCILLATORTYPE_LSI) == RCC_OSCILLATORTYPE_LSI)
 570              		.loc 1 433 3 view .LVU147
 571              		.loc 1 433 5 is_stmt 0 view .LVU148
 572 019c 2368     		ldr	r3, [r4]
 573 019e 1B07     		lsls	r3, r3, #28
 574 01a0 4DD5     		bpl	.L46
 434:Drivers/STM32F0xx_HAL_Driver/Src/stm32f0xx_hal_rcc.c ****   {
 435:Drivers/STM32F0xx_HAL_Driver/Src/stm32f0xx_hal_rcc.c ****     /* Check the parameters */
 436:Drivers/STM32F0xx_HAL_Driver/Src/stm32f0xx_hal_rcc.c ****     assert_param(IS_RCC_LSI(RCC_OscInitStruct->LSIState));
 575              		.loc 1 436 5 is_stmt 1 view .LVU149
 576 01a2 E369     		ldr	r3, [r4, #28]
 577 01a4 012B     		cmp	r3, #1
 578 01a6 31D8     		bhi	.L123
 579              	.L47:
 437:Drivers/STM32F0xx_HAL_Driver/Src/stm32f0xx_hal_rcc.c ****     
 438:Drivers/STM32F0xx_HAL_Driver/Src/stm32f0xx_hal_rcc.c ****     /* Check the LSI State */
 439:Drivers/STM32F0xx_HAL_Driver/Src/stm32f0xx_hal_rcc.c ****     if(RCC_OscInitStruct->LSIState != RCC_LSI_OFF)
 580              		.loc 1 439 5 view .LVU150
 581              		.loc 1 439 7 is_stmt 0 view .LVU151
 582 01a8 E369     		ldr	r3, [r4, #28]
 583 01aa 002B     		cmp	r3, #0
 584 01ac 34D0     		beq	.L48
 440:Drivers/STM32F0xx_HAL_Driver/Src/stm32f0xx_hal_rcc.c ****     {
 441:Drivers/STM32F0xx_HAL_Driver/Src/stm32f0xx_hal_rcc.c ****       /* Enable the Internal Low Speed oscillator (LSI). */
 442:Drivers/STM32F0xx_HAL_Driver/Src/stm32f0xx_hal_rcc.c ****       __HAL_RCC_LSI_ENABLE();
 585              		.loc 1 442 7 is_stmt 1 view .LVU152
 586 01ae 5E4A     		ldr	r2, .L140
 587 01b0 536A     		ldr	r3, [r2, #36]
 588 01b2 0121     		movs	r1, #1
 589 01b4 0B43     		orrs	r3, r1
 590 01b6 5362     		str	r3, [r2, #36]
 443:Drivers/STM32F0xx_HAL_Driver/Src/stm32f0xx_hal_rcc.c ****       
 444:Drivers/STM32F0xx_HAL_Driver/Src/stm32f0xx_hal_rcc.c ****       /* Get Start Tick */
 445:Drivers/STM32F0xx_HAL_Driver/Src/stm32f0xx_hal_rcc.c ****       tickstart = HAL_GetTick();
 591              		.loc 1 445 7 view .LVU153
 592              		.loc 1 445 19 is_stmt 0 view .LVU154
 593 01b8 FFF7FEFF 		bl	HAL_GetTick
 594              	.LVL34:
 595 01bc 0500     		movs	r5, r0
 596              	.LVL35:
 446:Drivers/STM32F0xx_HAL_Driver/Src/stm32f0xx_hal_rcc.c ****       
 447:Drivers/STM32F0xx_HAL_Driver/Src/stm32f0xx_hal_rcc.c ****       /* Wait till LSI is ready */  
 448:Drivers/STM32F0xx_HAL_Driver/Src/stm32f0xx_hal_rcc.c ****       while(__HAL_RCC_GET_FLAG(RCC_FLAG_LSIRDY) == RESET)
 597              		.loc 1 448 7 is_stmt 1 view .LVU155
 598              	.L49:
 599              		.loc 1 448 12 view .LVU156
 600              		.loc 1 448 13 is_stmt 0 view .LVU157
 601 01be 5A4B     		ldr	r3, .L140
 602 01c0 5B6A     		ldr	r3, [r3, #36]
 603              		.loc 1 448 12 view .LVU158
 604 01c2 9B07     		lsls	r3, r3, #30
 605 01c4 3BD4     		bmi	.L46
ARM GAS  /tmp/cc0e6U0t.s 			page 21


 449:Drivers/STM32F0xx_HAL_Driver/Src/stm32f0xx_hal_rcc.c ****       {
 450:Drivers/STM32F0xx_HAL_Driver/Src/stm32f0xx_hal_rcc.c ****         if((HAL_GetTick() - tickstart ) > LSI_TIMEOUT_VALUE)
 606              		.loc 1 450 9 is_stmt 1 view .LVU159
 607              		.loc 1 450 13 is_stmt 0 view .LVU160
 608 01c6 FFF7FEFF 		bl	HAL_GetTick
 609              	.LVL36:
 610              		.loc 1 450 27 view .LVU161
 611 01ca 401B     		subs	r0, r0, r5
 612              		.loc 1 450 11 view .LVU162
 613 01cc 0228     		cmp	r0, #2
 614 01ce F6D9     		bls	.L49
 451:Drivers/STM32F0xx_HAL_Driver/Src/stm32f0xx_hal_rcc.c ****         {
 452:Drivers/STM32F0xx_HAL_Driver/Src/stm32f0xx_hal_rcc.c ****           return HAL_TIMEOUT;
 615              		.loc 1 452 18 view .LVU163
 616 01d0 0320     		movs	r0, #3
 617 01d2 01E2     		b	.L20
 618              	.L121:
 411:Drivers/STM32F0xx_HAL_Driver/Src/stm32f0xx_hal_rcc.c ****       }
 619              		.loc 1 411 9 is_stmt 1 view .LVU164
 620 01d4 5449     		ldr	r1, .L140
 621 01d6 0B68     		ldr	r3, [r1]
 622 01d8 F822     		movs	r2, #248
 623 01da 9343     		bics	r3, r2
 624 01dc 2269     		ldr	r2, [r4, #16]
 625 01de D200     		lsls	r2, r2, #3
 626 01e0 1343     		orrs	r3, r2
 627 01e2 0B60     		str	r3, [r1]
 628 01e4 DAE7     		b	.L35
 629              	.LVL37:
 630              	.L41:
 416:Drivers/STM32F0xx_HAL_Driver/Src/stm32f0xx_hal_rcc.c ****         
 631              		.loc 1 416 9 view .LVU165
 632 01e6 504A     		ldr	r2, .L140
 633 01e8 1368     		ldr	r3, [r2]
 634 01ea 0121     		movs	r1, #1
 635 01ec 8B43     		bics	r3, r1
 636 01ee 1360     		str	r3, [r2]
 419:Drivers/STM32F0xx_HAL_Driver/Src/stm32f0xx_hal_rcc.c ****         
 637              		.loc 1 419 9 view .LVU166
 419:Drivers/STM32F0xx_HAL_Driver/Src/stm32f0xx_hal_rcc.c ****         
 638              		.loc 1 419 21 is_stmt 0 view .LVU167
 639 01f0 FFF7FEFF 		bl	HAL_GetTick
 640              	.LVL38:
 641 01f4 0500     		movs	r5, r0
 642              	.LVL39:
 422:Drivers/STM32F0xx_HAL_Driver/Src/stm32f0xx_hal_rcc.c ****         {
 643              		.loc 1 422 9 is_stmt 1 view .LVU168
 644              	.L44:
 422:Drivers/STM32F0xx_HAL_Driver/Src/stm32f0xx_hal_rcc.c ****         {
 645              		.loc 1 422 14 view .LVU169
 422:Drivers/STM32F0xx_HAL_Driver/Src/stm32f0xx_hal_rcc.c ****         {
 646              		.loc 1 422 15 is_stmt 0 view .LVU170
 647 01f6 4C4B     		ldr	r3, .L140
 648 01f8 1B68     		ldr	r3, [r3]
 422:Drivers/STM32F0xx_HAL_Driver/Src/stm32f0xx_hal_rcc.c ****         {
 649              		.loc 1 422 14 view .LVU171
 650 01fa 9B07     		lsls	r3, r3, #30
ARM GAS  /tmp/cc0e6U0t.s 			page 22


 651 01fc CED5     		bpl	.L35
 424:Drivers/STM32F0xx_HAL_Driver/Src/stm32f0xx_hal_rcc.c ****           {
 652              		.loc 1 424 11 is_stmt 1 view .LVU172
 424:Drivers/STM32F0xx_HAL_Driver/Src/stm32f0xx_hal_rcc.c ****           {
 653              		.loc 1 424 15 is_stmt 0 view .LVU173
 654 01fe FFF7FEFF 		bl	HAL_GetTick
 655              	.LVL40:
 424:Drivers/STM32F0xx_HAL_Driver/Src/stm32f0xx_hal_rcc.c ****           {
 656              		.loc 1 424 29 view .LVU174
 657 0202 401B     		subs	r0, r0, r5
 424:Drivers/STM32F0xx_HAL_Driver/Src/stm32f0xx_hal_rcc.c ****           {
 658              		.loc 1 424 13 view .LVU175
 659 0204 0228     		cmp	r0, #2
 660 0206 F6D9     		bls	.L44
 426:Drivers/STM32F0xx_HAL_Driver/Src/stm32f0xx_hal_rcc.c ****           }
 661              		.loc 1 426 20 view .LVU176
 662 0208 0320     		movs	r0, #3
 663 020a E5E1     		b	.L20
 664              	.LVL41:
 665              	.L123:
 436:Drivers/STM32F0xx_HAL_Driver/Src/stm32f0xx_hal_rcc.c ****     
 666              		.loc 1 436 5 discriminator 1 view .LVU177
 667 020c DA21     		movs	r1, #218
 668 020e 4900     		lsls	r1, r1, #1
 669 0210 4848     		ldr	r0, .L140+12
 670 0212 FFF7FEFF 		bl	assert_failed
 671              	.LVL42:
 672 0216 C7E7     		b	.L47
 673              	.L48:
 453:Drivers/STM32F0xx_HAL_Driver/Src/stm32f0xx_hal_rcc.c ****         }
 454:Drivers/STM32F0xx_HAL_Driver/Src/stm32f0xx_hal_rcc.c ****       }
 455:Drivers/STM32F0xx_HAL_Driver/Src/stm32f0xx_hal_rcc.c ****     }
 456:Drivers/STM32F0xx_HAL_Driver/Src/stm32f0xx_hal_rcc.c ****     else
 457:Drivers/STM32F0xx_HAL_Driver/Src/stm32f0xx_hal_rcc.c ****     {
 458:Drivers/STM32F0xx_HAL_Driver/Src/stm32f0xx_hal_rcc.c ****       /* Disable the Internal Low Speed oscillator (LSI). */
 459:Drivers/STM32F0xx_HAL_Driver/Src/stm32f0xx_hal_rcc.c ****       __HAL_RCC_LSI_DISABLE();
 674              		.loc 1 459 7 is_stmt 1 view .LVU178
 675 0218 434A     		ldr	r2, .L140
 676 021a 536A     		ldr	r3, [r2, #36]
 677 021c 0121     		movs	r1, #1
 678 021e 8B43     		bics	r3, r1
 679 0220 5362     		str	r3, [r2, #36]
 460:Drivers/STM32F0xx_HAL_Driver/Src/stm32f0xx_hal_rcc.c ****       
 461:Drivers/STM32F0xx_HAL_Driver/Src/stm32f0xx_hal_rcc.c ****       /* Get Start Tick */
 462:Drivers/STM32F0xx_HAL_Driver/Src/stm32f0xx_hal_rcc.c ****       tickstart = HAL_GetTick();
 680              		.loc 1 462 7 view .LVU179
 681              		.loc 1 462 19 is_stmt 0 view .LVU180
 682 0222 FFF7FEFF 		bl	HAL_GetTick
 683              	.LVL43:
 684 0226 0500     		movs	r5, r0
 685              	.LVL44:
 463:Drivers/STM32F0xx_HAL_Driver/Src/stm32f0xx_hal_rcc.c ****       
 464:Drivers/STM32F0xx_HAL_Driver/Src/stm32f0xx_hal_rcc.c ****       /* Wait till LSI is disabled */  
 465:Drivers/STM32F0xx_HAL_Driver/Src/stm32f0xx_hal_rcc.c ****       while(__HAL_RCC_GET_FLAG(RCC_FLAG_LSIRDY) != RESET)
 686              		.loc 1 465 7 is_stmt 1 view .LVU181
 687              	.L51:
 688              		.loc 1 465 12 view .LVU182
ARM GAS  /tmp/cc0e6U0t.s 			page 23


 689              		.loc 1 465 13 is_stmt 0 view .LVU183
 690 0228 3F4B     		ldr	r3, .L140
 691 022a 5B6A     		ldr	r3, [r3, #36]
 692              		.loc 1 465 12 view .LVU184
 693 022c 9B07     		lsls	r3, r3, #30
 694 022e 06D5     		bpl	.L46
 466:Drivers/STM32F0xx_HAL_Driver/Src/stm32f0xx_hal_rcc.c ****       {
 467:Drivers/STM32F0xx_HAL_Driver/Src/stm32f0xx_hal_rcc.c ****         if((HAL_GetTick() - tickstart ) > LSI_TIMEOUT_VALUE)
 695              		.loc 1 467 9 is_stmt 1 view .LVU185
 696              		.loc 1 467 13 is_stmt 0 view .LVU186
 697 0230 FFF7FEFF 		bl	HAL_GetTick
 698              	.LVL45:
 699              		.loc 1 467 27 view .LVU187
 700 0234 401B     		subs	r0, r0, r5
 701              		.loc 1 467 11 view .LVU188
 702 0236 0228     		cmp	r0, #2
 703 0238 F6D9     		bls	.L51
 468:Drivers/STM32F0xx_HAL_Driver/Src/stm32f0xx_hal_rcc.c ****         {
 469:Drivers/STM32F0xx_HAL_Driver/Src/stm32f0xx_hal_rcc.c ****           return HAL_TIMEOUT;
 704              		.loc 1 469 18 view .LVU189
 705 023a 0320     		movs	r0, #3
 706 023c CCE1     		b	.L20
 707              	.LVL46:
 708              	.L46:
 470:Drivers/STM32F0xx_HAL_Driver/Src/stm32f0xx_hal_rcc.c ****         }
 471:Drivers/STM32F0xx_HAL_Driver/Src/stm32f0xx_hal_rcc.c ****       }
 472:Drivers/STM32F0xx_HAL_Driver/Src/stm32f0xx_hal_rcc.c ****     }
 473:Drivers/STM32F0xx_HAL_Driver/Src/stm32f0xx_hal_rcc.c ****   }
 474:Drivers/STM32F0xx_HAL_Driver/Src/stm32f0xx_hal_rcc.c ****   /*------------------------------ LSE Configuration -------------------------*/ 
 475:Drivers/STM32F0xx_HAL_Driver/Src/stm32f0xx_hal_rcc.c ****   if(((RCC_OscInitStruct->OscillatorType) & RCC_OSCILLATORTYPE_LSE) == RCC_OSCILLATORTYPE_LSE)
 709              		.loc 1 475 3 is_stmt 1 view .LVU190
 710              		.loc 1 475 5 is_stmt 0 view .LVU191
 711 023e 2368     		ldr	r3, [r4]
 712 0240 5B07     		lsls	r3, r3, #29
 713 0242 00D4     		bmi	.LCB676
 714 0244 8EE0     		b	.L53	@long jump
 715              	.LCB676:
 716              	.LBB2:
 476:Drivers/STM32F0xx_HAL_Driver/Src/stm32f0xx_hal_rcc.c ****   {
 477:Drivers/STM32F0xx_HAL_Driver/Src/stm32f0xx_hal_rcc.c ****     FlagStatus       pwrclkchanged = RESET;
 717              		.loc 1 477 5 is_stmt 1 view .LVU192
 718              	.LVL47:
 478:Drivers/STM32F0xx_HAL_Driver/Src/stm32f0xx_hal_rcc.c ****     
 479:Drivers/STM32F0xx_HAL_Driver/Src/stm32f0xx_hal_rcc.c ****     /* Check the parameters */
 480:Drivers/STM32F0xx_HAL_Driver/Src/stm32f0xx_hal_rcc.c ****     assert_param(IS_RCC_LSE(RCC_OscInitStruct->LSEState));
 719              		.loc 1 480 5 view .LVU193
 720 0246 A368     		ldr	r3, [r4, #8]
 721 0248 012B     		cmp	r3, #1
 722 024a 01D9     		bls	.L54
 723              		.loc 1 480 5 is_stmt 0 discriminator 1 view .LVU194
 724 024c 052B     		cmp	r3, #5
 725 024e 21D1     		bne	.L124
 726              	.L54:
 481:Drivers/STM32F0xx_HAL_Driver/Src/stm32f0xx_hal_rcc.c **** 
 482:Drivers/STM32F0xx_HAL_Driver/Src/stm32f0xx_hal_rcc.c ****     /* Update LSE configuration in Backup Domain control register    */
 483:Drivers/STM32F0xx_HAL_Driver/Src/stm32f0xx_hal_rcc.c ****     /* Requires to enable write access to Backup Domain of necessary */
 484:Drivers/STM32F0xx_HAL_Driver/Src/stm32f0xx_hal_rcc.c ****     if(__HAL_RCC_PWR_IS_CLK_DISABLED())
ARM GAS  /tmp/cc0e6U0t.s 			page 24


 727              		.loc 1 484 5 is_stmt 1 view .LVU195
 728              		.loc 1 484 8 is_stmt 0 view .LVU196
 729 0250 354B     		ldr	r3, .L140
 730 0252 DB69     		ldr	r3, [r3, #28]
 731              		.loc 1 484 7 view .LVU197
 732 0254 DB00     		lsls	r3, r3, #3
 733 0256 23D4     		bmi	.L99
 485:Drivers/STM32F0xx_HAL_Driver/Src/stm32f0xx_hal_rcc.c ****     {
 486:Drivers/STM32F0xx_HAL_Driver/Src/stm32f0xx_hal_rcc.c ****       __HAL_RCC_PWR_CLK_ENABLE();
 734              		.loc 1 486 7 is_stmt 1 view .LVU198
 735              	.LBB3:
 736              		.loc 1 486 7 view .LVU199
 737              		.loc 1 486 7 view .LVU200
 738 0258 334A     		ldr	r2, .L140
 739 025a D169     		ldr	r1, [r2, #28]
 740 025c 8020     		movs	r0, #128
 741 025e 4005     		lsls	r0, r0, #21
 742 0260 0143     		orrs	r1, r0
 743 0262 D161     		str	r1, [r2, #28]
 744              		.loc 1 486 7 view .LVU201
 745 0264 D369     		ldr	r3, [r2, #28]
 746 0266 0340     		ands	r3, r0
 747 0268 0193     		str	r3, [sp, #4]
 748              		.loc 1 486 7 view .LVU202
 749 026a 019B     		ldr	r3, [sp, #4]
 750              	.LBE3:
 751              		.loc 1 486 7 view .LVU203
 487:Drivers/STM32F0xx_HAL_Driver/Src/stm32f0xx_hal_rcc.c ****       pwrclkchanged = SET;
 752              		.loc 1 487 7 view .LVU204
 753              	.LVL48:
 754              		.loc 1 487 21 is_stmt 0 view .LVU205
 755 026c 0125     		movs	r5, #1
 756              	.LVL49:
 757              	.L55:
 488:Drivers/STM32F0xx_HAL_Driver/Src/stm32f0xx_hal_rcc.c ****     }
 489:Drivers/STM32F0xx_HAL_Driver/Src/stm32f0xx_hal_rcc.c ****     
 490:Drivers/STM32F0xx_HAL_Driver/Src/stm32f0xx_hal_rcc.c ****     if(HAL_IS_BIT_CLR(PWR->CR, PWR_CR_DBP))
 758              		.loc 1 490 5 is_stmt 1 view .LVU206
 759              		.loc 1 490 8 is_stmt 0 view .LVU207
 760 026e 324B     		ldr	r3, .L140+16
 761 0270 1B68     		ldr	r3, [r3]
 762              		.loc 1 490 7 view .LVU208
 763 0272 DB05     		lsls	r3, r3, #23
 764 0274 16D5     		bpl	.L125
 765              	.L56:
 491:Drivers/STM32F0xx_HAL_Driver/Src/stm32f0xx_hal_rcc.c ****     {
 492:Drivers/STM32F0xx_HAL_Driver/Src/stm32f0xx_hal_rcc.c ****       /* Enable write access to Backup domain */
 493:Drivers/STM32F0xx_HAL_Driver/Src/stm32f0xx_hal_rcc.c ****       SET_BIT(PWR->CR, PWR_CR_DBP);
 494:Drivers/STM32F0xx_HAL_Driver/Src/stm32f0xx_hal_rcc.c ****       
 495:Drivers/STM32F0xx_HAL_Driver/Src/stm32f0xx_hal_rcc.c ****       /* Wait for Backup domain Write protection disable */
 496:Drivers/STM32F0xx_HAL_Driver/Src/stm32f0xx_hal_rcc.c ****       tickstart = HAL_GetTick();
 497:Drivers/STM32F0xx_HAL_Driver/Src/stm32f0xx_hal_rcc.c **** 
 498:Drivers/STM32F0xx_HAL_Driver/Src/stm32f0xx_hal_rcc.c ****       while(HAL_IS_BIT_CLR(PWR->CR, PWR_CR_DBP))
 499:Drivers/STM32F0xx_HAL_Driver/Src/stm32f0xx_hal_rcc.c ****       {
 500:Drivers/STM32F0xx_HAL_Driver/Src/stm32f0xx_hal_rcc.c ****         if((HAL_GetTick() - tickstart) > RCC_DBP_TIMEOUT_VALUE)
 501:Drivers/STM32F0xx_HAL_Driver/Src/stm32f0xx_hal_rcc.c ****         {
 502:Drivers/STM32F0xx_HAL_Driver/Src/stm32f0xx_hal_rcc.c ****           return HAL_TIMEOUT;
ARM GAS  /tmp/cc0e6U0t.s 			page 25


 503:Drivers/STM32F0xx_HAL_Driver/Src/stm32f0xx_hal_rcc.c ****         }
 504:Drivers/STM32F0xx_HAL_Driver/Src/stm32f0xx_hal_rcc.c ****       }
 505:Drivers/STM32F0xx_HAL_Driver/Src/stm32f0xx_hal_rcc.c ****     }
 506:Drivers/STM32F0xx_HAL_Driver/Src/stm32f0xx_hal_rcc.c **** 
 507:Drivers/STM32F0xx_HAL_Driver/Src/stm32f0xx_hal_rcc.c ****     /* Set the new LSE configuration -----------------------------------------*/
 508:Drivers/STM32F0xx_HAL_Driver/Src/stm32f0xx_hal_rcc.c ****     __HAL_RCC_LSE_CONFIG(RCC_OscInitStruct->LSEState);
 766              		.loc 1 508 5 is_stmt 1 view .LVU209
 767              		.loc 1 508 5 view .LVU210
 768 0276 A368     		ldr	r3, [r4, #8]
 769 0278 012B     		cmp	r3, #1
 770 027a 27D0     		beq	.L126
 771              		.loc 1 508 5 discriminator 2 view .LVU211
 772 027c 002B     		cmp	r3, #0
 773 027e 3CD1     		bne	.L61
 774              		.loc 1 508 5 discriminator 4 view .LVU212
 775 0280 294B     		ldr	r3, .L140
 776 0282 1A6A     		ldr	r2, [r3, #32]
 777 0284 0121     		movs	r1, #1
 778 0286 8A43     		bics	r2, r1
 779 0288 1A62     		str	r2, [r3, #32]
 780              		.loc 1 508 5 discriminator 4 view .LVU213
 781 028a 1A6A     		ldr	r2, [r3, #32]
 782 028c 0331     		adds	r1, r1, #3
 783 028e 8A43     		bics	r2, r1
 784 0290 1A62     		str	r2, [r3, #32]
 785 0292 20E0     		b	.L60
 786              	.LVL50:
 787              	.L124:
 480:Drivers/STM32F0xx_HAL_Driver/Src/stm32f0xx_hal_rcc.c **** 
 788              		.loc 1 480 5 is_stmt 0 discriminator 2 view .LVU214
 789 0294 F021     		movs	r1, #240
 790 0296 4900     		lsls	r1, r1, #1
 791 0298 2648     		ldr	r0, .L140+12
 792 029a FFF7FEFF 		bl	assert_failed
 793              	.LVL51:
 794 029e D7E7     		b	.L54
 795              	.L99:
 477:Drivers/STM32F0xx_HAL_Driver/Src/stm32f0xx_hal_rcc.c ****     
 796              		.loc 1 477 22 view .LVU215
 797 02a0 0025     		movs	r5, #0
 798 02a2 E4E7     		b	.L55
 799              	.LVL52:
 800              	.L125:
 493:Drivers/STM32F0xx_HAL_Driver/Src/stm32f0xx_hal_rcc.c ****       
 801              		.loc 1 493 7 is_stmt 1 view .LVU216
 802 02a4 244A     		ldr	r2, .L140+16
 803 02a6 1168     		ldr	r1, [r2]
 804 02a8 8023     		movs	r3, #128
 805 02aa 5B00     		lsls	r3, r3, #1
 806 02ac 0B43     		orrs	r3, r1
 807 02ae 1360     		str	r3, [r2]
 496:Drivers/STM32F0xx_HAL_Driver/Src/stm32f0xx_hal_rcc.c **** 
 808              		.loc 1 496 7 view .LVU217
 496:Drivers/STM32F0xx_HAL_Driver/Src/stm32f0xx_hal_rcc.c **** 
 809              		.loc 1 496 19 is_stmt 0 view .LVU218
 810 02b0 FFF7FEFF 		bl	HAL_GetTick
 811              	.LVL53:
ARM GAS  /tmp/cc0e6U0t.s 			page 26


 812 02b4 0600     		movs	r6, r0
 813              	.LVL54:
 498:Drivers/STM32F0xx_HAL_Driver/Src/stm32f0xx_hal_rcc.c ****       {
 814              		.loc 1 498 7 is_stmt 1 view .LVU219
 815              	.L57:
 498:Drivers/STM32F0xx_HAL_Driver/Src/stm32f0xx_hal_rcc.c ****       {
 816              		.loc 1 498 12 view .LVU220
 498:Drivers/STM32F0xx_HAL_Driver/Src/stm32f0xx_hal_rcc.c ****       {
 817              		.loc 1 498 13 is_stmt 0 view .LVU221
 818 02b6 204B     		ldr	r3, .L140+16
 819 02b8 1B68     		ldr	r3, [r3]
 498:Drivers/STM32F0xx_HAL_Driver/Src/stm32f0xx_hal_rcc.c ****       {
 820              		.loc 1 498 12 view .LVU222
 821 02ba DB05     		lsls	r3, r3, #23
 822 02bc DBD4     		bmi	.L56
 500:Drivers/STM32F0xx_HAL_Driver/Src/stm32f0xx_hal_rcc.c ****         {
 823              		.loc 1 500 9 is_stmt 1 view .LVU223
 500:Drivers/STM32F0xx_HAL_Driver/Src/stm32f0xx_hal_rcc.c ****         {
 824              		.loc 1 500 13 is_stmt 0 view .LVU224
 825 02be FFF7FEFF 		bl	HAL_GetTick
 826              	.LVL55:
 500:Drivers/STM32F0xx_HAL_Driver/Src/stm32f0xx_hal_rcc.c ****         {
 827              		.loc 1 500 27 view .LVU225
 828 02c2 801B     		subs	r0, r0, r6
 500:Drivers/STM32F0xx_HAL_Driver/Src/stm32f0xx_hal_rcc.c ****         {
 829              		.loc 1 500 11 view .LVU226
 830 02c4 6428     		cmp	r0, #100
 831 02c6 F6D9     		bls	.L57
 502:Drivers/STM32F0xx_HAL_Driver/Src/stm32f0xx_hal_rcc.c ****         }
 832              		.loc 1 502 18 view .LVU227
 833 02c8 0320     		movs	r0, #3
 834 02ca 85E1     		b	.L20
 835              	.LVL56:
 836              	.L126:
 837              		.loc 1 508 5 is_stmt 1 discriminator 1 view .LVU228
 838 02cc 164A     		ldr	r2, .L140
 839 02ce 136A     		ldr	r3, [r2, #32]
 840 02d0 0121     		movs	r1, #1
 841 02d2 0B43     		orrs	r3, r1
 842 02d4 1362     		str	r3, [r2, #32]
 843              	.L60:
 844              		.loc 1 508 5 discriminator 10 view .LVU229
 509:Drivers/STM32F0xx_HAL_Driver/Src/stm32f0xx_hal_rcc.c ****     /* Check the LSE State */
 510:Drivers/STM32F0xx_HAL_Driver/Src/stm32f0xx_hal_rcc.c ****     if(RCC_OscInitStruct->LSEState != RCC_LSE_OFF)
 845              		.loc 1 510 5 discriminator 10 view .LVU230
 846              		.loc 1 510 7 is_stmt 0 discriminator 10 view .LVU231
 847 02d6 A368     		ldr	r3, [r4, #8]
 848 02d8 002B     		cmp	r3, #0
 849 02da 31D0     		beq	.L63
 511:Drivers/STM32F0xx_HAL_Driver/Src/stm32f0xx_hal_rcc.c ****     {
 512:Drivers/STM32F0xx_HAL_Driver/Src/stm32f0xx_hal_rcc.c ****       /* Get Start Tick */
 513:Drivers/STM32F0xx_HAL_Driver/Src/stm32f0xx_hal_rcc.c ****       tickstart = HAL_GetTick();
 850              		.loc 1 513 7 is_stmt 1 view .LVU232
 851              		.loc 1 513 19 is_stmt 0 view .LVU233
 852 02dc FFF7FEFF 		bl	HAL_GetTick
 853              	.LVL57:
 854 02e0 0600     		movs	r6, r0
ARM GAS  /tmp/cc0e6U0t.s 			page 27


 855              	.LVL58:
 514:Drivers/STM32F0xx_HAL_Driver/Src/stm32f0xx_hal_rcc.c ****       
 515:Drivers/STM32F0xx_HAL_Driver/Src/stm32f0xx_hal_rcc.c ****       /* Wait till LSE is ready */  
 516:Drivers/STM32F0xx_HAL_Driver/Src/stm32f0xx_hal_rcc.c ****       while(__HAL_RCC_GET_FLAG(RCC_FLAG_LSERDY) == RESET)
 856              		.loc 1 516 7 is_stmt 1 view .LVU234
 857              	.L64:
 858              		.loc 1 516 12 view .LVU235
 859              		.loc 1 516 13 is_stmt 0 view .LVU236
 860 02e2 114B     		ldr	r3, .L140
 861 02e4 1B6A     		ldr	r3, [r3, #32]
 862              		.loc 1 516 12 view .LVU237
 863 02e6 9B07     		lsls	r3, r3, #30
 864 02e8 39D4     		bmi	.L66
 517:Drivers/STM32F0xx_HAL_Driver/Src/stm32f0xx_hal_rcc.c ****       {
 518:Drivers/STM32F0xx_HAL_Driver/Src/stm32f0xx_hal_rcc.c ****         if((HAL_GetTick() - tickstart ) > RCC_LSE_TIMEOUT_VALUE)
 865              		.loc 1 518 9 is_stmt 1 view .LVU238
 866              		.loc 1 518 13 is_stmt 0 view .LVU239
 867 02ea FFF7FEFF 		bl	HAL_GetTick
 868              	.LVL59:
 869              		.loc 1 518 27 view .LVU240
 870 02ee 801B     		subs	r0, r0, r6
 871              		.loc 1 518 11 view .LVU241
 872 02f0 124B     		ldr	r3, .L140+20
 873 02f2 9842     		cmp	r0, r3
 874 02f4 F5D9     		bls	.L64
 519:Drivers/STM32F0xx_HAL_Driver/Src/stm32f0xx_hal_rcc.c ****         {
 520:Drivers/STM32F0xx_HAL_Driver/Src/stm32f0xx_hal_rcc.c ****           return HAL_TIMEOUT;
 875              		.loc 1 520 18 view .LVU242
 876 02f6 0320     		movs	r0, #3
 877 02f8 6EE1     		b	.L20
 878              	.LVL60:
 879              	.L61:
 508:Drivers/STM32F0xx_HAL_Driver/Src/stm32f0xx_hal_rcc.c ****     /* Check the LSE State */
 880              		.loc 1 508 5 is_stmt 1 discriminator 5 view .LVU243
 881 02fa 052B     		cmp	r3, #5
 882 02fc 09D0     		beq	.L127
 508:Drivers/STM32F0xx_HAL_Driver/Src/stm32f0xx_hal_rcc.c ****     /* Check the LSE State */
 883              		.loc 1 508 5 discriminator 8 view .LVU244
 884 02fe 0A4B     		ldr	r3, .L140
 885 0300 1A6A     		ldr	r2, [r3, #32]
 886 0302 0121     		movs	r1, #1
 887 0304 8A43     		bics	r2, r1
 888 0306 1A62     		str	r2, [r3, #32]
 508:Drivers/STM32F0xx_HAL_Driver/Src/stm32f0xx_hal_rcc.c ****     /* Check the LSE State */
 889              		.loc 1 508 5 discriminator 8 view .LVU245
 890 0308 1A6A     		ldr	r2, [r3, #32]
 891 030a 0331     		adds	r1, r1, #3
 892 030c 8A43     		bics	r2, r1
 893 030e 1A62     		str	r2, [r3, #32]
 894 0310 E1E7     		b	.L60
 895              	.L127:
 508:Drivers/STM32F0xx_HAL_Driver/Src/stm32f0xx_hal_rcc.c ****     /* Check the LSE State */
 896              		.loc 1 508 5 discriminator 7 view .LVU246
 897 0312 054B     		ldr	r3, .L140
 898 0314 1A6A     		ldr	r2, [r3, #32]
 899 0316 0421     		movs	r1, #4
 900 0318 0A43     		orrs	r2, r1
ARM GAS  /tmp/cc0e6U0t.s 			page 28


 901 031a 1A62     		str	r2, [r3, #32]
 508:Drivers/STM32F0xx_HAL_Driver/Src/stm32f0xx_hal_rcc.c ****     /* Check the LSE State */
 902              		.loc 1 508 5 discriminator 7 view .LVU247
 903 031c 1A6A     		ldr	r2, [r3, #32]
 904 031e 0339     		subs	r1, r1, #3
 905 0320 0A43     		orrs	r2, r1
 906 0322 1A62     		str	r2, [r3, #32]
 907 0324 D7E7     		b	.L60
 908              	.L141:
 909 0326 C046     		.align	2
 910              	.L140:
 911 0328 00100240 		.word	1073876992
 912 032c FFFFFEFF 		.word	-65537
 913 0330 FFFFFBFF 		.word	-262145
 914 0334 00000000 		.word	.LC2
 915 0338 00700040 		.word	1073770496
 916 033c 88130000 		.word	5000
 917              	.L63:
 521:Drivers/STM32F0xx_HAL_Driver/Src/stm32f0xx_hal_rcc.c ****         }
 522:Drivers/STM32F0xx_HAL_Driver/Src/stm32f0xx_hal_rcc.c ****       }
 523:Drivers/STM32F0xx_HAL_Driver/Src/stm32f0xx_hal_rcc.c ****     }
 524:Drivers/STM32F0xx_HAL_Driver/Src/stm32f0xx_hal_rcc.c ****     else
 525:Drivers/STM32F0xx_HAL_Driver/Src/stm32f0xx_hal_rcc.c ****     {
 526:Drivers/STM32F0xx_HAL_Driver/Src/stm32f0xx_hal_rcc.c ****       /* Get Start Tick */
 527:Drivers/STM32F0xx_HAL_Driver/Src/stm32f0xx_hal_rcc.c ****       tickstart = HAL_GetTick();
 918              		.loc 1 527 7 view .LVU248
 919              		.loc 1 527 19 is_stmt 0 view .LVU249
 920 0340 FFF7FEFF 		bl	HAL_GetTick
 921              	.LVL61:
 922 0344 0600     		movs	r6, r0
 923              	.LVL62:
 528:Drivers/STM32F0xx_HAL_Driver/Src/stm32f0xx_hal_rcc.c ****       
 529:Drivers/STM32F0xx_HAL_Driver/Src/stm32f0xx_hal_rcc.c ****       /* Wait till LSE is disabled */  
 530:Drivers/STM32F0xx_HAL_Driver/Src/stm32f0xx_hal_rcc.c ****       while(__HAL_RCC_GET_FLAG(RCC_FLAG_LSERDY) != RESET)
 924              		.loc 1 530 7 is_stmt 1 view .LVU250
 925              	.L67:
 926              		.loc 1 530 12 view .LVU251
 927              		.loc 1 530 13 is_stmt 0 view .LVU252
 928 0346 AC4B     		ldr	r3, .L142
 929 0348 1B6A     		ldr	r3, [r3, #32]
 930              		.loc 1 530 12 view .LVU253
 931 034a 9B07     		lsls	r3, r3, #30
 932 034c 07D5     		bpl	.L66
 531:Drivers/STM32F0xx_HAL_Driver/Src/stm32f0xx_hal_rcc.c ****       {
 532:Drivers/STM32F0xx_HAL_Driver/Src/stm32f0xx_hal_rcc.c ****         if((HAL_GetTick() - tickstart ) > RCC_LSE_TIMEOUT_VALUE)
 933              		.loc 1 532 9 is_stmt 1 view .LVU254
 934              		.loc 1 532 13 is_stmt 0 view .LVU255
 935 034e FFF7FEFF 		bl	HAL_GetTick
 936              	.LVL63:
 937              		.loc 1 532 27 view .LVU256
 938 0352 801B     		subs	r0, r0, r6
 939              		.loc 1 532 11 view .LVU257
 940 0354 A94B     		ldr	r3, .L142+4
 941 0356 9842     		cmp	r0, r3
 942 0358 F5D9     		bls	.L67
 533:Drivers/STM32F0xx_HAL_Driver/Src/stm32f0xx_hal_rcc.c ****         {
 534:Drivers/STM32F0xx_HAL_Driver/Src/stm32f0xx_hal_rcc.c ****           return HAL_TIMEOUT;
ARM GAS  /tmp/cc0e6U0t.s 			page 29


 943              		.loc 1 534 18 view .LVU258
 944 035a 0320     		movs	r0, #3
 945 035c 3CE1     		b	.L20
 946              	.L66:
 535:Drivers/STM32F0xx_HAL_Driver/Src/stm32f0xx_hal_rcc.c ****         }
 536:Drivers/STM32F0xx_HAL_Driver/Src/stm32f0xx_hal_rcc.c ****       }
 537:Drivers/STM32F0xx_HAL_Driver/Src/stm32f0xx_hal_rcc.c ****     }
 538:Drivers/STM32F0xx_HAL_Driver/Src/stm32f0xx_hal_rcc.c **** 
 539:Drivers/STM32F0xx_HAL_Driver/Src/stm32f0xx_hal_rcc.c ****     /* Require to disable power clock if necessary */
 540:Drivers/STM32F0xx_HAL_Driver/Src/stm32f0xx_hal_rcc.c ****     if(pwrclkchanged == SET)
 947              		.loc 1 540 5 is_stmt 1 view .LVU259
 948              		.loc 1 540 7 is_stmt 0 view .LVU260
 949 035e 012D     		cmp	r5, #1
 950 0360 00D1     		bne	.LCB919
 951 0362 8AE0     		b	.L128	@long jump
 952              	.LCB919:
 953              	.LVL64:
 954              	.L53:
 955              		.loc 1 540 7 view .LVU261
 956              	.LBE2:
 541:Drivers/STM32F0xx_HAL_Driver/Src/stm32f0xx_hal_rcc.c ****     {
 542:Drivers/STM32F0xx_HAL_Driver/Src/stm32f0xx_hal_rcc.c ****       __HAL_RCC_PWR_CLK_DISABLE();
 543:Drivers/STM32F0xx_HAL_Driver/Src/stm32f0xx_hal_rcc.c ****     }
 544:Drivers/STM32F0xx_HAL_Driver/Src/stm32f0xx_hal_rcc.c ****   }
 545:Drivers/STM32F0xx_HAL_Driver/Src/stm32f0xx_hal_rcc.c **** 
 546:Drivers/STM32F0xx_HAL_Driver/Src/stm32f0xx_hal_rcc.c ****   /*----------------------------- HSI14 Configuration --------------------------*/
 547:Drivers/STM32F0xx_HAL_Driver/Src/stm32f0xx_hal_rcc.c ****   if(((RCC_OscInitStruct->OscillatorType) & RCC_OSCILLATORTYPE_HSI14) == RCC_OSCILLATORTYPE_HSI14)
 957              		.loc 1 547 3 is_stmt 1 view .LVU262
 958              		.loc 1 547 5 is_stmt 0 view .LVU263
 959 0364 2368     		ldr	r3, [r4]
 960 0366 DB06     		lsls	r3, r3, #27
 961 0368 1CD5     		bpl	.L69
 548:Drivers/STM32F0xx_HAL_Driver/Src/stm32f0xx_hal_rcc.c ****   {
 549:Drivers/STM32F0xx_HAL_Driver/Src/stm32f0xx_hal_rcc.c ****     /* Check the parameters */
 550:Drivers/STM32F0xx_HAL_Driver/Src/stm32f0xx_hal_rcc.c ****     assert_param(IS_RCC_HSI14(RCC_OscInitStruct->HSI14State));
 962              		.loc 1 550 5 is_stmt 1 view .LVU264
 963 036a 6369     		ldr	r3, [r4, #20]
 964 036c 012B     		cmp	r3, #1
 965 036e 02D9     		bls	.L70
 966              		.loc 1 550 5 is_stmt 0 discriminator 1 view .LVU265
 967 0370 0533     		adds	r3, r3, #5
 968 0372 00D0     		beq	.LCB937
 969 0374 87E0     		b	.L129	@long jump
 970              	.LCB937:
 971              	.L70:
 551:Drivers/STM32F0xx_HAL_Driver/Src/stm32f0xx_hal_rcc.c ****     assert_param(IS_RCC_CALIBRATION_VALUE(RCC_OscInitStruct->HSI14CalibrationValue));
 972              		.loc 1 551 5 is_stmt 1 view .LVU266
 973 0376 A369     		ldr	r3, [r4, #24]
 974 0378 1F2B     		cmp	r3, #31
 975 037a 00D9     		bls	.LCB943
 976 037c 88E0     		b	.L130	@long jump
 977              	.LCB943:
 978              	.L71:
 552:Drivers/STM32F0xx_HAL_Driver/Src/stm32f0xx_hal_rcc.c **** 
 553:Drivers/STM32F0xx_HAL_Driver/Src/stm32f0xx_hal_rcc.c ****     /* Check the HSI14 State */
 554:Drivers/STM32F0xx_HAL_Driver/Src/stm32f0xx_hal_rcc.c ****     if(RCC_OscInitStruct->HSI14State == RCC_HSI14_ON)
 979              		.loc 1 554 5 view .LVU267
ARM GAS  /tmp/cc0e6U0t.s 			page 30


 980              		.loc 1 554 25 is_stmt 0 view .LVU268
 981 037e 6369     		ldr	r3, [r4, #20]
 982              		.loc 1 554 7 view .LVU269
 983 0380 012B     		cmp	r3, #1
 984 0382 00D1     		bne	.LCB948
 985 0384 89E0     		b	.L131	@long jump
 986              	.LCB948:
 555:Drivers/STM32F0xx_HAL_Driver/Src/stm32f0xx_hal_rcc.c ****     {
 556:Drivers/STM32F0xx_HAL_Driver/Src/stm32f0xx_hal_rcc.c ****       /* Disable ADC control of the Internal High Speed oscillator HSI14 */
 557:Drivers/STM32F0xx_HAL_Driver/Src/stm32f0xx_hal_rcc.c ****       __HAL_RCC_HSI14ADC_DISABLE();
 558:Drivers/STM32F0xx_HAL_Driver/Src/stm32f0xx_hal_rcc.c **** 
 559:Drivers/STM32F0xx_HAL_Driver/Src/stm32f0xx_hal_rcc.c ****       /* Enable the Internal High Speed oscillator (HSI). */
 560:Drivers/STM32F0xx_HAL_Driver/Src/stm32f0xx_hal_rcc.c ****       __HAL_RCC_HSI14_ENABLE();
 561:Drivers/STM32F0xx_HAL_Driver/Src/stm32f0xx_hal_rcc.c **** 
 562:Drivers/STM32F0xx_HAL_Driver/Src/stm32f0xx_hal_rcc.c ****       /* Get Start Tick */
 563:Drivers/STM32F0xx_HAL_Driver/Src/stm32f0xx_hal_rcc.c ****       tickstart = HAL_GetTick();
 564:Drivers/STM32F0xx_HAL_Driver/Src/stm32f0xx_hal_rcc.c ****       
 565:Drivers/STM32F0xx_HAL_Driver/Src/stm32f0xx_hal_rcc.c ****       /* Wait till HSI is ready */  
 566:Drivers/STM32F0xx_HAL_Driver/Src/stm32f0xx_hal_rcc.c ****       while(__HAL_RCC_GET_FLAG(RCC_FLAG_HSI14RDY) == RESET)
 567:Drivers/STM32F0xx_HAL_Driver/Src/stm32f0xx_hal_rcc.c ****       {
 568:Drivers/STM32F0xx_HAL_Driver/Src/stm32f0xx_hal_rcc.c ****         if((HAL_GetTick() - tickstart) > HSI14_TIMEOUT_VALUE)
 569:Drivers/STM32F0xx_HAL_Driver/Src/stm32f0xx_hal_rcc.c ****         {
 570:Drivers/STM32F0xx_HAL_Driver/Src/stm32f0xx_hal_rcc.c ****           return HAL_TIMEOUT;
 571:Drivers/STM32F0xx_HAL_Driver/Src/stm32f0xx_hal_rcc.c ****         }      
 572:Drivers/STM32F0xx_HAL_Driver/Src/stm32f0xx_hal_rcc.c ****       } 
 573:Drivers/STM32F0xx_HAL_Driver/Src/stm32f0xx_hal_rcc.c **** 
 574:Drivers/STM32F0xx_HAL_Driver/Src/stm32f0xx_hal_rcc.c ****       /* Adjusts the Internal High Speed oscillator 14Mhz (HSI14) calibration value. */
 575:Drivers/STM32F0xx_HAL_Driver/Src/stm32f0xx_hal_rcc.c ****       __HAL_RCC_HSI14_CALIBRATIONVALUE_ADJUST(RCC_OscInitStruct->HSI14CalibrationValue);
 576:Drivers/STM32F0xx_HAL_Driver/Src/stm32f0xx_hal_rcc.c ****     }
 577:Drivers/STM32F0xx_HAL_Driver/Src/stm32f0xx_hal_rcc.c ****     else if(RCC_OscInitStruct->HSI14State == RCC_HSI14_ADC_CONTROL)
 987              		.loc 1 577 10 is_stmt 1 view .LVU270
 988              		.loc 1 577 12 is_stmt 0 view .LVU271
 989 0386 0533     		adds	r3, r3, #5
 990 0388 00D0     		beq	.LCB951
 991 038a A6E0     		b	.L75	@long jump
 992              	.LCB951:
 578:Drivers/STM32F0xx_HAL_Driver/Src/stm32f0xx_hal_rcc.c ****     {
 579:Drivers/STM32F0xx_HAL_Driver/Src/stm32f0xx_hal_rcc.c ****       /* Enable ADC control of the Internal High Speed oscillator HSI14 */
 580:Drivers/STM32F0xx_HAL_Driver/Src/stm32f0xx_hal_rcc.c ****       __HAL_RCC_HSI14ADC_ENABLE();
 993              		.loc 1 580 7 is_stmt 1 view .LVU272
 994 038c 9A4A     		ldr	r2, .L142
 995 038e 536B     		ldr	r3, [r2, #52]
 996 0390 0421     		movs	r1, #4
 997 0392 8B43     		bics	r3, r1
 998 0394 5363     		str	r3, [r2, #52]
 581:Drivers/STM32F0xx_HAL_Driver/Src/stm32f0xx_hal_rcc.c **** 
 582:Drivers/STM32F0xx_HAL_Driver/Src/stm32f0xx_hal_rcc.c ****       /* Adjusts the Internal High Speed oscillator 14Mhz (HSI14) calibration value. */
 583:Drivers/STM32F0xx_HAL_Driver/Src/stm32f0xx_hal_rcc.c ****       __HAL_RCC_HSI14_CALIBRATIONVALUE_ADJUST(RCC_OscInitStruct->HSI14CalibrationValue);
 999              		.loc 1 583 7 view .LVU273
 1000 0396 536B     		ldr	r3, [r2, #52]
 1001 0398 F431     		adds	r1, r1, #244
 1002 039a 8B43     		bics	r3, r1
 1003 039c A169     		ldr	r1, [r4, #24]
 1004 039e C900     		lsls	r1, r1, #3
 1005 03a0 0B43     		orrs	r3, r1
 1006 03a2 5363     		str	r3, [r2, #52]
 1007              	.L69:
ARM GAS  /tmp/cc0e6U0t.s 			page 31


 584:Drivers/STM32F0xx_HAL_Driver/Src/stm32f0xx_hal_rcc.c ****     }
 585:Drivers/STM32F0xx_HAL_Driver/Src/stm32f0xx_hal_rcc.c ****     else
 586:Drivers/STM32F0xx_HAL_Driver/Src/stm32f0xx_hal_rcc.c ****     {
 587:Drivers/STM32F0xx_HAL_Driver/Src/stm32f0xx_hal_rcc.c ****       /* Disable ADC control of the Internal High Speed oscillator HSI14 */
 588:Drivers/STM32F0xx_HAL_Driver/Src/stm32f0xx_hal_rcc.c ****       __HAL_RCC_HSI14ADC_DISABLE();
 589:Drivers/STM32F0xx_HAL_Driver/Src/stm32f0xx_hal_rcc.c **** 
 590:Drivers/STM32F0xx_HAL_Driver/Src/stm32f0xx_hal_rcc.c ****       /* Disable the Internal High Speed oscillator (HSI). */
 591:Drivers/STM32F0xx_HAL_Driver/Src/stm32f0xx_hal_rcc.c ****       __HAL_RCC_HSI14_DISABLE();
 592:Drivers/STM32F0xx_HAL_Driver/Src/stm32f0xx_hal_rcc.c **** 
 593:Drivers/STM32F0xx_HAL_Driver/Src/stm32f0xx_hal_rcc.c ****       /* Get Start Tick */
 594:Drivers/STM32F0xx_HAL_Driver/Src/stm32f0xx_hal_rcc.c ****       tickstart = HAL_GetTick();
 595:Drivers/STM32F0xx_HAL_Driver/Src/stm32f0xx_hal_rcc.c ****       
 596:Drivers/STM32F0xx_HAL_Driver/Src/stm32f0xx_hal_rcc.c ****       /* Wait till HSI is ready */  
 597:Drivers/STM32F0xx_HAL_Driver/Src/stm32f0xx_hal_rcc.c ****       while(__HAL_RCC_GET_FLAG(RCC_FLAG_HSI14RDY) != RESET)
 598:Drivers/STM32F0xx_HAL_Driver/Src/stm32f0xx_hal_rcc.c ****       {
 599:Drivers/STM32F0xx_HAL_Driver/Src/stm32f0xx_hal_rcc.c ****         if((HAL_GetTick() - tickstart) > HSI14_TIMEOUT_VALUE)
 600:Drivers/STM32F0xx_HAL_Driver/Src/stm32f0xx_hal_rcc.c ****         {
 601:Drivers/STM32F0xx_HAL_Driver/Src/stm32f0xx_hal_rcc.c ****           return HAL_TIMEOUT;
 602:Drivers/STM32F0xx_HAL_Driver/Src/stm32f0xx_hal_rcc.c ****         }
 603:Drivers/STM32F0xx_HAL_Driver/Src/stm32f0xx_hal_rcc.c ****       }
 604:Drivers/STM32F0xx_HAL_Driver/Src/stm32f0xx_hal_rcc.c ****     }
 605:Drivers/STM32F0xx_HAL_Driver/Src/stm32f0xx_hal_rcc.c ****   }
 606:Drivers/STM32F0xx_HAL_Driver/Src/stm32f0xx_hal_rcc.c **** 
 607:Drivers/STM32F0xx_HAL_Driver/Src/stm32f0xx_hal_rcc.c **** #if defined(RCC_HSI48_SUPPORT)
 608:Drivers/STM32F0xx_HAL_Driver/Src/stm32f0xx_hal_rcc.c ****   /*----------------------------- HSI48 Configuration --------------------------*/
 609:Drivers/STM32F0xx_HAL_Driver/Src/stm32f0xx_hal_rcc.c ****   if(((RCC_OscInitStruct->OscillatorType) & RCC_OSCILLATORTYPE_HSI48) == RCC_OSCILLATORTYPE_HSI48)
 610:Drivers/STM32F0xx_HAL_Driver/Src/stm32f0xx_hal_rcc.c ****   {
 611:Drivers/STM32F0xx_HAL_Driver/Src/stm32f0xx_hal_rcc.c ****     /* Check the parameters */
 612:Drivers/STM32F0xx_HAL_Driver/Src/stm32f0xx_hal_rcc.c ****     assert_param(IS_RCC_HSI48(RCC_OscInitStruct->HSI48State));
 613:Drivers/STM32F0xx_HAL_Driver/Src/stm32f0xx_hal_rcc.c **** 
 614:Drivers/STM32F0xx_HAL_Driver/Src/stm32f0xx_hal_rcc.c ****     /* When the HSI48 is used as system clock it is not allowed to be disabled */
 615:Drivers/STM32F0xx_HAL_Driver/Src/stm32f0xx_hal_rcc.c ****     if((__HAL_RCC_GET_SYSCLK_SOURCE() == RCC_SYSCLKSOURCE_STATUS_HSI48) ||
 616:Drivers/STM32F0xx_HAL_Driver/Src/stm32f0xx_hal_rcc.c ****        ((__HAL_RCC_GET_SYSCLK_SOURCE() == RCC_SYSCLKSOURCE_STATUS_PLLCLK) && (__HAL_RCC_GET_PLL_OSC
 617:Drivers/STM32F0xx_HAL_Driver/Src/stm32f0xx_hal_rcc.c ****     {
 618:Drivers/STM32F0xx_HAL_Driver/Src/stm32f0xx_hal_rcc.c ****       if((__HAL_RCC_GET_FLAG(RCC_FLAG_HSI48RDY) != RESET) && (RCC_OscInitStruct->HSI48State != RCC_
 619:Drivers/STM32F0xx_HAL_Driver/Src/stm32f0xx_hal_rcc.c ****       {
 620:Drivers/STM32F0xx_HAL_Driver/Src/stm32f0xx_hal_rcc.c ****         return HAL_ERROR;
 621:Drivers/STM32F0xx_HAL_Driver/Src/stm32f0xx_hal_rcc.c ****       }
 622:Drivers/STM32F0xx_HAL_Driver/Src/stm32f0xx_hal_rcc.c ****     }
 623:Drivers/STM32F0xx_HAL_Driver/Src/stm32f0xx_hal_rcc.c ****     else
 624:Drivers/STM32F0xx_HAL_Driver/Src/stm32f0xx_hal_rcc.c ****     {
 625:Drivers/STM32F0xx_HAL_Driver/Src/stm32f0xx_hal_rcc.c ****       /* Check the HSI48 State */
 626:Drivers/STM32F0xx_HAL_Driver/Src/stm32f0xx_hal_rcc.c ****       if(RCC_OscInitStruct->HSI48State != RCC_HSI48_OFF)
 627:Drivers/STM32F0xx_HAL_Driver/Src/stm32f0xx_hal_rcc.c ****       {
 628:Drivers/STM32F0xx_HAL_Driver/Src/stm32f0xx_hal_rcc.c ****         /* Enable the Internal High Speed oscillator (HSI48). */
 629:Drivers/STM32F0xx_HAL_Driver/Src/stm32f0xx_hal_rcc.c ****         __HAL_RCC_HSI48_ENABLE();
 630:Drivers/STM32F0xx_HAL_Driver/Src/stm32f0xx_hal_rcc.c **** 
 631:Drivers/STM32F0xx_HAL_Driver/Src/stm32f0xx_hal_rcc.c ****         /* Get Start Tick */
 632:Drivers/STM32F0xx_HAL_Driver/Src/stm32f0xx_hal_rcc.c ****         tickstart = HAL_GetTick();
 633:Drivers/STM32F0xx_HAL_Driver/Src/stm32f0xx_hal_rcc.c ****       
 634:Drivers/STM32F0xx_HAL_Driver/Src/stm32f0xx_hal_rcc.c ****         /* Wait till HSI48 is ready */  
 635:Drivers/STM32F0xx_HAL_Driver/Src/stm32f0xx_hal_rcc.c ****         while(__HAL_RCC_GET_FLAG(RCC_FLAG_HSI48RDY) == RESET)
 636:Drivers/STM32F0xx_HAL_Driver/Src/stm32f0xx_hal_rcc.c ****         {
 637:Drivers/STM32F0xx_HAL_Driver/Src/stm32f0xx_hal_rcc.c ****           if((HAL_GetTick() - tickstart) > HSI48_TIMEOUT_VALUE)
 638:Drivers/STM32F0xx_HAL_Driver/Src/stm32f0xx_hal_rcc.c ****           {
 639:Drivers/STM32F0xx_HAL_Driver/Src/stm32f0xx_hal_rcc.c ****             return HAL_TIMEOUT;
 640:Drivers/STM32F0xx_HAL_Driver/Src/stm32f0xx_hal_rcc.c ****           }
ARM GAS  /tmp/cc0e6U0t.s 			page 32


 641:Drivers/STM32F0xx_HAL_Driver/Src/stm32f0xx_hal_rcc.c ****         } 
 642:Drivers/STM32F0xx_HAL_Driver/Src/stm32f0xx_hal_rcc.c ****       }
 643:Drivers/STM32F0xx_HAL_Driver/Src/stm32f0xx_hal_rcc.c ****       else
 644:Drivers/STM32F0xx_HAL_Driver/Src/stm32f0xx_hal_rcc.c ****       {
 645:Drivers/STM32F0xx_HAL_Driver/Src/stm32f0xx_hal_rcc.c ****         /* Disable the Internal High Speed oscillator (HSI48). */
 646:Drivers/STM32F0xx_HAL_Driver/Src/stm32f0xx_hal_rcc.c ****         __HAL_RCC_HSI48_DISABLE();
 647:Drivers/STM32F0xx_HAL_Driver/Src/stm32f0xx_hal_rcc.c **** 
 648:Drivers/STM32F0xx_HAL_Driver/Src/stm32f0xx_hal_rcc.c ****         /* Get Start Tick */
 649:Drivers/STM32F0xx_HAL_Driver/Src/stm32f0xx_hal_rcc.c ****         tickstart = HAL_GetTick();
 650:Drivers/STM32F0xx_HAL_Driver/Src/stm32f0xx_hal_rcc.c ****       
 651:Drivers/STM32F0xx_HAL_Driver/Src/stm32f0xx_hal_rcc.c ****         /* Wait till HSI48 is ready */  
 652:Drivers/STM32F0xx_HAL_Driver/Src/stm32f0xx_hal_rcc.c ****         while(__HAL_RCC_GET_FLAG(RCC_FLAG_HSI48RDY) != RESET)
 653:Drivers/STM32F0xx_HAL_Driver/Src/stm32f0xx_hal_rcc.c ****         {
 654:Drivers/STM32F0xx_HAL_Driver/Src/stm32f0xx_hal_rcc.c ****           if((HAL_GetTick() - tickstart) > HSI48_TIMEOUT_VALUE)
 655:Drivers/STM32F0xx_HAL_Driver/Src/stm32f0xx_hal_rcc.c ****           {
 656:Drivers/STM32F0xx_HAL_Driver/Src/stm32f0xx_hal_rcc.c ****             return HAL_TIMEOUT;
 657:Drivers/STM32F0xx_HAL_Driver/Src/stm32f0xx_hal_rcc.c ****           }
 658:Drivers/STM32F0xx_HAL_Driver/Src/stm32f0xx_hal_rcc.c ****         }
 659:Drivers/STM32F0xx_HAL_Driver/Src/stm32f0xx_hal_rcc.c ****       }
 660:Drivers/STM32F0xx_HAL_Driver/Src/stm32f0xx_hal_rcc.c ****     }
 661:Drivers/STM32F0xx_HAL_Driver/Src/stm32f0xx_hal_rcc.c ****   }
 662:Drivers/STM32F0xx_HAL_Driver/Src/stm32f0xx_hal_rcc.c **** #endif /* RCC_HSI48_SUPPORT */
 663:Drivers/STM32F0xx_HAL_Driver/Src/stm32f0xx_hal_rcc.c ****        
 664:Drivers/STM32F0xx_HAL_Driver/Src/stm32f0xx_hal_rcc.c ****   /*-------------------------------- PLL Configuration -----------------------*/
 665:Drivers/STM32F0xx_HAL_Driver/Src/stm32f0xx_hal_rcc.c ****   /* Check the parameters */
 666:Drivers/STM32F0xx_HAL_Driver/Src/stm32f0xx_hal_rcc.c ****   assert_param(IS_RCC_PLL(RCC_OscInitStruct->PLL.PLLState));
 1008              		.loc 1 666 3 view .LVU274
 1009 03a4 236A     		ldr	r3, [r4, #32]
 1010 03a6 022B     		cmp	r3, #2
 1011 03a8 00D9     		bls	.LCB974
 1012 03aa AEE0     		b	.L132	@long jump
 1013              	.LCB974:
 1014              	.L78:
 667:Drivers/STM32F0xx_HAL_Driver/Src/stm32f0xx_hal_rcc.c ****   if ((RCC_OscInitStruct->PLL.PLLState) != RCC_PLL_NONE)
 1015              		.loc 1 667 3 view .LVU275
 1016              		.loc 1 667 30 is_stmt 0 view .LVU276
 1017 03ac 236A     		ldr	r3, [r4, #32]
 1018              		.loc 1 667 6 view .LVU277
 1019 03ae 002B     		cmp	r3, #0
 1020 03b0 00D1     		bne	.LCB979
 1021 03b2 17E1     		b	.L105	@long jump
 1022              	.LCB979:
 668:Drivers/STM32F0xx_HAL_Driver/Src/stm32f0xx_hal_rcc.c ****   {
 669:Drivers/STM32F0xx_HAL_Driver/Src/stm32f0xx_hal_rcc.c ****     /* Check if the PLL is used as system clock or not */
 670:Drivers/STM32F0xx_HAL_Driver/Src/stm32f0xx_hal_rcc.c ****     if(__HAL_RCC_GET_SYSCLK_SOURCE() != RCC_SYSCLKSOURCE_STATUS_PLLCLK)
 1023              		.loc 1 670 5 is_stmt 1 view .LVU278
 1024              		.loc 1 670 8 is_stmt 0 view .LVU279
 1025 03b4 904A     		ldr	r2, .L142
 1026 03b6 5168     		ldr	r1, [r2, #4]
 1027 03b8 0C22     		movs	r2, #12
 1028 03ba 0A40     		ands	r2, r1
 1029              		.loc 1 670 7 view .LVU280
 1030 03bc 082A     		cmp	r2, #8
 1031 03be 00D1     		bne	.LCB986
 1032 03c0 F1E0     		b	.L79	@long jump
 1033              	.LCB986:
 671:Drivers/STM32F0xx_HAL_Driver/Src/stm32f0xx_hal_rcc.c ****     { 
ARM GAS  /tmp/cc0e6U0t.s 			page 33


 672:Drivers/STM32F0xx_HAL_Driver/Src/stm32f0xx_hal_rcc.c ****       if((RCC_OscInitStruct->PLL.PLLState) == RCC_PLL_ON)
 1034              		.loc 1 672 7 is_stmt 1 view .LVU281
 1035              		.loc 1 672 9 is_stmt 0 view .LVU282
 1036 03c2 022B     		cmp	r3, #2
 1037 03c4 00D0     		beq	.LCB989
 1038 03c6 D9E0     		b	.L80	@long jump
 1039              	.LCB989:
 673:Drivers/STM32F0xx_HAL_Driver/Src/stm32f0xx_hal_rcc.c ****       {
 674:Drivers/STM32F0xx_HAL_Driver/Src/stm32f0xx_hal_rcc.c ****         /* Check the parameters */
 675:Drivers/STM32F0xx_HAL_Driver/Src/stm32f0xx_hal_rcc.c ****         assert_param(IS_RCC_PLLSOURCE(RCC_OscInitStruct->PLL.PLLSource));
 1040              		.loc 1 675 9 is_stmt 1 view .LVU283
 1041 03c8 636A     		ldr	r3, [r4, #36]
 1042 03ca 002B     		cmp	r3, #0
 1043 03cc 04D0     		beq	.L81
 1044              		.loc 1 675 9 is_stmt 0 discriminator 1 view .LVU284
 1045 03ce 8022     		movs	r2, #128
 1046 03d0 5202     		lsls	r2, r2, #9
 1047 03d2 9342     		cmp	r3, r2
 1048 03d4 00D0     		beq	.LCB997
 1049 03d6 9DE0     		b	.L133	@long jump
 1050              	.LCB997:
 1051              	.L81:
 676:Drivers/STM32F0xx_HAL_Driver/Src/stm32f0xx_hal_rcc.c ****         assert_param(IS_RCC_PLL_MUL(RCC_OscInitStruct->PLL.PLLMUL));
 1052              		.loc 1 676 9 is_stmt 1 view .LVU285
 1053 03d8 A36A     		ldr	r3, [r4, #40]
 1054 03da 002B     		cmp	r3, #0
 1055 03dc 37D0     		beq	.L82
 1056              		.loc 1 676 9 is_stmt 0 discriminator 1 view .LVU286
 1057 03de 8022     		movs	r2, #128
 1058 03e0 D202     		lsls	r2, r2, #11
 1059 03e2 9342     		cmp	r3, r2
 1060 03e4 33D0     		beq	.L82
 1061              		.loc 1 676 9 discriminator 2 view .LVU287
 1062 03e6 8022     		movs	r2, #128
 1063 03e8 1203     		lsls	r2, r2, #12
 1064 03ea 9342     		cmp	r3, r2
 1065 03ec 2FD0     		beq	.L82
 1066              		.loc 1 676 9 discriminator 3 view .LVU288
 1067 03ee C022     		movs	r2, #192
 1068 03f0 1203     		lsls	r2, r2, #12
 1069 03f2 9342     		cmp	r3, r2
 1070 03f4 2BD0     		beq	.L82
 1071              		.loc 1 676 9 discriminator 4 view .LVU289
 1072 03f6 8022     		movs	r2, #128
 1073 03f8 5203     		lsls	r2, r2, #13
 1074 03fa 9342     		cmp	r3, r2
 1075 03fc 27D0     		beq	.L82
 1076              		.loc 1 676 9 discriminator 5 view .LVU290
 1077 03fe A022     		movs	r2, #160
 1078 0400 5203     		lsls	r2, r2, #13
 1079 0402 9342     		cmp	r3, r2
 1080 0404 23D0     		beq	.L82
 1081              		.loc 1 676 9 discriminator 6 view .LVU291
 1082 0406 C022     		movs	r2, #192
 1083 0408 5203     		lsls	r2, r2, #13
 1084 040a 9342     		cmp	r3, r2
 1085 040c 1FD0     		beq	.L82
ARM GAS  /tmp/cc0e6U0t.s 			page 34


 1086              		.loc 1 676 9 discriminator 7 view .LVU292
 1087 040e E022     		movs	r2, #224
 1088 0410 5203     		lsls	r2, r2, #13
 1089 0412 9342     		cmp	r3, r2
 1090 0414 1BD0     		beq	.L82
 1091              		.loc 1 676 9 discriminator 8 view .LVU293
 1092 0416 8022     		movs	r2, #128
 1093 0418 9203     		lsls	r2, r2, #14
 1094 041a 9342     		cmp	r3, r2
 1095 041c 17D0     		beq	.L82
 1096              		.loc 1 676 9 discriminator 9 view .LVU294
 1097 041e 9022     		movs	r2, #144
 1098 0420 9203     		lsls	r2, r2, #14
 1099 0422 9342     		cmp	r3, r2
 1100 0424 13D0     		beq	.L82
 1101              		.loc 1 676 9 discriminator 10 view .LVU295
 1102 0426 A022     		movs	r2, #160
 1103 0428 9203     		lsls	r2, r2, #14
 1104 042a 9342     		cmp	r3, r2
 1105 042c 0FD0     		beq	.L82
 1106              		.loc 1 676 9 discriminator 11 view .LVU296
 1107 042e B022     		movs	r2, #176
 1108 0430 9203     		lsls	r2, r2, #14
 1109 0432 9342     		cmp	r3, r2
 1110 0434 0BD0     		beq	.L82
 1111              		.loc 1 676 9 discriminator 12 view .LVU297
 1112 0436 C022     		movs	r2, #192
 1113 0438 9203     		lsls	r2, r2, #14
 1114 043a 9342     		cmp	r3, r2
 1115 043c 07D0     		beq	.L82
 1116              		.loc 1 676 9 discriminator 13 view .LVU298
 1117 043e D022     		movs	r2, #208
 1118 0440 9203     		lsls	r2, r2, #14
 1119 0442 9342     		cmp	r3, r2
 1120 0444 03D0     		beq	.L82
 1121              		.loc 1 676 9 discriminator 14 view .LVU299
 1122 0446 E022     		movs	r2, #224
 1123 0448 9203     		lsls	r2, r2, #14
 1124 044a 9342     		cmp	r3, r2
 1125 044c 67D1     		bne	.L134
 1126              	.L82:
 677:Drivers/STM32F0xx_HAL_Driver/Src/stm32f0xx_hal_rcc.c ****         assert_param(IS_RCC_PREDIV(RCC_OscInitStruct->PLL.PREDIV));
 1127              		.loc 1 677 9 is_stmt 1 view .LVU300
 1128 044e E36A     		ldr	r3, [r4, #44]
 1129 0450 0F2B     		cmp	r3, #15
 1130 0452 6AD8     		bhi	.L135
 1131              	.L83:
 678:Drivers/STM32F0xx_HAL_Driver/Src/stm32f0xx_hal_rcc.c ****   
 679:Drivers/STM32F0xx_HAL_Driver/Src/stm32f0xx_hal_rcc.c ****         /* Disable the main PLL. */
 680:Drivers/STM32F0xx_HAL_Driver/Src/stm32f0xx_hal_rcc.c ****         __HAL_RCC_PLL_DISABLE();
 1132              		.loc 1 680 9 view .LVU301
 1133 0454 684A     		ldr	r2, .L142
 1134 0456 1368     		ldr	r3, [r2]
 1135 0458 6949     		ldr	r1, .L142+8
 1136 045a 0B40     		ands	r3, r1
 1137 045c 1360     		str	r3, [r2]
 681:Drivers/STM32F0xx_HAL_Driver/Src/stm32f0xx_hal_rcc.c ****         
ARM GAS  /tmp/cc0e6U0t.s 			page 35


 682:Drivers/STM32F0xx_HAL_Driver/Src/stm32f0xx_hal_rcc.c ****         /* Get Start Tick */
 683:Drivers/STM32F0xx_HAL_Driver/Src/stm32f0xx_hal_rcc.c ****         tickstart = HAL_GetTick();
 1138              		.loc 1 683 9 view .LVU302
 1139              		.loc 1 683 21 is_stmt 0 view .LVU303
 1140 045e FFF7FEFF 		bl	HAL_GetTick
 1141              	.LVL65:
 1142 0462 0500     		movs	r5, r0
 1143              	.LVL66:
 684:Drivers/STM32F0xx_HAL_Driver/Src/stm32f0xx_hal_rcc.c ****         
 685:Drivers/STM32F0xx_HAL_Driver/Src/stm32f0xx_hal_rcc.c ****         /* Wait till PLL is disabled */
 686:Drivers/STM32F0xx_HAL_Driver/Src/stm32f0xx_hal_rcc.c ****         while(__HAL_RCC_GET_FLAG(RCC_FLAG_PLLRDY)  != RESET)
 1144              		.loc 1 686 9 is_stmt 1 view .LVU304
 1145              	.L84:
 1146              		.loc 1 686 14 view .LVU305
 1147              		.loc 1 686 15 is_stmt 0 view .LVU306
 1148 0464 644B     		ldr	r3, .L142
 1149 0466 1B68     		ldr	r3, [r3]
 1150              		.loc 1 686 14 view .LVU307
 1151 0468 9B01     		lsls	r3, r3, #6
 1152 046a 63D5     		bpl	.L136
 687:Drivers/STM32F0xx_HAL_Driver/Src/stm32f0xx_hal_rcc.c ****         {
 688:Drivers/STM32F0xx_HAL_Driver/Src/stm32f0xx_hal_rcc.c ****           if((HAL_GetTick() - tickstart ) > PLL_TIMEOUT_VALUE)
 1153              		.loc 1 688 11 is_stmt 1 view .LVU308
 1154              		.loc 1 688 15 is_stmt 0 view .LVU309
 1155 046c FFF7FEFF 		bl	HAL_GetTick
 1156              	.LVL67:
 1157              		.loc 1 688 29 view .LVU310
 1158 0470 401B     		subs	r0, r0, r5
 1159              		.loc 1 688 13 view .LVU311
 1160 0472 0228     		cmp	r0, #2
 1161 0474 F6D9     		bls	.L84
 689:Drivers/STM32F0xx_HAL_Driver/Src/stm32f0xx_hal_rcc.c ****           {
 690:Drivers/STM32F0xx_HAL_Driver/Src/stm32f0xx_hal_rcc.c ****             return HAL_TIMEOUT;
 1162              		.loc 1 690 20 view .LVU312
 1163 0476 0320     		movs	r0, #3
 1164 0478 AEE0     		b	.L20
 1165              	.LVL68:
 1166              	.L128:
 1167              	.LBB4:
 542:Drivers/STM32F0xx_HAL_Driver/Src/stm32f0xx_hal_rcc.c ****     }
 1168              		.loc 1 542 7 is_stmt 1 view .LVU313
 1169 047a 5F4A     		ldr	r2, .L142
 1170 047c D369     		ldr	r3, [r2, #28]
 1171 047e 6149     		ldr	r1, .L142+12
 1172 0480 0B40     		ands	r3, r1
 1173 0482 D361     		str	r3, [r2, #28]
 1174 0484 6EE7     		b	.L53
 1175              	.LVL69:
 1176              	.L129:
 542:Drivers/STM32F0xx_HAL_Driver/Src/stm32f0xx_hal_rcc.c ****     }
 1177              		.loc 1 542 7 is_stmt 0 view .LVU314
 1178              	.LBE4:
 550:Drivers/STM32F0xx_HAL_Driver/Src/stm32f0xx_hal_rcc.c ****     assert_param(IS_RCC_CALIBRATION_VALUE(RCC_OscInitStruct->HSI14CalibrationValue));
 1179              		.loc 1 550 5 discriminator 2 view .LVU315
 1180 0486 6049     		ldr	r1, .L142+16
 1181 0488 6048     		ldr	r0, .L142+20
 1182 048a FFF7FEFF 		bl	assert_failed
ARM GAS  /tmp/cc0e6U0t.s 			page 36


 1183              	.LVL70:
 1184 048e 72E7     		b	.L70
 1185              	.L130:
 551:Drivers/STM32F0xx_HAL_Driver/Src/stm32f0xx_hal_rcc.c **** 
 1186              		.loc 1 551 5 discriminator 1 view .LVU316
 1187 0490 5F49     		ldr	r1, .L142+24
 1188 0492 5E48     		ldr	r0, .L142+20
 1189 0494 FFF7FEFF 		bl	assert_failed
 1190              	.LVL71:
 1191 0498 71E7     		b	.L71
 1192              	.L131:
 557:Drivers/STM32F0xx_HAL_Driver/Src/stm32f0xx_hal_rcc.c **** 
 1193              		.loc 1 557 7 is_stmt 1 view .LVU317
 1194 049a 574B     		ldr	r3, .L142
 1195 049c 5A6B     		ldr	r2, [r3, #52]
 1196 049e 0421     		movs	r1, #4
 1197 04a0 0A43     		orrs	r2, r1
 1198 04a2 5A63     		str	r2, [r3, #52]
 560:Drivers/STM32F0xx_HAL_Driver/Src/stm32f0xx_hal_rcc.c **** 
 1199              		.loc 1 560 7 view .LVU318
 1200 04a4 5A6B     		ldr	r2, [r3, #52]
 1201 04a6 0339     		subs	r1, r1, #3
 1202 04a8 0A43     		orrs	r2, r1
 1203 04aa 5A63     		str	r2, [r3, #52]
 563:Drivers/STM32F0xx_HAL_Driver/Src/stm32f0xx_hal_rcc.c ****       
 1204              		.loc 1 563 7 view .LVU319
 563:Drivers/STM32F0xx_HAL_Driver/Src/stm32f0xx_hal_rcc.c ****       
 1205              		.loc 1 563 19 is_stmt 0 view .LVU320
 1206 04ac FFF7FEFF 		bl	HAL_GetTick
 1207              	.LVL72:
 1208 04b0 0500     		movs	r5, r0
 1209              	.LVL73:
 566:Drivers/STM32F0xx_HAL_Driver/Src/stm32f0xx_hal_rcc.c ****       {
 1210              		.loc 1 566 7 is_stmt 1 view .LVU321
 1211              	.L73:
 566:Drivers/STM32F0xx_HAL_Driver/Src/stm32f0xx_hal_rcc.c ****       {
 1212              		.loc 1 566 12 view .LVU322
 566:Drivers/STM32F0xx_HAL_Driver/Src/stm32f0xx_hal_rcc.c ****       {
 1213              		.loc 1 566 13 is_stmt 0 view .LVU323
 1214 04b2 514B     		ldr	r3, .L142
 1215 04b4 5B6B     		ldr	r3, [r3, #52]
 566:Drivers/STM32F0xx_HAL_Driver/Src/stm32f0xx_hal_rcc.c ****       {
 1216              		.loc 1 566 12 view .LVU324
 1217 04b6 9B07     		lsls	r3, r3, #30
 1218 04b8 06D4     		bmi	.L137
 568:Drivers/STM32F0xx_HAL_Driver/Src/stm32f0xx_hal_rcc.c ****         {
 1219              		.loc 1 568 9 is_stmt 1 view .LVU325
 568:Drivers/STM32F0xx_HAL_Driver/Src/stm32f0xx_hal_rcc.c ****         {
 1220              		.loc 1 568 13 is_stmt 0 view .LVU326
 1221 04ba FFF7FEFF 		bl	HAL_GetTick
 1222              	.LVL74:
 568:Drivers/STM32F0xx_HAL_Driver/Src/stm32f0xx_hal_rcc.c ****         {
 1223              		.loc 1 568 27 view .LVU327
 1224 04be 401B     		subs	r0, r0, r5
 568:Drivers/STM32F0xx_HAL_Driver/Src/stm32f0xx_hal_rcc.c ****         {
 1225              		.loc 1 568 11 view .LVU328
 1226 04c0 0228     		cmp	r0, #2
ARM GAS  /tmp/cc0e6U0t.s 			page 37


 1227 04c2 F6D9     		bls	.L73
 570:Drivers/STM32F0xx_HAL_Driver/Src/stm32f0xx_hal_rcc.c ****         }      
 1228              		.loc 1 570 18 view .LVU329
 1229 04c4 0320     		movs	r0, #3
 1230 04c6 87E0     		b	.L20
 1231              	.L137:
 575:Drivers/STM32F0xx_HAL_Driver/Src/stm32f0xx_hal_rcc.c ****     }
 1232              		.loc 1 575 7 is_stmt 1 view .LVU330
 1233 04c8 4B49     		ldr	r1, .L142
 1234 04ca 4B6B     		ldr	r3, [r1, #52]
 1235 04cc F822     		movs	r2, #248
 1236 04ce 9343     		bics	r3, r2
 1237 04d0 A269     		ldr	r2, [r4, #24]
 1238 04d2 D200     		lsls	r2, r2, #3
 1239 04d4 1343     		orrs	r3, r2
 1240 04d6 4B63     		str	r3, [r1, #52]
 1241 04d8 64E7     		b	.L69
 1242              	.LVL75:
 1243              	.L75:
 588:Drivers/STM32F0xx_HAL_Driver/Src/stm32f0xx_hal_rcc.c **** 
 1244              		.loc 1 588 7 view .LVU331
 1245 04da 474B     		ldr	r3, .L142
 1246 04dc 5A6B     		ldr	r2, [r3, #52]
 1247 04de 0421     		movs	r1, #4
 1248 04e0 0A43     		orrs	r2, r1
 1249 04e2 5A63     		str	r2, [r3, #52]
 591:Drivers/STM32F0xx_HAL_Driver/Src/stm32f0xx_hal_rcc.c **** 
 1250              		.loc 1 591 7 view .LVU332
 1251 04e4 5A6B     		ldr	r2, [r3, #52]
 1252 04e6 0339     		subs	r1, r1, #3
 1253 04e8 8A43     		bics	r2, r1
 1254 04ea 5A63     		str	r2, [r3, #52]
 594:Drivers/STM32F0xx_HAL_Driver/Src/stm32f0xx_hal_rcc.c ****       
 1255              		.loc 1 594 7 view .LVU333
 594:Drivers/STM32F0xx_HAL_Driver/Src/stm32f0xx_hal_rcc.c ****       
 1256              		.loc 1 594 19 is_stmt 0 view .LVU334
 1257 04ec FFF7FEFF 		bl	HAL_GetTick
 1258              	.LVL76:
 1259 04f0 0500     		movs	r5, r0
 1260              	.LVL77:
 597:Drivers/STM32F0xx_HAL_Driver/Src/stm32f0xx_hal_rcc.c ****       {
 1261              		.loc 1 597 7 is_stmt 1 view .LVU335
 1262              	.L76:
 597:Drivers/STM32F0xx_HAL_Driver/Src/stm32f0xx_hal_rcc.c ****       {
 1263              		.loc 1 597 12 view .LVU336
 597:Drivers/STM32F0xx_HAL_Driver/Src/stm32f0xx_hal_rcc.c ****       {
 1264              		.loc 1 597 13 is_stmt 0 view .LVU337
 1265 04f2 414B     		ldr	r3, .L142
 1266 04f4 5B6B     		ldr	r3, [r3, #52]
 597:Drivers/STM32F0xx_HAL_Driver/Src/stm32f0xx_hal_rcc.c ****       {
 1267              		.loc 1 597 12 view .LVU338
 1268 04f6 9B07     		lsls	r3, r3, #30
 1269 04f8 00D4     		bmi	.LCB1211
 1270 04fa 53E7     		b	.L69	@long jump
 1271              	.LCB1211:
 599:Drivers/STM32F0xx_HAL_Driver/Src/stm32f0xx_hal_rcc.c ****         {
 1272              		.loc 1 599 9 is_stmt 1 view .LVU339
ARM GAS  /tmp/cc0e6U0t.s 			page 38


 599:Drivers/STM32F0xx_HAL_Driver/Src/stm32f0xx_hal_rcc.c ****         {
 1273              		.loc 1 599 13 is_stmt 0 view .LVU340
 1274 04fc FFF7FEFF 		bl	HAL_GetTick
 1275              	.LVL78:
 599:Drivers/STM32F0xx_HAL_Driver/Src/stm32f0xx_hal_rcc.c ****         {
 1276              		.loc 1 599 27 view .LVU341
 1277 0500 401B     		subs	r0, r0, r5
 599:Drivers/STM32F0xx_HAL_Driver/Src/stm32f0xx_hal_rcc.c ****         {
 1278              		.loc 1 599 11 view .LVU342
 1279 0502 0228     		cmp	r0, #2
 1280 0504 F5D9     		bls	.L76
 601:Drivers/STM32F0xx_HAL_Driver/Src/stm32f0xx_hal_rcc.c ****         }
 1281              		.loc 1 601 18 view .LVU343
 1282 0506 0320     		movs	r0, #3
 1283 0508 66E0     		b	.L20
 1284              	.LVL79:
 1285              	.L132:
 666:Drivers/STM32F0xx_HAL_Driver/Src/stm32f0xx_hal_rcc.c ****   if ((RCC_OscInitStruct->PLL.PLLState) != RCC_PLL_NONE)
 1286              		.loc 1 666 3 discriminator 1 view .LVU344
 1287 050a 4249     		ldr	r1, .L142+28
 1288 050c 3F48     		ldr	r0, .L142+20
 1289 050e FFF7FEFF 		bl	assert_failed
 1290              	.LVL80:
 1291 0512 4BE7     		b	.L78
 1292              	.L133:
 675:Drivers/STM32F0xx_HAL_Driver/Src/stm32f0xx_hal_rcc.c ****         assert_param(IS_RCC_PLL_MUL(RCC_OscInitStruct->PLL.PLLMUL));
 1293              		.loc 1 675 9 discriminator 2 view .LVU345
 1294 0514 4049     		ldr	r1, .L142+32
 1295 0516 3D48     		ldr	r0, .L142+20
 1296 0518 FFF7FEFF 		bl	assert_failed
 1297              	.LVL81:
 1298 051c 5CE7     		b	.L81
 1299              	.L134:
 676:Drivers/STM32F0xx_HAL_Driver/Src/stm32f0xx_hal_rcc.c ****         assert_param(IS_RCC_PREDIV(RCC_OscInitStruct->PLL.PREDIV));
 1300              		.loc 1 676 9 discriminator 15 view .LVU346
 1301 051e A921     		movs	r1, #169
 1302 0520 8900     		lsls	r1, r1, #2
 1303 0522 3A48     		ldr	r0, .L142+20
 1304 0524 FFF7FEFF 		bl	assert_failed
 1305              	.LVL82:
 1306 0528 91E7     		b	.L82
 1307              	.L135:
 677:Drivers/STM32F0xx_HAL_Driver/Src/stm32f0xx_hal_rcc.c ****   
 1308              		.loc 1 677 9 discriminator 1 view .LVU347
 1309 052a 3C49     		ldr	r1, .L142+36
 1310 052c 3748     		ldr	r0, .L142+20
 1311 052e FFF7FEFF 		bl	assert_failed
 1312              	.LVL83:
 1313 0532 8FE7     		b	.L83
 1314              	.LVL84:
 1315              	.L136:
 691:Drivers/STM32F0xx_HAL_Driver/Src/stm32f0xx_hal_rcc.c ****           }
 692:Drivers/STM32F0xx_HAL_Driver/Src/stm32f0xx_hal_rcc.c ****         }
 693:Drivers/STM32F0xx_HAL_Driver/Src/stm32f0xx_hal_rcc.c **** 
 694:Drivers/STM32F0xx_HAL_Driver/Src/stm32f0xx_hal_rcc.c ****         /* Configure the main PLL clock source, predivider and multiplication factor. */
 695:Drivers/STM32F0xx_HAL_Driver/Src/stm32f0xx_hal_rcc.c ****         __HAL_RCC_PLL_CONFIG(RCC_OscInitStruct->PLL.PLLSource,
 1316              		.loc 1 695 9 is_stmt 1 view .LVU348
ARM GAS  /tmp/cc0e6U0t.s 			page 39


 1317              		.loc 1 695 9 view .LVU349
 1318 0534 304B     		ldr	r3, .L142
 1319 0536 DA6A     		ldr	r2, [r3, #44]
 1320 0538 0F21     		movs	r1, #15
 1321 053a 8A43     		bics	r2, r1
 1322 053c E16A     		ldr	r1, [r4, #44]
 1323 053e 0A43     		orrs	r2, r1
 1324 0540 DA62     		str	r2, [r3, #44]
 1325              		.loc 1 695 9 view .LVU350
 1326 0542 5A68     		ldr	r2, [r3, #4]
 1327 0544 3649     		ldr	r1, .L142+40
 1328 0546 0A40     		ands	r2, r1
 1329 0548 A16A     		ldr	r1, [r4, #40]
 1330 054a 606A     		ldr	r0, [r4, #36]
 1331 054c 0143     		orrs	r1, r0
 1332 054e 0A43     		orrs	r2, r1
 1333 0550 5A60     		str	r2, [r3, #4]
 1334              		.loc 1 695 9 view .LVU351
 696:Drivers/STM32F0xx_HAL_Driver/Src/stm32f0xx_hal_rcc.c ****                              RCC_OscInitStruct->PLL.PREDIV,
 697:Drivers/STM32F0xx_HAL_Driver/Src/stm32f0xx_hal_rcc.c ****                              RCC_OscInitStruct->PLL.PLLMUL);
 698:Drivers/STM32F0xx_HAL_Driver/Src/stm32f0xx_hal_rcc.c ****         /* Enable the main PLL. */
 699:Drivers/STM32F0xx_HAL_Driver/Src/stm32f0xx_hal_rcc.c ****         __HAL_RCC_PLL_ENABLE();
 1335              		.loc 1 699 9 view .LVU352
 1336 0552 1968     		ldr	r1, [r3]
 1337 0554 8022     		movs	r2, #128
 1338 0556 5204     		lsls	r2, r2, #17
 1339 0558 0A43     		orrs	r2, r1
 1340 055a 1A60     		str	r2, [r3]
 700:Drivers/STM32F0xx_HAL_Driver/Src/stm32f0xx_hal_rcc.c ****         
 701:Drivers/STM32F0xx_HAL_Driver/Src/stm32f0xx_hal_rcc.c ****         /* Get Start Tick */
 702:Drivers/STM32F0xx_HAL_Driver/Src/stm32f0xx_hal_rcc.c ****         tickstart = HAL_GetTick();
 1341              		.loc 1 702 9 view .LVU353
 1342              		.loc 1 702 21 is_stmt 0 view .LVU354
 1343 055c FFF7FEFF 		bl	HAL_GetTick
 1344              	.LVL85:
 1345 0560 0400     		movs	r4, r0
 1346              	.LVL86:
 703:Drivers/STM32F0xx_HAL_Driver/Src/stm32f0xx_hal_rcc.c ****         
 704:Drivers/STM32F0xx_HAL_Driver/Src/stm32f0xx_hal_rcc.c ****         /* Wait till PLL is ready */
 705:Drivers/STM32F0xx_HAL_Driver/Src/stm32f0xx_hal_rcc.c ****         while(__HAL_RCC_GET_FLAG(RCC_FLAG_PLLRDY)  == RESET)
 1347              		.loc 1 705 9 is_stmt 1 view .LVU355
 1348              	.L86:
 1349              		.loc 1 705 14 view .LVU356
 1350              		.loc 1 705 15 is_stmt 0 view .LVU357
 1351 0562 254B     		ldr	r3, .L142
 1352 0564 1B68     		ldr	r3, [r3]
 1353              		.loc 1 705 14 view .LVU358
 1354 0566 9B01     		lsls	r3, r3, #6
 1355 0568 06D4     		bmi	.L138
 706:Drivers/STM32F0xx_HAL_Driver/Src/stm32f0xx_hal_rcc.c ****         {
 707:Drivers/STM32F0xx_HAL_Driver/Src/stm32f0xx_hal_rcc.c ****           if((HAL_GetTick() - tickstart ) > PLL_TIMEOUT_VALUE)
 1356              		.loc 1 707 11 is_stmt 1 view .LVU359
 1357              		.loc 1 707 15 is_stmt 0 view .LVU360
 1358 056a FFF7FEFF 		bl	HAL_GetTick
 1359              	.LVL87:
 1360              		.loc 1 707 29 view .LVU361
 1361 056e 001B     		subs	r0, r0, r4
ARM GAS  /tmp/cc0e6U0t.s 			page 40


 1362              		.loc 1 707 13 view .LVU362
 1363 0570 0228     		cmp	r0, #2
 1364 0572 F6D9     		bls	.L86
 708:Drivers/STM32F0xx_HAL_Driver/Src/stm32f0xx_hal_rcc.c ****           {
 709:Drivers/STM32F0xx_HAL_Driver/Src/stm32f0xx_hal_rcc.c ****             return HAL_TIMEOUT;
 1365              		.loc 1 709 20 view .LVU363
 1366 0574 0320     		movs	r0, #3
 1367 0576 2FE0     		b	.L20
 1368              	.L138:
 710:Drivers/STM32F0xx_HAL_Driver/Src/stm32f0xx_hal_rcc.c ****           }
 711:Drivers/STM32F0xx_HAL_Driver/Src/stm32f0xx_hal_rcc.c ****         }
 712:Drivers/STM32F0xx_HAL_Driver/Src/stm32f0xx_hal_rcc.c ****       }
 713:Drivers/STM32F0xx_HAL_Driver/Src/stm32f0xx_hal_rcc.c ****       else
 714:Drivers/STM32F0xx_HAL_Driver/Src/stm32f0xx_hal_rcc.c ****       {
 715:Drivers/STM32F0xx_HAL_Driver/Src/stm32f0xx_hal_rcc.c ****         /* Disable the main PLL. */
 716:Drivers/STM32F0xx_HAL_Driver/Src/stm32f0xx_hal_rcc.c ****         __HAL_RCC_PLL_DISABLE();
 717:Drivers/STM32F0xx_HAL_Driver/Src/stm32f0xx_hal_rcc.c ****  
 718:Drivers/STM32F0xx_HAL_Driver/Src/stm32f0xx_hal_rcc.c ****         /* Get Start Tick */
 719:Drivers/STM32F0xx_HAL_Driver/Src/stm32f0xx_hal_rcc.c ****         tickstart = HAL_GetTick();
 720:Drivers/STM32F0xx_HAL_Driver/Src/stm32f0xx_hal_rcc.c ****         
 721:Drivers/STM32F0xx_HAL_Driver/Src/stm32f0xx_hal_rcc.c ****         /* Wait till PLL is disabled */  
 722:Drivers/STM32F0xx_HAL_Driver/Src/stm32f0xx_hal_rcc.c ****         while(__HAL_RCC_GET_FLAG(RCC_FLAG_PLLRDY)  != RESET)
 723:Drivers/STM32F0xx_HAL_Driver/Src/stm32f0xx_hal_rcc.c ****         {
 724:Drivers/STM32F0xx_HAL_Driver/Src/stm32f0xx_hal_rcc.c ****           if((HAL_GetTick() - tickstart ) > PLL_TIMEOUT_VALUE)
 725:Drivers/STM32F0xx_HAL_Driver/Src/stm32f0xx_hal_rcc.c ****           {
 726:Drivers/STM32F0xx_HAL_Driver/Src/stm32f0xx_hal_rcc.c ****             return HAL_TIMEOUT;
 727:Drivers/STM32F0xx_HAL_Driver/Src/stm32f0xx_hal_rcc.c ****           }
 728:Drivers/STM32F0xx_HAL_Driver/Src/stm32f0xx_hal_rcc.c ****         }
 729:Drivers/STM32F0xx_HAL_Driver/Src/stm32f0xx_hal_rcc.c ****       }
 730:Drivers/STM32F0xx_HAL_Driver/Src/stm32f0xx_hal_rcc.c ****     }
 731:Drivers/STM32F0xx_HAL_Driver/Src/stm32f0xx_hal_rcc.c ****     else
 732:Drivers/STM32F0xx_HAL_Driver/Src/stm32f0xx_hal_rcc.c ****     {
 733:Drivers/STM32F0xx_HAL_Driver/Src/stm32f0xx_hal_rcc.c ****       /* Check if there is a request to disable the PLL used as System clock source */
 734:Drivers/STM32F0xx_HAL_Driver/Src/stm32f0xx_hal_rcc.c ****       if((RCC_OscInitStruct->PLL.PLLState) == RCC_PLL_OFF)
 735:Drivers/STM32F0xx_HAL_Driver/Src/stm32f0xx_hal_rcc.c ****       {
 736:Drivers/STM32F0xx_HAL_Driver/Src/stm32f0xx_hal_rcc.c ****         return HAL_ERROR;
 737:Drivers/STM32F0xx_HAL_Driver/Src/stm32f0xx_hal_rcc.c ****       }
 738:Drivers/STM32F0xx_HAL_Driver/Src/stm32f0xx_hal_rcc.c ****       else
 739:Drivers/STM32F0xx_HAL_Driver/Src/stm32f0xx_hal_rcc.c ****       {
 740:Drivers/STM32F0xx_HAL_Driver/Src/stm32f0xx_hal_rcc.c ****         /* Do not return HAL_ERROR if request repeats the current configuration */
 741:Drivers/STM32F0xx_HAL_Driver/Src/stm32f0xx_hal_rcc.c ****         pll_config  = RCC->CFGR;
 742:Drivers/STM32F0xx_HAL_Driver/Src/stm32f0xx_hal_rcc.c ****         pll_config2 = RCC->CFGR2;
 743:Drivers/STM32F0xx_HAL_Driver/Src/stm32f0xx_hal_rcc.c ****         if((READ_BIT(pll_config,  RCC_CFGR_PLLSRC)  != RCC_OscInitStruct->PLL.PLLSource) ||
 744:Drivers/STM32F0xx_HAL_Driver/Src/stm32f0xx_hal_rcc.c ****            (READ_BIT(pll_config2, RCC_CFGR2_PREDIV) != RCC_OscInitStruct->PLL.PREDIV)    ||
 745:Drivers/STM32F0xx_HAL_Driver/Src/stm32f0xx_hal_rcc.c ****            (READ_BIT(pll_config,  RCC_CFGR_PLLMUL)  != RCC_OscInitStruct->PLL.PLLMUL))
 746:Drivers/STM32F0xx_HAL_Driver/Src/stm32f0xx_hal_rcc.c ****         {
 747:Drivers/STM32F0xx_HAL_Driver/Src/stm32f0xx_hal_rcc.c ****           return HAL_ERROR;
 748:Drivers/STM32F0xx_HAL_Driver/Src/stm32f0xx_hal_rcc.c ****         }
 749:Drivers/STM32F0xx_HAL_Driver/Src/stm32f0xx_hal_rcc.c ****       }
 750:Drivers/STM32F0xx_HAL_Driver/Src/stm32f0xx_hal_rcc.c ****     }
 751:Drivers/STM32F0xx_HAL_Driver/Src/stm32f0xx_hal_rcc.c ****   }
 752:Drivers/STM32F0xx_HAL_Driver/Src/stm32f0xx_hal_rcc.c **** 
 753:Drivers/STM32F0xx_HAL_Driver/Src/stm32f0xx_hal_rcc.c ****   return HAL_OK;
 1369              		.loc 1 753 10 view .LVU364
 1370 0578 0020     		movs	r0, #0
 1371 057a 2DE0     		b	.L20
 1372              	.LVL88:
ARM GAS  /tmp/cc0e6U0t.s 			page 41


 1373              	.L80:
 716:Drivers/STM32F0xx_HAL_Driver/Src/stm32f0xx_hal_rcc.c ****  
 1374              		.loc 1 716 9 is_stmt 1 view .LVU365
 1375 057c 1E4A     		ldr	r2, .L142
 1376 057e 1368     		ldr	r3, [r2]
 1377 0580 1F49     		ldr	r1, .L142+8
 1378 0582 0B40     		ands	r3, r1
 1379 0584 1360     		str	r3, [r2]
 719:Drivers/STM32F0xx_HAL_Driver/Src/stm32f0xx_hal_rcc.c ****         
 1380              		.loc 1 719 9 view .LVU366
 719:Drivers/STM32F0xx_HAL_Driver/Src/stm32f0xx_hal_rcc.c ****         
 1381              		.loc 1 719 21 is_stmt 0 view .LVU367
 1382 0586 FFF7FEFF 		bl	HAL_GetTick
 1383              	.LVL89:
 1384 058a 0400     		movs	r4, r0
 1385              	.LVL90:
 722:Drivers/STM32F0xx_HAL_Driver/Src/stm32f0xx_hal_rcc.c ****         {
 1386              		.loc 1 722 9 is_stmt 1 view .LVU368
 1387              	.L88:
 722:Drivers/STM32F0xx_HAL_Driver/Src/stm32f0xx_hal_rcc.c ****         {
 1388              		.loc 1 722 14 view .LVU369
 722:Drivers/STM32F0xx_HAL_Driver/Src/stm32f0xx_hal_rcc.c ****         {
 1389              		.loc 1 722 15 is_stmt 0 view .LVU370
 1390 058c 1A4B     		ldr	r3, .L142
 1391 058e 1B68     		ldr	r3, [r3]
 722:Drivers/STM32F0xx_HAL_Driver/Src/stm32f0xx_hal_rcc.c ****         {
 1392              		.loc 1 722 14 view .LVU371
 1393 0590 9B01     		lsls	r3, r3, #6
 1394 0592 06D5     		bpl	.L139
 724:Drivers/STM32F0xx_HAL_Driver/Src/stm32f0xx_hal_rcc.c ****           {
 1395              		.loc 1 724 11 is_stmt 1 view .LVU372
 724:Drivers/STM32F0xx_HAL_Driver/Src/stm32f0xx_hal_rcc.c ****           {
 1396              		.loc 1 724 15 is_stmt 0 view .LVU373
 1397 0594 FFF7FEFF 		bl	HAL_GetTick
 1398              	.LVL91:
 724:Drivers/STM32F0xx_HAL_Driver/Src/stm32f0xx_hal_rcc.c ****           {
 1399              		.loc 1 724 29 view .LVU374
 1400 0598 001B     		subs	r0, r0, r4
 724:Drivers/STM32F0xx_HAL_Driver/Src/stm32f0xx_hal_rcc.c ****           {
 1401              		.loc 1 724 13 view .LVU375
 1402 059a 0228     		cmp	r0, #2
 1403 059c F6D9     		bls	.L88
 726:Drivers/STM32F0xx_HAL_Driver/Src/stm32f0xx_hal_rcc.c ****           }
 1404              		.loc 1 726 20 view .LVU376
 1405 059e 0320     		movs	r0, #3
 1406 05a0 1AE0     		b	.L20
 1407              	.L139:
 1408              		.loc 1 753 10 view .LVU377
 1409 05a2 0020     		movs	r0, #0
 1410 05a4 18E0     		b	.L20
 1411              	.LVL92:
 1412              	.L79:
 734:Drivers/STM32F0xx_HAL_Driver/Src/stm32f0xx_hal_rcc.c ****       {
 1413              		.loc 1 734 7 is_stmt 1 view .LVU378
 734:Drivers/STM32F0xx_HAL_Driver/Src/stm32f0xx_hal_rcc.c ****       {
 1414              		.loc 1 734 9 is_stmt 0 view .LVU379
 1415 05a6 012B     		cmp	r3, #1
ARM GAS  /tmp/cc0e6U0t.s 			page 42


 1416 05a8 1ED0     		beq	.L109
 741:Drivers/STM32F0xx_HAL_Driver/Src/stm32f0xx_hal_rcc.c ****         pll_config2 = RCC->CFGR2;
 1417              		.loc 1 741 9 is_stmt 1 view .LVU380
 741:Drivers/STM32F0xx_HAL_Driver/Src/stm32f0xx_hal_rcc.c ****         pll_config2 = RCC->CFGR2;
 1418              		.loc 1 741 21 is_stmt 0 view .LVU381
 1419 05aa 134B     		ldr	r3, .L142
 1420 05ac 5A68     		ldr	r2, [r3, #4]
 1421              	.LVL93:
 742:Drivers/STM32F0xx_HAL_Driver/Src/stm32f0xx_hal_rcc.c ****         if((READ_BIT(pll_config,  RCC_CFGR_PLLSRC)  != RCC_OscInitStruct->PLL.PLLSource) ||
 1422              		.loc 1 742 9 is_stmt 1 view .LVU382
 742:Drivers/STM32F0xx_HAL_Driver/Src/stm32f0xx_hal_rcc.c ****         if((READ_BIT(pll_config,  RCC_CFGR_PLLSRC)  != RCC_OscInitStruct->PLL.PLLSource) ||
 1423              		.loc 1 742 21 is_stmt 0 view .LVU383
 1424 05ae D96A     		ldr	r1, [r3, #44]
 1425              	.LVL94:
 743:Drivers/STM32F0xx_HAL_Driver/Src/stm32f0xx_hal_rcc.c ****            (READ_BIT(pll_config2, RCC_CFGR2_PREDIV) != RCC_OscInitStruct->PLL.PREDIV)    ||
 1426              		.loc 1 743 9 is_stmt 1 view .LVU384
 743:Drivers/STM32F0xx_HAL_Driver/Src/stm32f0xx_hal_rcc.c ****            (READ_BIT(pll_config2, RCC_CFGR2_PREDIV) != RCC_OscInitStruct->PLL.PREDIV)    ||
 1427              		.loc 1 743 13 is_stmt 0 view .LVU385
 1428 05b0 8023     		movs	r3, #128
 1429 05b2 5B02     		lsls	r3, r3, #9
 1430 05b4 1340     		ands	r3, r2
 743:Drivers/STM32F0xx_HAL_Driver/Src/stm32f0xx_hal_rcc.c ****            (READ_BIT(pll_config2, RCC_CFGR2_PREDIV) != RCC_OscInitStruct->PLL.PREDIV)    ||
 1431              		.loc 1 743 11 view .LVU386
 1432 05b6 606A     		ldr	r0, [r4, #36]
 1433 05b8 8342     		cmp	r3, r0
 1434 05ba 17D1     		bne	.L110
 744:Drivers/STM32F0xx_HAL_Driver/Src/stm32f0xx_hal_rcc.c ****            (READ_BIT(pll_config,  RCC_CFGR_PLLMUL)  != RCC_OscInitStruct->PLL.PLLMUL))
 1435              		.loc 1 744 13 discriminator 1 view .LVU387
 1436 05bc 0F23     		movs	r3, #15
 1437 05be 0B40     		ands	r3, r1
 743:Drivers/STM32F0xx_HAL_Driver/Src/stm32f0xx_hal_rcc.c ****            (READ_BIT(pll_config2, RCC_CFGR2_PREDIV) != RCC_OscInitStruct->PLL.PREDIV)    ||
 1438              		.loc 1 743 90 discriminator 1 view .LVU388
 1439 05c0 E16A     		ldr	r1, [r4, #44]
 1440              	.LVL95:
 743:Drivers/STM32F0xx_HAL_Driver/Src/stm32f0xx_hal_rcc.c ****            (READ_BIT(pll_config2, RCC_CFGR2_PREDIV) != RCC_OscInitStruct->PLL.PREDIV)    ||
 1441              		.loc 1 743 90 discriminator 1 view .LVU389
 1442 05c2 8B42     		cmp	r3, r1
 1443 05c4 14D1     		bne	.L111
 745:Drivers/STM32F0xx_HAL_Driver/Src/stm32f0xx_hal_rcc.c ****         {
 1444              		.loc 1 745 13 view .LVU390
 1445 05c6 F023     		movs	r3, #240
 1446 05c8 9B03     		lsls	r3, r3, #14
 1447 05ca 1A40     		ands	r2, r3
 1448              	.LVL96:
 745:Drivers/STM32F0xx_HAL_Driver/Src/stm32f0xx_hal_rcc.c ****         {
 1449              		.loc 1 745 78 view .LVU391
 1450 05cc A36A     		ldr	r3, [r4, #40]
 744:Drivers/STM32F0xx_HAL_Driver/Src/stm32f0xx_hal_rcc.c ****            (READ_BIT(pll_config,  RCC_CFGR_PLLMUL)  != RCC_OscInitStruct->PLL.PLLMUL))
 1451              		.loc 1 744 90 view .LVU392
 1452 05ce 9A42     		cmp	r2, r3
 1453 05d0 10D1     		bne	.L112
 1454              		.loc 1 753 10 view .LVU393
 1455 05d2 0020     		movs	r0, #0
 1456 05d4 00E0     		b	.L20
 1457              	.LVL97:
 1458              	.L90:
 309:Drivers/STM32F0xx_HAL_Driver/Src/stm32f0xx_hal_rcc.c ****   }
ARM GAS  /tmp/cc0e6U0t.s 			page 43


 1459              		.loc 1 309 12 view .LVU394
 1460 05d6 0120     		movs	r0, #1
 1461              	.LVL98:
 1462              	.L20:
 754:Drivers/STM32F0xx_HAL_Driver/Src/stm32f0xx_hal_rcc.c **** }
 1463              		.loc 1 754 1 view .LVU395
 1464 05d8 02B0     		add	sp, sp, #8
 1465              		@ sp needed
 1466 05da 70BD     		pop	{r4, r5, r6, pc}
 1467              	.LVL99:
 1468              	.L117:
 327:Drivers/STM32F0xx_HAL_Driver/Src/stm32f0xx_hal_rcc.c ****       }
 1469              		.loc 1 327 16 view .LVU396
 1470 05dc 0120     		movs	r0, #1
 1471 05de FBE7     		b	.L20
 1472              	.L94:
 381:Drivers/STM32F0xx_HAL_Driver/Src/stm32f0xx_hal_rcc.c ****       }
 1473              		.loc 1 381 16 view .LVU397
 1474 05e0 0120     		movs	r0, #1
 1475 05e2 F9E7     		b	.L20
 1476              	.L105:
 753:Drivers/STM32F0xx_HAL_Driver/Src/stm32f0xx_hal_rcc.c **** }
 1477              		.loc 1 753 10 view .LVU398
 1478 05e4 0020     		movs	r0, #0
 1479 05e6 F7E7     		b	.L20
 1480              	.L109:
 736:Drivers/STM32F0xx_HAL_Driver/Src/stm32f0xx_hal_rcc.c ****       }
 1481              		.loc 1 736 16 view .LVU399
 1482 05e8 0120     		movs	r0, #1
 1483 05ea F5E7     		b	.L20
 1484              	.LVL100:
 1485              	.L110:
 747:Drivers/STM32F0xx_HAL_Driver/Src/stm32f0xx_hal_rcc.c ****         }
 1486              		.loc 1 747 18 view .LVU400
 1487 05ec 0120     		movs	r0, #1
 1488 05ee F3E7     		b	.L20
 1489              	.LVL101:
 1490              	.L111:
 747:Drivers/STM32F0xx_HAL_Driver/Src/stm32f0xx_hal_rcc.c ****         }
 1491              		.loc 1 747 18 view .LVU401
 1492 05f0 0120     		movs	r0, #1
 1493 05f2 F1E7     		b	.L20
 1494              	.LVL102:
 1495              	.L112:
 747:Drivers/STM32F0xx_HAL_Driver/Src/stm32f0xx_hal_rcc.c ****         }
 1496              		.loc 1 747 18 view .LVU402
 1497 05f4 0120     		movs	r0, #1
 1498 05f6 EFE7     		b	.L20
 1499              	.L143:
 1500              		.align	2
 1501              	.L142:
 1502 05f8 00100240 		.word	1073876992
 1503 05fc 88130000 		.word	5000
 1504 0600 FFFFFFFE 		.word	-16777217
 1505 0604 FFFFFFEF 		.word	-268435457
 1506 0608 26020000 		.word	550
 1507 060c 00000000 		.word	.LC2
ARM GAS  /tmp/cc0e6U0t.s 			page 44


 1508 0610 27020000 		.word	551
 1509 0614 9A020000 		.word	666
 1510 0618 A3020000 		.word	675
 1511 061c A5020000 		.word	677
 1512 0620 FFFFC2FF 		.word	-3997697
 1513              		.cfi_endproc
 1514              	.LFE41:
 1516              		.section	.text.HAL_RCC_MCOConfig,"ax",%progbits
 1517              		.align	1
 1518              		.global	HAL_RCC_MCOConfig
 1519              		.syntax unified
 1520              		.code	16
 1521              		.thumb_func
 1523              	HAL_RCC_MCOConfig:
 1524              	.LVL103:
 1525              	.LFB43:
 755:Drivers/STM32F0xx_HAL_Driver/Src/stm32f0xx_hal_rcc.c **** 
 756:Drivers/STM32F0xx_HAL_Driver/Src/stm32f0xx_hal_rcc.c **** /**
 757:Drivers/STM32F0xx_HAL_Driver/Src/stm32f0xx_hal_rcc.c ****   * @brief  Initializes the CPU, AHB and APB buses clocks according to the specified 
 758:Drivers/STM32F0xx_HAL_Driver/Src/stm32f0xx_hal_rcc.c ****   *         parameters in the RCC_ClkInitStruct.
 759:Drivers/STM32F0xx_HAL_Driver/Src/stm32f0xx_hal_rcc.c ****   * @param  RCC_ClkInitStruct pointer to an RCC_OscInitTypeDef structure that
 760:Drivers/STM32F0xx_HAL_Driver/Src/stm32f0xx_hal_rcc.c ****   *         contains the configuration information for the RCC peripheral.
 761:Drivers/STM32F0xx_HAL_Driver/Src/stm32f0xx_hal_rcc.c ****   * @param  FLatency FLASH Latency                   
 762:Drivers/STM32F0xx_HAL_Driver/Src/stm32f0xx_hal_rcc.c ****   *          The value of this parameter depend on device used within the same series
 763:Drivers/STM32F0xx_HAL_Driver/Src/stm32f0xx_hal_rcc.c ****   * @note   The SystemCoreClock CMSIS variable is used to store System Clock Frequency 
 764:Drivers/STM32F0xx_HAL_Driver/Src/stm32f0xx_hal_rcc.c ****   *         and updated by @ref HAL_RCC_GetHCLKFreq() function called within this function
 765:Drivers/STM32F0xx_HAL_Driver/Src/stm32f0xx_hal_rcc.c ****   *
 766:Drivers/STM32F0xx_HAL_Driver/Src/stm32f0xx_hal_rcc.c ****   * @note   The HSI is used (enabled by hardware) as system clock source after
 767:Drivers/STM32F0xx_HAL_Driver/Src/stm32f0xx_hal_rcc.c ****   *         start-up from Reset, wake-up from STOP and STANDBY mode, or in case
 768:Drivers/STM32F0xx_HAL_Driver/Src/stm32f0xx_hal_rcc.c ****   *         of failure of the HSE used directly or indirectly as system clock
 769:Drivers/STM32F0xx_HAL_Driver/Src/stm32f0xx_hal_rcc.c ****   *         (if the Clock Security System CSS is enabled).
 770:Drivers/STM32F0xx_HAL_Driver/Src/stm32f0xx_hal_rcc.c ****   *           
 771:Drivers/STM32F0xx_HAL_Driver/Src/stm32f0xx_hal_rcc.c ****   * @note   A switch from one clock source to another occurs only if the target
 772:Drivers/STM32F0xx_HAL_Driver/Src/stm32f0xx_hal_rcc.c ****   *         clock source is ready (clock stable after start-up delay or PLL locked). 
 773:Drivers/STM32F0xx_HAL_Driver/Src/stm32f0xx_hal_rcc.c ****   *         If a clock source which is not yet ready is selected, the switch will
 774:Drivers/STM32F0xx_HAL_Driver/Src/stm32f0xx_hal_rcc.c ****   *         occur when the clock source will be ready. 
 775:Drivers/STM32F0xx_HAL_Driver/Src/stm32f0xx_hal_rcc.c ****   *         You can use @ref HAL_RCC_GetClockConfig() function to know which clock is
 776:Drivers/STM32F0xx_HAL_Driver/Src/stm32f0xx_hal_rcc.c ****   *         currently used as system clock source.
 777:Drivers/STM32F0xx_HAL_Driver/Src/stm32f0xx_hal_rcc.c ****   * @retval HAL status
 778:Drivers/STM32F0xx_HAL_Driver/Src/stm32f0xx_hal_rcc.c ****   */
 779:Drivers/STM32F0xx_HAL_Driver/Src/stm32f0xx_hal_rcc.c **** HAL_StatusTypeDef HAL_RCC_ClockConfig(RCC_ClkInitTypeDef  *RCC_ClkInitStruct, uint32_t FLatency)
 780:Drivers/STM32F0xx_HAL_Driver/Src/stm32f0xx_hal_rcc.c **** {
 781:Drivers/STM32F0xx_HAL_Driver/Src/stm32f0xx_hal_rcc.c ****   uint32_t tickstart;
 782:Drivers/STM32F0xx_HAL_Driver/Src/stm32f0xx_hal_rcc.c **** 
 783:Drivers/STM32F0xx_HAL_Driver/Src/stm32f0xx_hal_rcc.c ****   /* Check Null pointer */
 784:Drivers/STM32F0xx_HAL_Driver/Src/stm32f0xx_hal_rcc.c ****   if(RCC_ClkInitStruct == NULL)
 785:Drivers/STM32F0xx_HAL_Driver/Src/stm32f0xx_hal_rcc.c ****   {
 786:Drivers/STM32F0xx_HAL_Driver/Src/stm32f0xx_hal_rcc.c ****     return HAL_ERROR;
 787:Drivers/STM32F0xx_HAL_Driver/Src/stm32f0xx_hal_rcc.c ****   }
 788:Drivers/STM32F0xx_HAL_Driver/Src/stm32f0xx_hal_rcc.c **** 
 789:Drivers/STM32F0xx_HAL_Driver/Src/stm32f0xx_hal_rcc.c ****   /* Check the parameters */
 790:Drivers/STM32F0xx_HAL_Driver/Src/stm32f0xx_hal_rcc.c ****   assert_param(IS_RCC_CLOCKTYPE(RCC_ClkInitStruct->ClockType));
 791:Drivers/STM32F0xx_HAL_Driver/Src/stm32f0xx_hal_rcc.c ****   assert_param(IS_FLASH_LATENCY(FLatency));
 792:Drivers/STM32F0xx_HAL_Driver/Src/stm32f0xx_hal_rcc.c **** 
 793:Drivers/STM32F0xx_HAL_Driver/Src/stm32f0xx_hal_rcc.c ****   /* To correctly read data from FLASH memory, the number of wait states (LATENCY) 
 794:Drivers/STM32F0xx_HAL_Driver/Src/stm32f0xx_hal_rcc.c ****   must be correctly programmed according to the frequency of the CPU clock 
 795:Drivers/STM32F0xx_HAL_Driver/Src/stm32f0xx_hal_rcc.c ****     (HCLK) of the device. */
ARM GAS  /tmp/cc0e6U0t.s 			page 45


 796:Drivers/STM32F0xx_HAL_Driver/Src/stm32f0xx_hal_rcc.c **** 
 797:Drivers/STM32F0xx_HAL_Driver/Src/stm32f0xx_hal_rcc.c ****   /* Increasing the number of wait states because of higher CPU frequency */
 798:Drivers/STM32F0xx_HAL_Driver/Src/stm32f0xx_hal_rcc.c ****   if(FLatency > __HAL_FLASH_GET_LATENCY())
 799:Drivers/STM32F0xx_HAL_Driver/Src/stm32f0xx_hal_rcc.c ****   {    
 800:Drivers/STM32F0xx_HAL_Driver/Src/stm32f0xx_hal_rcc.c ****     /* Program the new number of wait states to the LATENCY bits in the FLASH_ACR register */
 801:Drivers/STM32F0xx_HAL_Driver/Src/stm32f0xx_hal_rcc.c ****     __HAL_FLASH_SET_LATENCY(FLatency);
 802:Drivers/STM32F0xx_HAL_Driver/Src/stm32f0xx_hal_rcc.c ****     
 803:Drivers/STM32F0xx_HAL_Driver/Src/stm32f0xx_hal_rcc.c ****     /* Check that the new number of wait states is taken into account to access the Flash
 804:Drivers/STM32F0xx_HAL_Driver/Src/stm32f0xx_hal_rcc.c ****     memory by reading the FLASH_ACR register */
 805:Drivers/STM32F0xx_HAL_Driver/Src/stm32f0xx_hal_rcc.c ****     if(__HAL_FLASH_GET_LATENCY() != FLatency)
 806:Drivers/STM32F0xx_HAL_Driver/Src/stm32f0xx_hal_rcc.c ****     {
 807:Drivers/STM32F0xx_HAL_Driver/Src/stm32f0xx_hal_rcc.c ****       return HAL_ERROR;
 808:Drivers/STM32F0xx_HAL_Driver/Src/stm32f0xx_hal_rcc.c ****     }
 809:Drivers/STM32F0xx_HAL_Driver/Src/stm32f0xx_hal_rcc.c ****   }
 810:Drivers/STM32F0xx_HAL_Driver/Src/stm32f0xx_hal_rcc.c **** 
 811:Drivers/STM32F0xx_HAL_Driver/Src/stm32f0xx_hal_rcc.c ****   /*-------------------------- HCLK Configuration --------------------------*/
 812:Drivers/STM32F0xx_HAL_Driver/Src/stm32f0xx_hal_rcc.c ****   if(((RCC_ClkInitStruct->ClockType) & RCC_CLOCKTYPE_HCLK) == RCC_CLOCKTYPE_HCLK)
 813:Drivers/STM32F0xx_HAL_Driver/Src/stm32f0xx_hal_rcc.c ****   {
 814:Drivers/STM32F0xx_HAL_Driver/Src/stm32f0xx_hal_rcc.c ****     /* Set the highest APB divider in order to ensure that we do not go through
 815:Drivers/STM32F0xx_HAL_Driver/Src/stm32f0xx_hal_rcc.c ****        a non-spec phase whatever we decrease or increase HCLK. */
 816:Drivers/STM32F0xx_HAL_Driver/Src/stm32f0xx_hal_rcc.c ****     if(((RCC_ClkInitStruct->ClockType) & RCC_CLOCKTYPE_PCLK1) == RCC_CLOCKTYPE_PCLK1)
 817:Drivers/STM32F0xx_HAL_Driver/Src/stm32f0xx_hal_rcc.c ****     {
 818:Drivers/STM32F0xx_HAL_Driver/Src/stm32f0xx_hal_rcc.c ****       MODIFY_REG(RCC->CFGR, RCC_CFGR_PPRE, RCC_HCLK_DIV16);
 819:Drivers/STM32F0xx_HAL_Driver/Src/stm32f0xx_hal_rcc.c ****     }
 820:Drivers/STM32F0xx_HAL_Driver/Src/stm32f0xx_hal_rcc.c **** 
 821:Drivers/STM32F0xx_HAL_Driver/Src/stm32f0xx_hal_rcc.c ****     /* Set the new HCLK clock divider */
 822:Drivers/STM32F0xx_HAL_Driver/Src/stm32f0xx_hal_rcc.c ****     assert_param(IS_RCC_HCLK(RCC_ClkInitStruct->AHBCLKDivider));
 823:Drivers/STM32F0xx_HAL_Driver/Src/stm32f0xx_hal_rcc.c ****     MODIFY_REG(RCC->CFGR, RCC_CFGR_HPRE, RCC_ClkInitStruct->AHBCLKDivider);
 824:Drivers/STM32F0xx_HAL_Driver/Src/stm32f0xx_hal_rcc.c ****   }
 825:Drivers/STM32F0xx_HAL_Driver/Src/stm32f0xx_hal_rcc.c **** 
 826:Drivers/STM32F0xx_HAL_Driver/Src/stm32f0xx_hal_rcc.c ****   /*------------------------- SYSCLK Configuration ---------------------------*/ 
 827:Drivers/STM32F0xx_HAL_Driver/Src/stm32f0xx_hal_rcc.c ****   if(((RCC_ClkInitStruct->ClockType) & RCC_CLOCKTYPE_SYSCLK) == RCC_CLOCKTYPE_SYSCLK)
 828:Drivers/STM32F0xx_HAL_Driver/Src/stm32f0xx_hal_rcc.c ****   {
 829:Drivers/STM32F0xx_HAL_Driver/Src/stm32f0xx_hal_rcc.c ****     assert_param(IS_RCC_SYSCLKSOURCE(RCC_ClkInitStruct->SYSCLKSource));
 830:Drivers/STM32F0xx_HAL_Driver/Src/stm32f0xx_hal_rcc.c ****     
 831:Drivers/STM32F0xx_HAL_Driver/Src/stm32f0xx_hal_rcc.c ****     /* HSE is selected as System Clock Source */
 832:Drivers/STM32F0xx_HAL_Driver/Src/stm32f0xx_hal_rcc.c ****     if(RCC_ClkInitStruct->SYSCLKSource == RCC_SYSCLKSOURCE_HSE)
 833:Drivers/STM32F0xx_HAL_Driver/Src/stm32f0xx_hal_rcc.c ****     {
 834:Drivers/STM32F0xx_HAL_Driver/Src/stm32f0xx_hal_rcc.c ****       /* Check the HSE ready flag */  
 835:Drivers/STM32F0xx_HAL_Driver/Src/stm32f0xx_hal_rcc.c ****       if(__HAL_RCC_GET_FLAG(RCC_FLAG_HSERDY) == RESET)
 836:Drivers/STM32F0xx_HAL_Driver/Src/stm32f0xx_hal_rcc.c ****       {
 837:Drivers/STM32F0xx_HAL_Driver/Src/stm32f0xx_hal_rcc.c ****         return HAL_ERROR;
 838:Drivers/STM32F0xx_HAL_Driver/Src/stm32f0xx_hal_rcc.c ****       }
 839:Drivers/STM32F0xx_HAL_Driver/Src/stm32f0xx_hal_rcc.c ****     }
 840:Drivers/STM32F0xx_HAL_Driver/Src/stm32f0xx_hal_rcc.c ****     /* PLL is selected as System Clock Source */
 841:Drivers/STM32F0xx_HAL_Driver/Src/stm32f0xx_hal_rcc.c ****     else if(RCC_ClkInitStruct->SYSCLKSource == RCC_SYSCLKSOURCE_PLLCLK)
 842:Drivers/STM32F0xx_HAL_Driver/Src/stm32f0xx_hal_rcc.c ****     {
 843:Drivers/STM32F0xx_HAL_Driver/Src/stm32f0xx_hal_rcc.c ****       /* Check the PLL ready flag */  
 844:Drivers/STM32F0xx_HAL_Driver/Src/stm32f0xx_hal_rcc.c ****       if(__HAL_RCC_GET_FLAG(RCC_FLAG_PLLRDY) == RESET)
 845:Drivers/STM32F0xx_HAL_Driver/Src/stm32f0xx_hal_rcc.c ****       {
 846:Drivers/STM32F0xx_HAL_Driver/Src/stm32f0xx_hal_rcc.c ****         return HAL_ERROR;
 847:Drivers/STM32F0xx_HAL_Driver/Src/stm32f0xx_hal_rcc.c ****       }
 848:Drivers/STM32F0xx_HAL_Driver/Src/stm32f0xx_hal_rcc.c ****     }
 849:Drivers/STM32F0xx_HAL_Driver/Src/stm32f0xx_hal_rcc.c **** #if defined(RCC_CFGR_SWS_HSI48)
 850:Drivers/STM32F0xx_HAL_Driver/Src/stm32f0xx_hal_rcc.c ****     /* HSI48 is selected as System Clock Source */
 851:Drivers/STM32F0xx_HAL_Driver/Src/stm32f0xx_hal_rcc.c ****     else if(RCC_ClkInitStruct->SYSCLKSource == RCC_SYSCLKSOURCE_HSI48)
 852:Drivers/STM32F0xx_HAL_Driver/Src/stm32f0xx_hal_rcc.c ****     {
ARM GAS  /tmp/cc0e6U0t.s 			page 46


 853:Drivers/STM32F0xx_HAL_Driver/Src/stm32f0xx_hal_rcc.c ****       /* Check the HSI48 ready flag */
 854:Drivers/STM32F0xx_HAL_Driver/Src/stm32f0xx_hal_rcc.c ****       if(__HAL_RCC_GET_FLAG(RCC_FLAG_HSI48RDY) == RESET)
 855:Drivers/STM32F0xx_HAL_Driver/Src/stm32f0xx_hal_rcc.c ****       {
 856:Drivers/STM32F0xx_HAL_Driver/Src/stm32f0xx_hal_rcc.c ****         return HAL_ERROR;
 857:Drivers/STM32F0xx_HAL_Driver/Src/stm32f0xx_hal_rcc.c ****       }
 858:Drivers/STM32F0xx_HAL_Driver/Src/stm32f0xx_hal_rcc.c ****     }
 859:Drivers/STM32F0xx_HAL_Driver/Src/stm32f0xx_hal_rcc.c **** #endif /* RCC_CFGR_SWS_HSI48 */
 860:Drivers/STM32F0xx_HAL_Driver/Src/stm32f0xx_hal_rcc.c ****     /* HSI is selected as System Clock Source */
 861:Drivers/STM32F0xx_HAL_Driver/Src/stm32f0xx_hal_rcc.c ****     else
 862:Drivers/STM32F0xx_HAL_Driver/Src/stm32f0xx_hal_rcc.c ****     {
 863:Drivers/STM32F0xx_HAL_Driver/Src/stm32f0xx_hal_rcc.c ****       /* Check the HSI ready flag */  
 864:Drivers/STM32F0xx_HAL_Driver/Src/stm32f0xx_hal_rcc.c ****       if(__HAL_RCC_GET_FLAG(RCC_FLAG_HSIRDY) == RESET)
 865:Drivers/STM32F0xx_HAL_Driver/Src/stm32f0xx_hal_rcc.c ****       {
 866:Drivers/STM32F0xx_HAL_Driver/Src/stm32f0xx_hal_rcc.c ****         return HAL_ERROR;
 867:Drivers/STM32F0xx_HAL_Driver/Src/stm32f0xx_hal_rcc.c ****       }
 868:Drivers/STM32F0xx_HAL_Driver/Src/stm32f0xx_hal_rcc.c ****     }
 869:Drivers/STM32F0xx_HAL_Driver/Src/stm32f0xx_hal_rcc.c ****     __HAL_RCC_SYSCLK_CONFIG(RCC_ClkInitStruct->SYSCLKSource);
 870:Drivers/STM32F0xx_HAL_Driver/Src/stm32f0xx_hal_rcc.c **** 
 871:Drivers/STM32F0xx_HAL_Driver/Src/stm32f0xx_hal_rcc.c ****     /* Get Start Tick */
 872:Drivers/STM32F0xx_HAL_Driver/Src/stm32f0xx_hal_rcc.c ****     tickstart = HAL_GetTick();
 873:Drivers/STM32F0xx_HAL_Driver/Src/stm32f0xx_hal_rcc.c ****     
 874:Drivers/STM32F0xx_HAL_Driver/Src/stm32f0xx_hal_rcc.c ****     while (__HAL_RCC_GET_SYSCLK_SOURCE() != (RCC_ClkInitStruct->SYSCLKSource << RCC_CFGR_SWS_Pos))
 875:Drivers/STM32F0xx_HAL_Driver/Src/stm32f0xx_hal_rcc.c ****     {
 876:Drivers/STM32F0xx_HAL_Driver/Src/stm32f0xx_hal_rcc.c ****       if((HAL_GetTick() - tickstart ) > CLOCKSWITCH_TIMEOUT_VALUE)
 877:Drivers/STM32F0xx_HAL_Driver/Src/stm32f0xx_hal_rcc.c ****       {
 878:Drivers/STM32F0xx_HAL_Driver/Src/stm32f0xx_hal_rcc.c ****         return HAL_TIMEOUT;
 879:Drivers/STM32F0xx_HAL_Driver/Src/stm32f0xx_hal_rcc.c ****       }
 880:Drivers/STM32F0xx_HAL_Driver/Src/stm32f0xx_hal_rcc.c ****     }
 881:Drivers/STM32F0xx_HAL_Driver/Src/stm32f0xx_hal_rcc.c ****   }
 882:Drivers/STM32F0xx_HAL_Driver/Src/stm32f0xx_hal_rcc.c **** 
 883:Drivers/STM32F0xx_HAL_Driver/Src/stm32f0xx_hal_rcc.c ****   /* Decreasing the number of wait states because of lower CPU frequency */
 884:Drivers/STM32F0xx_HAL_Driver/Src/stm32f0xx_hal_rcc.c ****   if(FLatency < __HAL_FLASH_GET_LATENCY())
 885:Drivers/STM32F0xx_HAL_Driver/Src/stm32f0xx_hal_rcc.c ****   {    
 886:Drivers/STM32F0xx_HAL_Driver/Src/stm32f0xx_hal_rcc.c ****     /* Program the new number of wait states to the LATENCY bits in the FLASH_ACR register */
 887:Drivers/STM32F0xx_HAL_Driver/Src/stm32f0xx_hal_rcc.c ****     __HAL_FLASH_SET_LATENCY(FLatency);
 888:Drivers/STM32F0xx_HAL_Driver/Src/stm32f0xx_hal_rcc.c ****     
 889:Drivers/STM32F0xx_HAL_Driver/Src/stm32f0xx_hal_rcc.c ****     /* Check that the new number of wait states is taken into account to access the Flash
 890:Drivers/STM32F0xx_HAL_Driver/Src/stm32f0xx_hal_rcc.c ****     memory by reading the FLASH_ACR register */
 891:Drivers/STM32F0xx_HAL_Driver/Src/stm32f0xx_hal_rcc.c ****     if(__HAL_FLASH_GET_LATENCY() != FLatency)
 892:Drivers/STM32F0xx_HAL_Driver/Src/stm32f0xx_hal_rcc.c ****     {
 893:Drivers/STM32F0xx_HAL_Driver/Src/stm32f0xx_hal_rcc.c ****       return HAL_ERROR;
 894:Drivers/STM32F0xx_HAL_Driver/Src/stm32f0xx_hal_rcc.c ****     }
 895:Drivers/STM32F0xx_HAL_Driver/Src/stm32f0xx_hal_rcc.c ****   }    
 896:Drivers/STM32F0xx_HAL_Driver/Src/stm32f0xx_hal_rcc.c **** 
 897:Drivers/STM32F0xx_HAL_Driver/Src/stm32f0xx_hal_rcc.c ****   /*-------------------------- PCLK1 Configuration ---------------------------*/ 
 898:Drivers/STM32F0xx_HAL_Driver/Src/stm32f0xx_hal_rcc.c ****   if(((RCC_ClkInitStruct->ClockType) & RCC_CLOCKTYPE_PCLK1) == RCC_CLOCKTYPE_PCLK1)
 899:Drivers/STM32F0xx_HAL_Driver/Src/stm32f0xx_hal_rcc.c ****   {
 900:Drivers/STM32F0xx_HAL_Driver/Src/stm32f0xx_hal_rcc.c ****     assert_param(IS_RCC_PCLK(RCC_ClkInitStruct->APB1CLKDivider));
 901:Drivers/STM32F0xx_HAL_Driver/Src/stm32f0xx_hal_rcc.c ****     MODIFY_REG(RCC->CFGR, RCC_CFGR_PPRE, RCC_ClkInitStruct->APB1CLKDivider);
 902:Drivers/STM32F0xx_HAL_Driver/Src/stm32f0xx_hal_rcc.c ****   }
 903:Drivers/STM32F0xx_HAL_Driver/Src/stm32f0xx_hal_rcc.c ****   
 904:Drivers/STM32F0xx_HAL_Driver/Src/stm32f0xx_hal_rcc.c ****   /* Update the SystemCoreClock global variable */
 905:Drivers/STM32F0xx_HAL_Driver/Src/stm32f0xx_hal_rcc.c ****   SystemCoreClock = HAL_RCC_GetSysClockFreq() >> AHBPrescTable[(RCC->CFGR & RCC_CFGR_HPRE)>> RCC_CF
 906:Drivers/STM32F0xx_HAL_Driver/Src/stm32f0xx_hal_rcc.c **** 
 907:Drivers/STM32F0xx_HAL_Driver/Src/stm32f0xx_hal_rcc.c ****   /* Configure the source of time base considering new system clocks settings*/
 908:Drivers/STM32F0xx_HAL_Driver/Src/stm32f0xx_hal_rcc.c ****   HAL_InitTick (TICK_INT_PRIORITY);
 909:Drivers/STM32F0xx_HAL_Driver/Src/stm32f0xx_hal_rcc.c ****   
ARM GAS  /tmp/cc0e6U0t.s 			page 47


 910:Drivers/STM32F0xx_HAL_Driver/Src/stm32f0xx_hal_rcc.c ****   return HAL_OK;
 911:Drivers/STM32F0xx_HAL_Driver/Src/stm32f0xx_hal_rcc.c **** }
 912:Drivers/STM32F0xx_HAL_Driver/Src/stm32f0xx_hal_rcc.c **** 
 913:Drivers/STM32F0xx_HAL_Driver/Src/stm32f0xx_hal_rcc.c **** /**
 914:Drivers/STM32F0xx_HAL_Driver/Src/stm32f0xx_hal_rcc.c ****   * @}
 915:Drivers/STM32F0xx_HAL_Driver/Src/stm32f0xx_hal_rcc.c ****   */
 916:Drivers/STM32F0xx_HAL_Driver/Src/stm32f0xx_hal_rcc.c **** 
 917:Drivers/STM32F0xx_HAL_Driver/Src/stm32f0xx_hal_rcc.c **** /** @defgroup RCC_Exported_Functions_Group2 Peripheral Control functions
 918:Drivers/STM32F0xx_HAL_Driver/Src/stm32f0xx_hal_rcc.c ****   *  @brief   RCC clocks control functions
 919:Drivers/STM32F0xx_HAL_Driver/Src/stm32f0xx_hal_rcc.c ****   *
 920:Drivers/STM32F0xx_HAL_Driver/Src/stm32f0xx_hal_rcc.c ****   @verbatim   
 921:Drivers/STM32F0xx_HAL_Driver/Src/stm32f0xx_hal_rcc.c ****   ===============================================================================
 922:Drivers/STM32F0xx_HAL_Driver/Src/stm32f0xx_hal_rcc.c ****                   ##### Peripheral Control functions #####
 923:Drivers/STM32F0xx_HAL_Driver/Src/stm32f0xx_hal_rcc.c ****   ===============================================================================  
 924:Drivers/STM32F0xx_HAL_Driver/Src/stm32f0xx_hal_rcc.c ****     [..]
 925:Drivers/STM32F0xx_HAL_Driver/Src/stm32f0xx_hal_rcc.c ****     This subsection provides a set of functions allowing to control the RCC Clocks 
 926:Drivers/STM32F0xx_HAL_Driver/Src/stm32f0xx_hal_rcc.c ****     frequencies.
 927:Drivers/STM32F0xx_HAL_Driver/Src/stm32f0xx_hal_rcc.c **** 
 928:Drivers/STM32F0xx_HAL_Driver/Src/stm32f0xx_hal_rcc.c ****   @endverbatim
 929:Drivers/STM32F0xx_HAL_Driver/Src/stm32f0xx_hal_rcc.c ****   * @{
 930:Drivers/STM32F0xx_HAL_Driver/Src/stm32f0xx_hal_rcc.c ****   */
 931:Drivers/STM32F0xx_HAL_Driver/Src/stm32f0xx_hal_rcc.c **** 
 932:Drivers/STM32F0xx_HAL_Driver/Src/stm32f0xx_hal_rcc.c **** #if defined(RCC_CFGR_MCOPRE)
 933:Drivers/STM32F0xx_HAL_Driver/Src/stm32f0xx_hal_rcc.c **** /**
 934:Drivers/STM32F0xx_HAL_Driver/Src/stm32f0xx_hal_rcc.c ****   * @brief  Selects the clock source to output on MCO pin.
 935:Drivers/STM32F0xx_HAL_Driver/Src/stm32f0xx_hal_rcc.c ****   * @note   MCO pin should be configured in alternate function mode.
 936:Drivers/STM32F0xx_HAL_Driver/Src/stm32f0xx_hal_rcc.c ****   * @param  RCC_MCOx specifies the output direction for the clock source.
 937:Drivers/STM32F0xx_HAL_Driver/Src/stm32f0xx_hal_rcc.c ****   *          This parameter can be one of the following values:
 938:Drivers/STM32F0xx_HAL_Driver/Src/stm32f0xx_hal_rcc.c ****   *            @arg @ref RCC_MCO1 Clock source to output on MCO1 pin(PA8).
 939:Drivers/STM32F0xx_HAL_Driver/Src/stm32f0xx_hal_rcc.c ****   * @param  RCC_MCOSource specifies the clock source to output.
 940:Drivers/STM32F0xx_HAL_Driver/Src/stm32f0xx_hal_rcc.c ****   *          This parameter can be one of the following values:
 941:Drivers/STM32F0xx_HAL_Driver/Src/stm32f0xx_hal_rcc.c ****   *            @arg @ref RCC_MCO1SOURCE_NOCLOCK     No clock selected
 942:Drivers/STM32F0xx_HAL_Driver/Src/stm32f0xx_hal_rcc.c ****   *            @arg @ref RCC_MCO1SOURCE_SYSCLK      System Clock selected as MCO clock
 943:Drivers/STM32F0xx_HAL_Driver/Src/stm32f0xx_hal_rcc.c ****   *            @arg @ref RCC_MCO1SOURCE_HSI         HSI selected as MCO clock
 944:Drivers/STM32F0xx_HAL_Driver/Src/stm32f0xx_hal_rcc.c ****   *            @arg @ref RCC_MCO1SOURCE_HSE         HSE selected as MCO clock
 945:Drivers/STM32F0xx_HAL_Driver/Src/stm32f0xx_hal_rcc.c ****   *            @arg @ref RCC_MCO1SOURCE_LSI         LSI selected as MCO clock
 946:Drivers/STM32F0xx_HAL_Driver/Src/stm32f0xx_hal_rcc.c ****   *            @arg @ref RCC_MCO1SOURCE_LSE         LSE selected as MCO clock
 947:Drivers/STM32F0xx_HAL_Driver/Src/stm32f0xx_hal_rcc.c ****   *            @arg @ref RCC_MCO1SOURCE_HSI14       HSI14 selected as MCO clock
 948:Drivers/STM32F0xx_HAL_Driver/Src/stm32f0xx_hal_rcc.c ****   @if STM32F042x6
 949:Drivers/STM32F0xx_HAL_Driver/Src/stm32f0xx_hal_rcc.c ****   *            @arg @ref RCC_MCO1SOURCE_HSI48       HSI48 selected as MCO clock
 950:Drivers/STM32F0xx_HAL_Driver/Src/stm32f0xx_hal_rcc.c ****   *            @arg @ref RCC_MCO1SOURCE_PLLCLK      PLLCLK selected as MCO clock
 951:Drivers/STM32F0xx_HAL_Driver/Src/stm32f0xx_hal_rcc.c ****   @elseif STM32F048xx
 952:Drivers/STM32F0xx_HAL_Driver/Src/stm32f0xx_hal_rcc.c ****   *            @arg @ref RCC_MCO1SOURCE_HSI48       HSI48 selected as MCO clock
 953:Drivers/STM32F0xx_HAL_Driver/Src/stm32f0xx_hal_rcc.c ****   *            @arg @ref RCC_MCO1SOURCE_PLLCLK      PLLCLK selected as MCO clock
 954:Drivers/STM32F0xx_HAL_Driver/Src/stm32f0xx_hal_rcc.c ****   @elseif STM32F071xB
 955:Drivers/STM32F0xx_HAL_Driver/Src/stm32f0xx_hal_rcc.c ****   *            @arg @ref RCC_MCO1SOURCE_HSI48       HSI48 selected as MCO clock
 956:Drivers/STM32F0xx_HAL_Driver/Src/stm32f0xx_hal_rcc.c ****   *            @arg @ref RCC_MCO1SOURCE_PLLCLK      PLLCLK selected as MCO clock
 957:Drivers/STM32F0xx_HAL_Driver/Src/stm32f0xx_hal_rcc.c ****   @elseif STM32F072xB
 958:Drivers/STM32F0xx_HAL_Driver/Src/stm32f0xx_hal_rcc.c ****   *            @arg @ref RCC_MCO1SOURCE_HSI48       HSI48 selected as MCO clock
 959:Drivers/STM32F0xx_HAL_Driver/Src/stm32f0xx_hal_rcc.c ****   *            @arg @ref RCC_MCO1SOURCE_PLLCLK      PLLCLK selected as MCO clock
 960:Drivers/STM32F0xx_HAL_Driver/Src/stm32f0xx_hal_rcc.c ****   @elseif STM32F078xx
 961:Drivers/STM32F0xx_HAL_Driver/Src/stm32f0xx_hal_rcc.c ****   *            @arg @ref RCC_MCO1SOURCE_HSI48       HSI48 selected as MCO clock
 962:Drivers/STM32F0xx_HAL_Driver/Src/stm32f0xx_hal_rcc.c ****   *            @arg @ref RCC_MCO1SOURCE_PLLCLK      PLLCLK selected as MCO clock
 963:Drivers/STM32F0xx_HAL_Driver/Src/stm32f0xx_hal_rcc.c ****   @elseif STM32F091xC
 964:Drivers/STM32F0xx_HAL_Driver/Src/stm32f0xx_hal_rcc.c ****   *            @arg @ref RCC_MCO1SOURCE_HSI48       HSI48 selected as MCO clock
 965:Drivers/STM32F0xx_HAL_Driver/Src/stm32f0xx_hal_rcc.c ****   *            @arg @ref RCC_MCO1SOURCE_PLLCLK      PLLCLK selected as MCO clock
 966:Drivers/STM32F0xx_HAL_Driver/Src/stm32f0xx_hal_rcc.c ****   @elseif STM32F098xx
ARM GAS  /tmp/cc0e6U0t.s 			page 48


 967:Drivers/STM32F0xx_HAL_Driver/Src/stm32f0xx_hal_rcc.c ****   *            @arg @ref RCC_MCO1SOURCE_HSI48       HSI48 selected as MCO clock
 968:Drivers/STM32F0xx_HAL_Driver/Src/stm32f0xx_hal_rcc.c ****   *            @arg @ref RCC_MCO1SOURCE_PLLCLK      PLLCLK selected as MCO clock
 969:Drivers/STM32F0xx_HAL_Driver/Src/stm32f0xx_hal_rcc.c ****   @elif STM32F030x6
 970:Drivers/STM32F0xx_HAL_Driver/Src/stm32f0xx_hal_rcc.c ****   *            @arg @ref RCC_MCO1SOURCE_PLLCLK      PLLCLK selected as MCO clock
 971:Drivers/STM32F0xx_HAL_Driver/Src/stm32f0xx_hal_rcc.c ****   @elif STM32F030xC
 972:Drivers/STM32F0xx_HAL_Driver/Src/stm32f0xx_hal_rcc.c ****   *            @arg @ref RCC_MCO1SOURCE_PLLCLK      PLLCLK selected as MCO clock
 973:Drivers/STM32F0xx_HAL_Driver/Src/stm32f0xx_hal_rcc.c ****   @elif STM32F031x6
 974:Drivers/STM32F0xx_HAL_Driver/Src/stm32f0xx_hal_rcc.c ****   *            @arg @ref RCC_MCO1SOURCE_PLLCLK      PLLCLK selected as MCO clock
 975:Drivers/STM32F0xx_HAL_Driver/Src/stm32f0xx_hal_rcc.c ****   @elif STM32F038xx
 976:Drivers/STM32F0xx_HAL_Driver/Src/stm32f0xx_hal_rcc.c ****   *            @arg @ref RCC_MCO1SOURCE_PLLCLK      PLLCLK selected as MCO clock
 977:Drivers/STM32F0xx_HAL_Driver/Src/stm32f0xx_hal_rcc.c ****   @elif STM32F070x6
 978:Drivers/STM32F0xx_HAL_Driver/Src/stm32f0xx_hal_rcc.c ****   *            @arg @ref RCC_MCO1SOURCE_PLLCLK      PLLCLK selected as MCO clock
 979:Drivers/STM32F0xx_HAL_Driver/Src/stm32f0xx_hal_rcc.c ****   @elif STM32F070xB
 980:Drivers/STM32F0xx_HAL_Driver/Src/stm32f0xx_hal_rcc.c ****   *            @arg @ref RCC_MCO1SOURCE_PLLCLK      PLLCLK selected as MCO clock
 981:Drivers/STM32F0xx_HAL_Driver/Src/stm32f0xx_hal_rcc.c ****   @endif
 982:Drivers/STM32F0xx_HAL_Driver/Src/stm32f0xx_hal_rcc.c ****   *            @arg @ref RCC_MCO1SOURCE_PLLCLK_DIV2 PLLCLK Divided by 2 selected as MCO clock
 983:Drivers/STM32F0xx_HAL_Driver/Src/stm32f0xx_hal_rcc.c ****   * @param  RCC_MCODiv specifies the MCO DIV.
 984:Drivers/STM32F0xx_HAL_Driver/Src/stm32f0xx_hal_rcc.c ****   *          This parameter can be one of the following values:
 985:Drivers/STM32F0xx_HAL_Driver/Src/stm32f0xx_hal_rcc.c ****   *            @arg @ref RCC_MCODIV_1   no division applied to MCO clock
 986:Drivers/STM32F0xx_HAL_Driver/Src/stm32f0xx_hal_rcc.c ****   *            @arg @ref RCC_MCODIV_2   division by 2 applied to MCO clock
 987:Drivers/STM32F0xx_HAL_Driver/Src/stm32f0xx_hal_rcc.c ****   *            @arg @ref RCC_MCODIV_4   division by 4 applied to MCO clock
 988:Drivers/STM32F0xx_HAL_Driver/Src/stm32f0xx_hal_rcc.c ****   *            @arg @ref RCC_MCODIV_8   division by 8 applied to MCO clock
 989:Drivers/STM32F0xx_HAL_Driver/Src/stm32f0xx_hal_rcc.c ****   *            @arg @ref RCC_MCODIV_16  division by 16 applied to MCO clock
 990:Drivers/STM32F0xx_HAL_Driver/Src/stm32f0xx_hal_rcc.c ****   *            @arg @ref RCC_MCODIV_32  division by 32 applied to MCO clock
 991:Drivers/STM32F0xx_HAL_Driver/Src/stm32f0xx_hal_rcc.c ****   *            @arg @ref RCC_MCODIV_64  division by 64 applied to MCO clock
 992:Drivers/STM32F0xx_HAL_Driver/Src/stm32f0xx_hal_rcc.c ****   *            @arg @ref RCC_MCODIV_128 division by 128 applied to MCO clock
 993:Drivers/STM32F0xx_HAL_Driver/Src/stm32f0xx_hal_rcc.c ****   * @retval None
 994:Drivers/STM32F0xx_HAL_Driver/Src/stm32f0xx_hal_rcc.c ****   */
 995:Drivers/STM32F0xx_HAL_Driver/Src/stm32f0xx_hal_rcc.c **** #else
 996:Drivers/STM32F0xx_HAL_Driver/Src/stm32f0xx_hal_rcc.c **** /**
 997:Drivers/STM32F0xx_HAL_Driver/Src/stm32f0xx_hal_rcc.c ****   * @brief  Selects the clock source to output on MCO pin.
 998:Drivers/STM32F0xx_HAL_Driver/Src/stm32f0xx_hal_rcc.c ****   * @note   MCO pin should be configured in alternate function mode.
 999:Drivers/STM32F0xx_HAL_Driver/Src/stm32f0xx_hal_rcc.c ****   * @param  RCC_MCOx specifies the output direction for the clock source.
1000:Drivers/STM32F0xx_HAL_Driver/Src/stm32f0xx_hal_rcc.c ****   *          This parameter can be one of the following values:
1001:Drivers/STM32F0xx_HAL_Driver/Src/stm32f0xx_hal_rcc.c ****   *            @arg @ref RCC_MCO1 Clock source to output on MCO1 pin(PA8).
1002:Drivers/STM32F0xx_HAL_Driver/Src/stm32f0xx_hal_rcc.c ****   * @param  RCC_MCOSource specifies the clock source to output.
1003:Drivers/STM32F0xx_HAL_Driver/Src/stm32f0xx_hal_rcc.c ****   *          This parameter can be one of the following values:
1004:Drivers/STM32F0xx_HAL_Driver/Src/stm32f0xx_hal_rcc.c ****   *            @arg @ref RCC_MCO1SOURCE_NOCLOCK     No clock selected as MCO clock
1005:Drivers/STM32F0xx_HAL_Driver/Src/stm32f0xx_hal_rcc.c ****   *            @arg @ref RCC_MCO1SOURCE_SYSCLK      System clock selected as MCO clock
1006:Drivers/STM32F0xx_HAL_Driver/Src/stm32f0xx_hal_rcc.c ****   *            @arg @ref RCC_MCO1SOURCE_HSI         HSI selected as MCO clock
1007:Drivers/STM32F0xx_HAL_Driver/Src/stm32f0xx_hal_rcc.c ****   *            @arg @ref RCC_MCO1SOURCE_HSE         HSE selected as MCO clock
1008:Drivers/STM32F0xx_HAL_Driver/Src/stm32f0xx_hal_rcc.c ****   *            @arg @ref RCC_MCO1SOURCE_LSI         LSI selected as MCO clock
1009:Drivers/STM32F0xx_HAL_Driver/Src/stm32f0xx_hal_rcc.c ****   *            @arg @ref RCC_MCO1SOURCE_LSE         LSE selected as MCO clock
1010:Drivers/STM32F0xx_HAL_Driver/Src/stm32f0xx_hal_rcc.c ****   *            @arg @ref RCC_MCO1SOURCE_HSI14       HSI14 selected as MCO clock
1011:Drivers/STM32F0xx_HAL_Driver/Src/stm32f0xx_hal_rcc.c ****   *            @arg @ref RCC_MCO1SOURCE_PLLCLK_DIV2 PLLCLK Divided by 2 selected as MCO clock
1012:Drivers/STM32F0xx_HAL_Driver/Src/stm32f0xx_hal_rcc.c ****   * @param  RCC_MCODiv specifies the MCO DIV.
1013:Drivers/STM32F0xx_HAL_Driver/Src/stm32f0xx_hal_rcc.c ****   *          This parameter can be one of the following values:
1014:Drivers/STM32F0xx_HAL_Driver/Src/stm32f0xx_hal_rcc.c ****   *            @arg @ref RCC_MCODIV_1 no division applied to MCO clock
1015:Drivers/STM32F0xx_HAL_Driver/Src/stm32f0xx_hal_rcc.c ****   * @retval None
1016:Drivers/STM32F0xx_HAL_Driver/Src/stm32f0xx_hal_rcc.c ****   */
1017:Drivers/STM32F0xx_HAL_Driver/Src/stm32f0xx_hal_rcc.c **** #endif
1018:Drivers/STM32F0xx_HAL_Driver/Src/stm32f0xx_hal_rcc.c **** void HAL_RCC_MCOConfig(uint32_t RCC_MCOx, uint32_t RCC_MCOSource, uint32_t RCC_MCODiv)
1019:Drivers/STM32F0xx_HAL_Driver/Src/stm32f0xx_hal_rcc.c **** {
 1526              		.loc 1 1019 1 is_stmt 1 view -0
 1527              		.cfi_startproc
 1528              		@ args = 0, pretend = 0, frame = 24
 1529              		@ frame_needed = 0, uses_anonymous_args = 0
ARM GAS  /tmp/cc0e6U0t.s 			page 49


 1530              		.loc 1 1019 1 is_stmt 0 view .LVU404
 1531 0000 30B5     		push	{r4, r5, lr}
 1532              	.LCFI3:
 1533              		.cfi_def_cfa_offset 12
 1534              		.cfi_offset 4, -12
 1535              		.cfi_offset 5, -8
 1536              		.cfi_offset 14, -4
 1537 0002 87B0     		sub	sp, sp, #28
 1538              	.LCFI4:
 1539              		.cfi_def_cfa_offset 40
 1540 0004 0C00     		movs	r4, r1
 1541 0006 1500     		movs	r5, r2
1020:Drivers/STM32F0xx_HAL_Driver/Src/stm32f0xx_hal_rcc.c ****   GPIO_InitTypeDef gpio;
 1542              		.loc 1 1020 3 is_stmt 1 view .LVU405
1021:Drivers/STM32F0xx_HAL_Driver/Src/stm32f0xx_hal_rcc.c **** 
1022:Drivers/STM32F0xx_HAL_Driver/Src/stm32f0xx_hal_rcc.c ****   /* Check the parameters */
1023:Drivers/STM32F0xx_HAL_Driver/Src/stm32f0xx_hal_rcc.c ****   assert_param(IS_RCC_MCO(RCC_MCOx));
 1543              		.loc 1 1023 3 view .LVU406
 1544 0008 0028     		cmp	r0, #0
 1545 000a 3FD1     		bne	.L148
 1546              	.LVL104:
 1547              	.L145:
1024:Drivers/STM32F0xx_HAL_Driver/Src/stm32f0xx_hal_rcc.c ****   assert_param(IS_RCC_MCODIV(RCC_MCODiv));
 1548              		.loc 1 1024 3 view .LVU407
 1549 000c 002D     		cmp	r5, #0
 1550 000e 42D1     		bne	.L149
 1551              	.L146:
1025:Drivers/STM32F0xx_HAL_Driver/Src/stm32f0xx_hal_rcc.c ****   assert_param(IS_RCC_MCO1SOURCE(RCC_MCOSource));
 1552              		.loc 1 1025 3 view .LVU408
 1553 0010 002C     		cmp	r4, #0
 1554 0012 1BD0     		beq	.L147
 1555              		.loc 1 1025 3 is_stmt 0 discriminator 1 view .LVU409
 1556 0014 8023     		movs	r3, #128
 1557 0016 9B04     		lsls	r3, r3, #18
 1558 0018 9C42     		cmp	r4, r3
 1559 001a 17D0     		beq	.L147
 1560              		.loc 1 1025 3 discriminator 2 view .LVU410
 1561 001c C023     		movs	r3, #192
 1562 001e 9B04     		lsls	r3, r3, #18
 1563 0020 9C42     		cmp	r4, r3
 1564 0022 13D0     		beq	.L147
 1565              		.loc 1 1025 3 discriminator 3 view .LVU411
 1566 0024 8023     		movs	r3, #128
 1567 0026 DB04     		lsls	r3, r3, #19
 1568 0028 9C42     		cmp	r4, r3
 1569 002a 0FD0     		beq	.L147
 1570              		.loc 1 1025 3 discriminator 4 view .LVU412
 1571 002c A023     		movs	r3, #160
 1572 002e DB04     		lsls	r3, r3, #19
 1573 0030 9C42     		cmp	r4, r3
 1574 0032 0BD0     		beq	.L147
 1575              		.loc 1 1025 3 discriminator 5 view .LVU413
 1576 0034 C023     		movs	r3, #192
 1577 0036 DB04     		lsls	r3, r3, #19
 1578 0038 9C42     		cmp	r4, r3
 1579 003a 07D0     		beq	.L147
 1580              		.loc 1 1025 3 discriminator 6 view .LVU414
ARM GAS  /tmp/cc0e6U0t.s 			page 50


 1581 003c E023     		movs	r3, #224
 1582 003e DB04     		lsls	r3, r3, #19
 1583 0040 9C42     		cmp	r4, r3
 1584 0042 03D0     		beq	.L147
 1585              		.loc 1 1025 3 discriminator 7 view .LVU415
 1586 0044 8023     		movs	r3, #128
 1587 0046 5B04     		lsls	r3, r3, #17
 1588 0048 9C42     		cmp	r4, r3
 1589 004a 2AD1     		bne	.L150
 1590              	.L147:
1026:Drivers/STM32F0xx_HAL_Driver/Src/stm32f0xx_hal_rcc.c ****   
1027:Drivers/STM32F0xx_HAL_Driver/Src/stm32f0xx_hal_rcc.c ****   /* Configure the MCO1 pin in alternate function mode */
1028:Drivers/STM32F0xx_HAL_Driver/Src/stm32f0xx_hal_rcc.c ****   gpio.Mode      = GPIO_MODE_AF_PP;
 1591              		.loc 1 1028 3 is_stmt 1 view .LVU416
 1592              		.loc 1 1028 18 is_stmt 0 view .LVU417
 1593 004c 0223     		movs	r3, #2
 1594 004e 0293     		str	r3, [sp, #8]
1029:Drivers/STM32F0xx_HAL_Driver/Src/stm32f0xx_hal_rcc.c ****   gpio.Speed     = GPIO_SPEED_FREQ_HIGH;
 1595              		.loc 1 1029 3 is_stmt 1 view .LVU418
 1596              		.loc 1 1029 18 is_stmt 0 view .LVU419
 1597 0050 0133     		adds	r3, r3, #1
 1598 0052 0493     		str	r3, [sp, #16]
1030:Drivers/STM32F0xx_HAL_Driver/Src/stm32f0xx_hal_rcc.c ****   gpio.Pull      = GPIO_NOPULL;
 1599              		.loc 1 1030 3 is_stmt 1 view .LVU420
 1600              		.loc 1 1030 18 is_stmt 0 view .LVU421
 1601 0054 0023     		movs	r3, #0
 1602 0056 0393     		str	r3, [sp, #12]
1031:Drivers/STM32F0xx_HAL_Driver/Src/stm32f0xx_hal_rcc.c ****   gpio.Pin       = MCO1_PIN;
 1603              		.loc 1 1031 3 is_stmt 1 view .LVU422
 1604              		.loc 1 1031 18 is_stmt 0 view .LVU423
 1605 0058 8022     		movs	r2, #128
 1606 005a 5200     		lsls	r2, r2, #1
 1607 005c 0192     		str	r2, [sp, #4]
1032:Drivers/STM32F0xx_HAL_Driver/Src/stm32f0xx_hal_rcc.c ****   gpio.Alternate = GPIO_AF0_MCO;
 1608              		.loc 1 1032 3 is_stmt 1 view .LVU424
 1609              		.loc 1 1032 18 is_stmt 0 view .LVU425
 1610 005e 0593     		str	r3, [sp, #20]
1033:Drivers/STM32F0xx_HAL_Driver/Src/stm32f0xx_hal_rcc.c **** 
1034:Drivers/STM32F0xx_HAL_Driver/Src/stm32f0xx_hal_rcc.c ****   /* MCO1 Clock Enable */
1035:Drivers/STM32F0xx_HAL_Driver/Src/stm32f0xx_hal_rcc.c ****   MCO1_CLK_ENABLE();
 1611              		.loc 1 1035 3 is_stmt 1 view .LVU426
 1612              	.LBB5:
 1613              		.loc 1 1035 3 view .LVU427
 1614              		.loc 1 1035 3 view .LVU428
 1615 0060 124D     		ldr	r5, .L151
 1616              	.LVL105:
 1617              		.loc 1 1035 3 is_stmt 0 view .LVU429
 1618 0062 6A69     		ldr	r2, [r5, #20]
 1619 0064 8021     		movs	r1, #128
 1620 0066 8902     		lsls	r1, r1, #10
 1621 0068 0A43     		orrs	r2, r1
 1622 006a 6A61     		str	r2, [r5, #20]
 1623              		.loc 1 1035 3 is_stmt 1 view .LVU430
 1624 006c 6B69     		ldr	r3, [r5, #20]
 1625 006e 0B40     		ands	r3, r1
 1626 0070 0093     		str	r3, [sp]
 1627              		.loc 1 1035 3 view .LVU431
ARM GAS  /tmp/cc0e6U0t.s 			page 51


 1628 0072 009B     		ldr	r3, [sp]
 1629              	.LBE5:
 1630              		.loc 1 1035 3 view .LVU432
1036:Drivers/STM32F0xx_HAL_Driver/Src/stm32f0xx_hal_rcc.c ****   
1037:Drivers/STM32F0xx_HAL_Driver/Src/stm32f0xx_hal_rcc.c ****   HAL_GPIO_Init(MCO1_GPIO_PORT, &gpio);
 1631              		.loc 1 1037 3 view .LVU433
 1632 0074 9020     		movs	r0, #144
 1633 0076 01A9     		add	r1, sp, #4
 1634 0078 C005     		lsls	r0, r0, #23
 1635 007a FFF7FEFF 		bl	HAL_GPIO_Init
 1636              	.LVL106:
1038:Drivers/STM32F0xx_HAL_Driver/Src/stm32f0xx_hal_rcc.c ****   
1039:Drivers/STM32F0xx_HAL_Driver/Src/stm32f0xx_hal_rcc.c ****   /* Configure the MCO clock source */
1040:Drivers/STM32F0xx_HAL_Driver/Src/stm32f0xx_hal_rcc.c ****   __HAL_RCC_MCO1_CONFIG(RCC_MCOSource, RCC_MCODiv);
 1637              		.loc 1 1040 3 view .LVU434
 1638 007e 6968     		ldr	r1, [r5, #4]
 1639 0080 0B4B     		ldr	r3, .L151+4
 1640 0082 1940     		ands	r1, r3
 1641 0084 0C43     		orrs	r4, r1
 1642              	.LVL107:
 1643              		.loc 1 1040 3 is_stmt 0 view .LVU435
 1644 0086 6C60     		str	r4, [r5, #4]
1041:Drivers/STM32F0xx_HAL_Driver/Src/stm32f0xx_hal_rcc.c **** }
 1645              		.loc 1 1041 1 view .LVU436
 1646 0088 07B0     		add	sp, sp, #28
 1647              		@ sp needed
 1648 008a 30BD     		pop	{r4, r5, pc}
 1649              	.LVL108:
 1650              	.L148:
1023:Drivers/STM32F0xx_HAL_Driver/Src/stm32f0xx_hal_rcc.c ****   assert_param(IS_RCC_MCODIV(RCC_MCODiv));
 1651              		.loc 1 1023 3 discriminator 1 view .LVU437
 1652 008c 0949     		ldr	r1, .L151+8
 1653              	.LVL109:
1023:Drivers/STM32F0xx_HAL_Driver/Src/stm32f0xx_hal_rcc.c ****   assert_param(IS_RCC_MCODIV(RCC_MCODiv));
 1654              		.loc 1 1023 3 discriminator 1 view .LVU438
 1655 008e 0A48     		ldr	r0, .L151+12
 1656              	.LVL110:
1023:Drivers/STM32F0xx_HAL_Driver/Src/stm32f0xx_hal_rcc.c ****   assert_param(IS_RCC_MCODIV(RCC_MCODiv));
 1657              		.loc 1 1023 3 discriminator 1 view .LVU439
 1658 0090 FFF7FEFF 		bl	assert_failed
 1659              	.LVL111:
1023:Drivers/STM32F0xx_HAL_Driver/Src/stm32f0xx_hal_rcc.c ****   assert_param(IS_RCC_MCODIV(RCC_MCODiv));
 1660              		.loc 1 1023 3 discriminator 1 view .LVU440
 1661 0094 BAE7     		b	.L145
 1662              	.L149:
1024:Drivers/STM32F0xx_HAL_Driver/Src/stm32f0xx_hal_rcc.c ****   assert_param(IS_RCC_MCO1SOURCE(RCC_MCOSource));
 1663              		.loc 1 1024 3 discriminator 1 view .LVU441
 1664 0096 8021     		movs	r1, #128
 1665 0098 C900     		lsls	r1, r1, #3
 1666 009a 0748     		ldr	r0, .L151+12
 1667 009c FFF7FEFF 		bl	assert_failed
 1668              	.LVL112:
 1669 00a0 B6E7     		b	.L146
 1670              	.L150:
1025:Drivers/STM32F0xx_HAL_Driver/Src/stm32f0xx_hal_rcc.c ****   
 1671              		.loc 1 1025 3 discriminator 8 view .LVU442
 1672 00a2 0649     		ldr	r1, .L151+16
ARM GAS  /tmp/cc0e6U0t.s 			page 52


 1673 00a4 0448     		ldr	r0, .L151+12
 1674 00a6 FFF7FEFF 		bl	assert_failed
 1675              	.LVL113:
 1676 00aa CFE7     		b	.L147
 1677              	.L152:
 1678              		.align	2
 1679              	.L151:
 1680 00ac 00100240 		.word	1073876992
 1681 00b0 FFFFFFF0 		.word	-251658241
 1682 00b4 FF030000 		.word	1023
 1683 00b8 00000000 		.word	.LC2
 1684 00bc 01040000 		.word	1025
 1685              		.cfi_endproc
 1686              	.LFE43:
 1688              		.section	.text.HAL_RCC_EnableCSS,"ax",%progbits
 1689              		.align	1
 1690              		.global	HAL_RCC_EnableCSS
 1691              		.syntax unified
 1692              		.code	16
 1693              		.thumb_func
 1695              	HAL_RCC_EnableCSS:
 1696              	.LFB44:
1042:Drivers/STM32F0xx_HAL_Driver/Src/stm32f0xx_hal_rcc.c **** 
1043:Drivers/STM32F0xx_HAL_Driver/Src/stm32f0xx_hal_rcc.c **** /**
1044:Drivers/STM32F0xx_HAL_Driver/Src/stm32f0xx_hal_rcc.c ****   * @brief  Enables the Clock Security System.
1045:Drivers/STM32F0xx_HAL_Driver/Src/stm32f0xx_hal_rcc.c ****   * @note   If a failure is detected on the HSE oscillator clock, this oscillator
1046:Drivers/STM32F0xx_HAL_Driver/Src/stm32f0xx_hal_rcc.c ****   *         is automatically disabled and an interrupt is generated to inform the
1047:Drivers/STM32F0xx_HAL_Driver/Src/stm32f0xx_hal_rcc.c ****   *         software about the failure (Clock Security System Interrupt, CSSI),
1048:Drivers/STM32F0xx_HAL_Driver/Src/stm32f0xx_hal_rcc.c ****   *         allowing the MCU to perform rescue operations. The CSSI is linked to 
1049:Drivers/STM32F0xx_HAL_Driver/Src/stm32f0xx_hal_rcc.c ****   *         the Cortex-M0 NMI (Non-Maskable Interrupt) exception vector.  
1050:Drivers/STM32F0xx_HAL_Driver/Src/stm32f0xx_hal_rcc.c ****   * @retval None
1051:Drivers/STM32F0xx_HAL_Driver/Src/stm32f0xx_hal_rcc.c ****   */
1052:Drivers/STM32F0xx_HAL_Driver/Src/stm32f0xx_hal_rcc.c **** void HAL_RCC_EnableCSS(void)
1053:Drivers/STM32F0xx_HAL_Driver/Src/stm32f0xx_hal_rcc.c **** {
 1697              		.loc 1 1053 1 is_stmt 1 view -0
 1698              		.cfi_startproc
 1699              		@ args = 0, pretend = 0, frame = 0
 1700              		@ frame_needed = 0, uses_anonymous_args = 0
 1701              		@ link register save eliminated.
1054:Drivers/STM32F0xx_HAL_Driver/Src/stm32f0xx_hal_rcc.c ****   SET_BIT(RCC->CR, RCC_CR_CSSON) ;
 1702              		.loc 1 1054 3 view .LVU444
 1703 0000 034A     		ldr	r2, .L154
 1704 0002 1168     		ldr	r1, [r2]
 1705 0004 8023     		movs	r3, #128
 1706 0006 1B03     		lsls	r3, r3, #12
 1707 0008 0B43     		orrs	r3, r1
 1708 000a 1360     		str	r3, [r2]
1055:Drivers/STM32F0xx_HAL_Driver/Src/stm32f0xx_hal_rcc.c **** }
 1709              		.loc 1 1055 1 is_stmt 0 view .LVU445
 1710              		@ sp needed
 1711 000c 7047     		bx	lr
 1712              	.L155:
 1713 000e C046     		.align	2
 1714              	.L154:
 1715 0010 00100240 		.word	1073876992
 1716              		.cfi_endproc
 1717              	.LFE44:
ARM GAS  /tmp/cc0e6U0t.s 			page 53


 1719              		.section	.text.HAL_RCC_DisableCSS,"ax",%progbits
 1720              		.align	1
 1721              		.global	HAL_RCC_DisableCSS
 1722              		.syntax unified
 1723              		.code	16
 1724              		.thumb_func
 1726              	HAL_RCC_DisableCSS:
 1727              	.LFB45:
1056:Drivers/STM32F0xx_HAL_Driver/Src/stm32f0xx_hal_rcc.c **** 
1057:Drivers/STM32F0xx_HAL_Driver/Src/stm32f0xx_hal_rcc.c **** /**
1058:Drivers/STM32F0xx_HAL_Driver/Src/stm32f0xx_hal_rcc.c ****   * @brief  Disables the Clock Security System.
1059:Drivers/STM32F0xx_HAL_Driver/Src/stm32f0xx_hal_rcc.c ****   * @retval None
1060:Drivers/STM32F0xx_HAL_Driver/Src/stm32f0xx_hal_rcc.c ****   */
1061:Drivers/STM32F0xx_HAL_Driver/Src/stm32f0xx_hal_rcc.c **** void HAL_RCC_DisableCSS(void)
1062:Drivers/STM32F0xx_HAL_Driver/Src/stm32f0xx_hal_rcc.c **** {
 1728              		.loc 1 1062 1 is_stmt 1 view -0
 1729              		.cfi_startproc
 1730              		@ args = 0, pretend = 0, frame = 0
 1731              		@ frame_needed = 0, uses_anonymous_args = 0
 1732              		@ link register save eliminated.
1063:Drivers/STM32F0xx_HAL_Driver/Src/stm32f0xx_hal_rcc.c ****   CLEAR_BIT(RCC->CR, RCC_CR_CSSON) ;
 1733              		.loc 1 1063 3 view .LVU447
 1734 0000 024A     		ldr	r2, .L157
 1735 0002 1368     		ldr	r3, [r2]
 1736 0004 0249     		ldr	r1, .L157+4
 1737 0006 0B40     		ands	r3, r1
 1738 0008 1360     		str	r3, [r2]
1064:Drivers/STM32F0xx_HAL_Driver/Src/stm32f0xx_hal_rcc.c **** }
 1739              		.loc 1 1064 1 is_stmt 0 view .LVU448
 1740              		@ sp needed
 1741 000a 7047     		bx	lr
 1742              	.L158:
 1743              		.align	2
 1744              	.L157:
 1745 000c 00100240 		.word	1073876992
 1746 0010 FFFFF7FF 		.word	-524289
 1747              		.cfi_endproc
 1748              	.LFE45:
 1750              		.global	__aeabi_uidiv
 1751              		.section	.rodata.HAL_RCC_GetSysClockFreq.str1.4,"aMS",%progbits,1
 1752              		.align	2
 1753              	.LC5:
 1754 0000 02030405 		.ascii	"\002\003\004\005\006\007\010\011\012\013\014\015\016"
 1754      06070809 
 1754      0A0B0C0D 
 1754      0E
 1755 000d 0F101000 		.ascii	"\017\020\020\000"
 1756 0011 000000   		.align	2
 1757              	.LC7:
 1758 0014 01020304 		.ascii	"\001\002\003\004\005\006\007\010\011\012\013\014\015"
 1758      05060708 
 1758      090A0B0C 
 1758      0D
 1759 0021 0E0F1000 		.ascii	"\016\017\020\000"
 1760              		.section	.text.HAL_RCC_GetSysClockFreq,"ax",%progbits
 1761              		.align	1
 1762              		.global	HAL_RCC_GetSysClockFreq
ARM GAS  /tmp/cc0e6U0t.s 			page 54


 1763              		.syntax unified
 1764              		.code	16
 1765              		.thumb_func
 1767              	HAL_RCC_GetSysClockFreq:
 1768              	.LFB46:
1065:Drivers/STM32F0xx_HAL_Driver/Src/stm32f0xx_hal_rcc.c **** 
1066:Drivers/STM32F0xx_HAL_Driver/Src/stm32f0xx_hal_rcc.c **** /**
1067:Drivers/STM32F0xx_HAL_Driver/Src/stm32f0xx_hal_rcc.c ****   * @brief  Returns the SYSCLK frequency     
1068:Drivers/STM32F0xx_HAL_Driver/Src/stm32f0xx_hal_rcc.c ****   * @note   The system frequency computed by this function is not the real 
1069:Drivers/STM32F0xx_HAL_Driver/Src/stm32f0xx_hal_rcc.c ****   *         frequency in the chip. It is calculated based on the predefined 
1070:Drivers/STM32F0xx_HAL_Driver/Src/stm32f0xx_hal_rcc.c ****   *         constant and the selected clock source:
1071:Drivers/STM32F0xx_HAL_Driver/Src/stm32f0xx_hal_rcc.c ****   * @note     If SYSCLK source is HSI, function returns values based on HSI_VALUE(*)
1072:Drivers/STM32F0xx_HAL_Driver/Src/stm32f0xx_hal_rcc.c ****   * @note     If SYSCLK source is HSE, function returns a value based on HSE_VALUE
1073:Drivers/STM32F0xx_HAL_Driver/Src/stm32f0xx_hal_rcc.c ****   *           divided by PREDIV factor(**)
1074:Drivers/STM32F0xx_HAL_Driver/Src/stm32f0xx_hal_rcc.c ****   * @note     If SYSCLK source is PLL, function returns a value based on HSE_VALUE
1075:Drivers/STM32F0xx_HAL_Driver/Src/stm32f0xx_hal_rcc.c ****   *           divided by PREDIV factor(**) or depending on STM32F0xxxx devices either a value based
1076:Drivers/STM32F0xx_HAL_Driver/Src/stm32f0xx_hal_rcc.c ****   *           on HSI_VALUE divided by 2 or HSI_VALUE divided by PREDIV factor(*) multiplied by the 
1077:Drivers/STM32F0xx_HAL_Driver/Src/stm32f0xx_hal_rcc.c ****   *           PLL factor.
1078:Drivers/STM32F0xx_HAL_Driver/Src/stm32f0xx_hal_rcc.c ****   * @note     (*) HSI_VALUE is a constant defined in stm32f0xx_hal_conf.h file (default value
1079:Drivers/STM32F0xx_HAL_Driver/Src/stm32f0xx_hal_rcc.c ****   *               8 MHz) but the real value may vary depending on the variations
1080:Drivers/STM32F0xx_HAL_Driver/Src/stm32f0xx_hal_rcc.c ****   *               in voltage and temperature.
1081:Drivers/STM32F0xx_HAL_Driver/Src/stm32f0xx_hal_rcc.c ****   * @note     (**) HSE_VALUE is a constant defined in stm32f0xx_hal_conf.h file (default value
1082:Drivers/STM32F0xx_HAL_Driver/Src/stm32f0xx_hal_rcc.c ****   *                8 MHz), user has to ensure that HSE_VALUE is same as the real
1083:Drivers/STM32F0xx_HAL_Driver/Src/stm32f0xx_hal_rcc.c ****   *                frequency of the crystal used. Otherwise, this function may
1084:Drivers/STM32F0xx_HAL_Driver/Src/stm32f0xx_hal_rcc.c ****   *                have wrong result.
1085:Drivers/STM32F0xx_HAL_Driver/Src/stm32f0xx_hal_rcc.c ****   *                  
1086:Drivers/STM32F0xx_HAL_Driver/Src/stm32f0xx_hal_rcc.c ****   * @note   The result of this function could be not correct when using fractional
1087:Drivers/STM32F0xx_HAL_Driver/Src/stm32f0xx_hal_rcc.c ****   *         value for HSE crystal.
1088:Drivers/STM32F0xx_HAL_Driver/Src/stm32f0xx_hal_rcc.c ****   *           
1089:Drivers/STM32F0xx_HAL_Driver/Src/stm32f0xx_hal_rcc.c ****   * @note   This function can be used by the user application to compute the 
1090:Drivers/STM32F0xx_HAL_Driver/Src/stm32f0xx_hal_rcc.c ****   *         baud-rate for the communication peripherals or configure other parameters.
1091:Drivers/STM32F0xx_HAL_Driver/Src/stm32f0xx_hal_rcc.c ****   *           
1092:Drivers/STM32F0xx_HAL_Driver/Src/stm32f0xx_hal_rcc.c ****   * @note   Each time SYSCLK changes, this function must be called to update the
1093:Drivers/STM32F0xx_HAL_Driver/Src/stm32f0xx_hal_rcc.c ****   *         right SYSCLK value. Otherwise, any configuration based on this function will be incorre
1094:Drivers/STM32F0xx_HAL_Driver/Src/stm32f0xx_hal_rcc.c ****   *         
1095:Drivers/STM32F0xx_HAL_Driver/Src/stm32f0xx_hal_rcc.c ****   * @retval SYSCLK frequency
1096:Drivers/STM32F0xx_HAL_Driver/Src/stm32f0xx_hal_rcc.c ****   */
1097:Drivers/STM32F0xx_HAL_Driver/Src/stm32f0xx_hal_rcc.c **** uint32_t HAL_RCC_GetSysClockFreq(void)
1098:Drivers/STM32F0xx_HAL_Driver/Src/stm32f0xx_hal_rcc.c **** {
 1769              		.loc 1 1098 1 is_stmt 1 view -0
 1770              		.cfi_startproc
 1771              		@ args = 0, pretend = 0, frame = 32
 1772              		@ frame_needed = 0, uses_anonymous_args = 0
 1773 0000 10B5     		push	{r4, lr}
 1774              	.LCFI5:
 1775              		.cfi_def_cfa_offset 8
 1776              		.cfi_offset 4, -8
 1777              		.cfi_offset 14, -4
 1778 0002 88B0     		sub	sp, sp, #32
 1779              	.LCFI6:
 1780              		.cfi_def_cfa_offset 40
1099:Drivers/STM32F0xx_HAL_Driver/Src/stm32f0xx_hal_rcc.c ****   const uint8_t aPLLMULFactorTable[16] = { 2U,  3U,  4U,  5U,  6U,  7U,  8U,  9U,
 1781              		.loc 1 1099 3 view .LVU450
 1782              		.loc 1 1099 17 is_stmt 0 view .LVU451
 1783 0004 04AA     		add	r2, sp, #16
 1784 0006 164B     		ldr	r3, .L164
 1785 0008 13CB     		ldmia	r3!, {r0, r1, r4}
ARM GAS  /tmp/cc0e6U0t.s 			page 55


 1786 000a 13C2     		stmia	r2!, {r0, r1, r4}
 1787 000c 1B68     		ldr	r3, [r3]
 1788 000e 1360     		str	r3, [r2]
1100:Drivers/STM32F0xx_HAL_Driver/Src/stm32f0xx_hal_rcc.c ****                                          10U, 11U, 12U, 13U, 14U, 15U, 16U, 16U};
1101:Drivers/STM32F0xx_HAL_Driver/Src/stm32f0xx_hal_rcc.c ****   const uint8_t aPredivFactorTable[16] = { 1U, 2U,  3U,  4U,  5U,  6U,  7U,  8U,
 1789              		.loc 1 1101 3 is_stmt 1 view .LVU452
 1790              		.loc 1 1101 17 is_stmt 0 view .LVU453
 1791 0010 6A46     		mov	r2, sp
 1792 0012 144B     		ldr	r3, .L164+4
 1793 0014 13CB     		ldmia	r3!, {r0, r1, r4}
 1794 0016 13C2     		stmia	r2!, {r0, r1, r4}
 1795 0018 1B68     		ldr	r3, [r3]
 1796 001a 1360     		str	r3, [r2]
1102:Drivers/STM32F0xx_HAL_Driver/Src/stm32f0xx_hal_rcc.c ****                                            9U,10U, 11U, 12U, 13U, 14U, 15U, 16U};
1103:Drivers/STM32F0xx_HAL_Driver/Src/stm32f0xx_hal_rcc.c **** 
1104:Drivers/STM32F0xx_HAL_Driver/Src/stm32f0xx_hal_rcc.c ****   uint32_t tmpreg = 0U, prediv = 0U, pllclk = 0U, pllmul = 0U;
 1797              		.loc 1 1104 3 is_stmt 1 view .LVU454
 1798              	.LVL114:
1105:Drivers/STM32F0xx_HAL_Driver/Src/stm32f0xx_hal_rcc.c ****   uint32_t sysclockfreq = 0U;
 1799              		.loc 1 1105 3 view .LVU455
1106:Drivers/STM32F0xx_HAL_Driver/Src/stm32f0xx_hal_rcc.c ****   
1107:Drivers/STM32F0xx_HAL_Driver/Src/stm32f0xx_hal_rcc.c ****   tmpreg = RCC->CFGR;
 1800              		.loc 1 1107 3 view .LVU456
 1801              		.loc 1 1107 10 is_stmt 0 view .LVU457
 1802 001c 124B     		ldr	r3, .L164+8
 1803 001e 5A68     		ldr	r2, [r3, #4]
 1804              	.LVL115:
1108:Drivers/STM32F0xx_HAL_Driver/Src/stm32f0xx_hal_rcc.c ****   
1109:Drivers/STM32F0xx_HAL_Driver/Src/stm32f0xx_hal_rcc.c ****   /* Get SYSCLK source -------------------------------------------------------*/
1110:Drivers/STM32F0xx_HAL_Driver/Src/stm32f0xx_hal_rcc.c ****   switch (tmpreg & RCC_CFGR_SWS)
 1805              		.loc 1 1110 3 is_stmt 1 view .LVU458
 1806              		.loc 1 1110 18 is_stmt 0 view .LVU459
 1807 0020 0C23     		movs	r3, #12
 1808 0022 1340     		ands	r3, r2
 1809              		.loc 1 1110 3 view .LVU460
 1810 0024 082B     		cmp	r3, #8
 1811 0026 02D0     		beq	.L163
1111:Drivers/STM32F0xx_HAL_Driver/Src/stm32f0xx_hal_rcc.c ****   {
1112:Drivers/STM32F0xx_HAL_Driver/Src/stm32f0xx_hal_rcc.c ****     case RCC_SYSCLKSOURCE_STATUS_HSE:  /* HSE used as system clock */
1113:Drivers/STM32F0xx_HAL_Driver/Src/stm32f0xx_hal_rcc.c ****     {
1114:Drivers/STM32F0xx_HAL_Driver/Src/stm32f0xx_hal_rcc.c ****       sysclockfreq = HSE_VALUE;
 1812              		.loc 1 1114 20 view .LVU461
 1813 0028 1048     		ldr	r0, .L164+12
 1814              	.LVL116:
1115:Drivers/STM32F0xx_HAL_Driver/Src/stm32f0xx_hal_rcc.c ****       break;
1116:Drivers/STM32F0xx_HAL_Driver/Src/stm32f0xx_hal_rcc.c ****     }
1117:Drivers/STM32F0xx_HAL_Driver/Src/stm32f0xx_hal_rcc.c ****     case RCC_SYSCLKSOURCE_STATUS_PLLCLK:  /* PLL used as system clock */
1118:Drivers/STM32F0xx_HAL_Driver/Src/stm32f0xx_hal_rcc.c ****     {
1119:Drivers/STM32F0xx_HAL_Driver/Src/stm32f0xx_hal_rcc.c ****       pllmul = aPLLMULFactorTable[(uint32_t)(tmpreg & RCC_CFGR_PLLMUL) >> RCC_CFGR_PLLMUL_BITNUMBER
1120:Drivers/STM32F0xx_HAL_Driver/Src/stm32f0xx_hal_rcc.c ****       prediv = aPredivFactorTable[(uint32_t)(RCC->CFGR2 & RCC_CFGR2_PREDIV) >> RCC_CFGR2_PREDIV_BIT
1121:Drivers/STM32F0xx_HAL_Driver/Src/stm32f0xx_hal_rcc.c ****       if ((tmpreg & RCC_CFGR_PLLSRC) == RCC_PLLSOURCE_HSE)
1122:Drivers/STM32F0xx_HAL_Driver/Src/stm32f0xx_hal_rcc.c ****       {
1123:Drivers/STM32F0xx_HAL_Driver/Src/stm32f0xx_hal_rcc.c ****         /* HSE used as PLL clock source : PLLCLK = HSE/PREDIV * PLLMUL */
1124:Drivers/STM32F0xx_HAL_Driver/Src/stm32f0xx_hal_rcc.c ****         pllclk = (uint32_t)((uint64_t) HSE_VALUE / (uint64_t) (prediv)) * ((uint64_t) pllmul);
1125:Drivers/STM32F0xx_HAL_Driver/Src/stm32f0xx_hal_rcc.c ****       }
1126:Drivers/STM32F0xx_HAL_Driver/Src/stm32f0xx_hal_rcc.c **** #if defined(RCC_CFGR_PLLSRC_HSI48_PREDIV)
1127:Drivers/STM32F0xx_HAL_Driver/Src/stm32f0xx_hal_rcc.c ****       else if ((tmpreg & RCC_CFGR_PLLSRC) == RCC_PLLSOURCE_HSI48)
ARM GAS  /tmp/cc0e6U0t.s 			page 56


1128:Drivers/STM32F0xx_HAL_Driver/Src/stm32f0xx_hal_rcc.c ****       {
1129:Drivers/STM32F0xx_HAL_Driver/Src/stm32f0xx_hal_rcc.c ****         /* HSI48 used as PLL clock source : PLLCLK = HSI48/PREDIV * PLLMUL */
1130:Drivers/STM32F0xx_HAL_Driver/Src/stm32f0xx_hal_rcc.c ****         pllclk = (uint32_t)((uint64_t) HSI48_VALUE / (uint64_t) (prediv)) * ((uint64_t) pllmul);
1131:Drivers/STM32F0xx_HAL_Driver/Src/stm32f0xx_hal_rcc.c ****       }
1132:Drivers/STM32F0xx_HAL_Driver/Src/stm32f0xx_hal_rcc.c **** #endif /* RCC_CFGR_PLLSRC_HSI48_PREDIV */
1133:Drivers/STM32F0xx_HAL_Driver/Src/stm32f0xx_hal_rcc.c ****       else
1134:Drivers/STM32F0xx_HAL_Driver/Src/stm32f0xx_hal_rcc.c ****       {
1135:Drivers/STM32F0xx_HAL_Driver/Src/stm32f0xx_hal_rcc.c **** #if  (defined(STM32F042x6) || defined(STM32F048xx) || defined(STM32F070x6) || defined(STM32F071xB) 
1136:Drivers/STM32F0xx_HAL_Driver/Src/stm32f0xx_hal_rcc.c ****         /* HSI used as PLL clock source : PLLCLK = HSI/PREDIV * PLLMUL */
1137:Drivers/STM32F0xx_HAL_Driver/Src/stm32f0xx_hal_rcc.c ****         pllclk = (uint32_t)((uint64_t) HSI_VALUE / (uint64_t) (prediv)) * ((uint64_t) pllmul);
1138:Drivers/STM32F0xx_HAL_Driver/Src/stm32f0xx_hal_rcc.c **** #else
1139:Drivers/STM32F0xx_HAL_Driver/Src/stm32f0xx_hal_rcc.c ****         /* HSI used as PLL clock source : PLLCLK = HSI/2 * PLLMUL */
1140:Drivers/STM32F0xx_HAL_Driver/Src/stm32f0xx_hal_rcc.c ****         pllclk = (uint32_t)((uint64_t) (HSI_VALUE >> 1U) * ((uint64_t) pllmul));
1141:Drivers/STM32F0xx_HAL_Driver/Src/stm32f0xx_hal_rcc.c **** #endif
1142:Drivers/STM32F0xx_HAL_Driver/Src/stm32f0xx_hal_rcc.c ****       }
1143:Drivers/STM32F0xx_HAL_Driver/Src/stm32f0xx_hal_rcc.c ****       sysclockfreq = pllclk;
1144:Drivers/STM32F0xx_HAL_Driver/Src/stm32f0xx_hal_rcc.c ****       break;
1145:Drivers/STM32F0xx_HAL_Driver/Src/stm32f0xx_hal_rcc.c ****     }
1146:Drivers/STM32F0xx_HAL_Driver/Src/stm32f0xx_hal_rcc.c **** #if defined(RCC_CFGR_SWS_HSI48)
1147:Drivers/STM32F0xx_HAL_Driver/Src/stm32f0xx_hal_rcc.c ****     case RCC_SYSCLKSOURCE_STATUS_HSI48:    /* HSI48 used as system clock source */
1148:Drivers/STM32F0xx_HAL_Driver/Src/stm32f0xx_hal_rcc.c ****     {
1149:Drivers/STM32F0xx_HAL_Driver/Src/stm32f0xx_hal_rcc.c ****       sysclockfreq = HSI48_VALUE;
1150:Drivers/STM32F0xx_HAL_Driver/Src/stm32f0xx_hal_rcc.c ****       break;
1151:Drivers/STM32F0xx_HAL_Driver/Src/stm32f0xx_hal_rcc.c ****     }
1152:Drivers/STM32F0xx_HAL_Driver/Src/stm32f0xx_hal_rcc.c **** #endif /* RCC_CFGR_SWS_HSI48 */
1153:Drivers/STM32F0xx_HAL_Driver/Src/stm32f0xx_hal_rcc.c ****     case RCC_SYSCLKSOURCE_STATUS_HSI:  /* HSI used as system clock source */
1154:Drivers/STM32F0xx_HAL_Driver/Src/stm32f0xx_hal_rcc.c ****     default: /* HSI used as system clock */
1155:Drivers/STM32F0xx_HAL_Driver/Src/stm32f0xx_hal_rcc.c ****     {
1156:Drivers/STM32F0xx_HAL_Driver/Src/stm32f0xx_hal_rcc.c ****       sysclockfreq = HSI_VALUE;
1157:Drivers/STM32F0xx_HAL_Driver/Src/stm32f0xx_hal_rcc.c ****       break;
1158:Drivers/STM32F0xx_HAL_Driver/Src/stm32f0xx_hal_rcc.c ****     }
1159:Drivers/STM32F0xx_HAL_Driver/Src/stm32f0xx_hal_rcc.c ****   }
1160:Drivers/STM32F0xx_HAL_Driver/Src/stm32f0xx_hal_rcc.c ****   return sysclockfreq;
 1815              		.loc 1 1160 3 is_stmt 1 view .LVU462
 1816              	.L159:
1161:Drivers/STM32F0xx_HAL_Driver/Src/stm32f0xx_hal_rcc.c **** }
 1817              		.loc 1 1161 1 is_stmt 0 view .LVU463
 1818 002a 08B0     		add	sp, sp, #32
 1819              		@ sp needed
 1820 002c 10BD     		pop	{r4, pc}
 1821              	.LVL117:
 1822              	.L163:
1119:Drivers/STM32F0xx_HAL_Driver/Src/stm32f0xx_hal_rcc.c ****       prediv = aPredivFactorTable[(uint32_t)(RCC->CFGR2 & RCC_CFGR2_PREDIV) >> RCC_CFGR2_PREDIV_BIT
 1823              		.loc 1 1119 7 is_stmt 1 view .LVU464
1119:Drivers/STM32F0xx_HAL_Driver/Src/stm32f0xx_hal_rcc.c ****       prediv = aPredivFactorTable[(uint32_t)(RCC->CFGR2 & RCC_CFGR2_PREDIV) >> RCC_CFGR2_PREDIV_BIT
 1824              		.loc 1 1119 72 is_stmt 0 view .LVU465
 1825 002e 910C     		lsrs	r1, r2, #18
 1826 0030 0733     		adds	r3, r3, #7
 1827 0032 1940     		ands	r1, r3
1119:Drivers/STM32F0xx_HAL_Driver/Src/stm32f0xx_hal_rcc.c ****       prediv = aPredivFactorTable[(uint32_t)(RCC->CFGR2 & RCC_CFGR2_PREDIV) >> RCC_CFGR2_PREDIV_BIT
 1828              		.loc 1 1119 34 view .LVU466
 1829 0034 04A8     		add	r0, sp, #16
 1830 0036 445C     		ldrb	r4, [r0, r1]
 1831              	.LVL118:
1120:Drivers/STM32F0xx_HAL_Driver/Src/stm32f0xx_hal_rcc.c ****       if ((tmpreg & RCC_CFGR_PLLSRC) == RCC_PLLSOURCE_HSE)
 1832              		.loc 1 1120 7 is_stmt 1 view .LVU467
1120:Drivers/STM32F0xx_HAL_Driver/Src/stm32f0xx_hal_rcc.c ****       if ((tmpreg & RCC_CFGR_PLLSRC) == RCC_PLLSOURCE_HSE)
ARM GAS  /tmp/cc0e6U0t.s 			page 57


 1833              		.loc 1 1120 49 is_stmt 0 view .LVU468
 1834 0038 0B49     		ldr	r1, .L164+8
 1835 003a C96A     		ldr	r1, [r1, #44]
1120:Drivers/STM32F0xx_HAL_Driver/Src/stm32f0xx_hal_rcc.c ****       if ((tmpreg & RCC_CFGR_PLLSRC) == RCC_PLLSOURCE_HSE)
 1836              		.loc 1 1120 77 view .LVU469
 1837 003c 0B40     		ands	r3, r1
1120:Drivers/STM32F0xx_HAL_Driver/Src/stm32f0xx_hal_rcc.c ****       if ((tmpreg & RCC_CFGR_PLLSRC) == RCC_PLLSOURCE_HSE)
 1838              		.loc 1 1120 34 view .LVU470
 1839 003e 6946     		mov	r1, sp
 1840 0040 C95C     		ldrb	r1, [r1, r3]
 1841              	.LVL119:
1121:Drivers/STM32F0xx_HAL_Driver/Src/stm32f0xx_hal_rcc.c ****       {
 1842              		.loc 1 1121 7 is_stmt 1 view .LVU471
1121:Drivers/STM32F0xx_HAL_Driver/Src/stm32f0xx_hal_rcc.c ****       {
 1843              		.loc 1 1121 10 is_stmt 0 view .LVU472
 1844 0042 D303     		lsls	r3, r2, #15
 1845 0044 04D5     		bpl	.L161
1124:Drivers/STM32F0xx_HAL_Driver/Src/stm32f0xx_hal_rcc.c ****       }
 1846              		.loc 1 1124 9 is_stmt 1 view .LVU473
1124:Drivers/STM32F0xx_HAL_Driver/Src/stm32f0xx_hal_rcc.c ****       }
 1847              		.loc 1 1124 18 is_stmt 0 view .LVU474
 1848 0046 0948     		ldr	r0, .L164+12
 1849 0048 FFF7FEFF 		bl	__aeabi_uidiv
 1850              	.LVL120:
1124:Drivers/STM32F0xx_HAL_Driver/Src/stm32f0xx_hal_rcc.c ****       }
 1851              		.loc 1 1124 16 view .LVU475
 1852 004c 6043     		muls	r0, r4
 1853              	.LVL121:
1124:Drivers/STM32F0xx_HAL_Driver/Src/stm32f0xx_hal_rcc.c ****       }
 1854              		.loc 1 1124 16 view .LVU476
 1855 004e ECE7     		b	.L159
 1856              	.LVL122:
 1857              	.L161:
1140:Drivers/STM32F0xx_HAL_Driver/Src/stm32f0xx_hal_rcc.c **** #endif
 1858              		.loc 1 1140 9 is_stmt 1 view .LVU477
1140:Drivers/STM32F0xx_HAL_Driver/Src/stm32f0xx_hal_rcc.c **** #endif
 1859              		.loc 1 1140 16 is_stmt 0 view .LVU478
 1860 0050 6301     		lsls	r3, r4, #5
 1861 0052 1B1B     		subs	r3, r3, r4
 1862 0054 9801     		lsls	r0, r3, #6
 1863 0056 C01A     		subs	r0, r0, r3
 1864 0058 C000     		lsls	r0, r0, #3
 1865 005a 0019     		adds	r0, r0, r4
 1866 005c 0002     		lsls	r0, r0, #8
 1867              	.LVL123:
1140:Drivers/STM32F0xx_HAL_Driver/Src/stm32f0xx_hal_rcc.c **** #endif
 1868              		.loc 1 1140 16 view .LVU479
 1869 005e E4E7     		b	.L159
 1870              	.L165:
 1871              		.align	2
 1872              	.L164:
 1873 0060 00000000 		.word	.LC5
 1874 0064 14000000 		.word	.LC7
 1875 0068 00100240 		.word	1073876992
 1876 006c 00127A00 		.word	8000000
 1877              		.cfi_endproc
 1878              	.LFE46:
ARM GAS  /tmp/cc0e6U0t.s 			page 58


 1880              		.section	.text.HAL_RCC_ClockConfig,"ax",%progbits
 1881              		.align	1
 1882              		.global	HAL_RCC_ClockConfig
 1883              		.syntax unified
 1884              		.code	16
 1885              		.thumb_func
 1887              	HAL_RCC_ClockConfig:
 1888              	.LVL124:
 1889              	.LFB42:
 780:Drivers/STM32F0xx_HAL_Driver/Src/stm32f0xx_hal_rcc.c ****   uint32_t tickstart;
 1890              		.loc 1 780 1 is_stmt 1 view -0
 1891              		.cfi_startproc
 1892              		@ args = 0, pretend = 0, frame = 0
 1893              		@ frame_needed = 0, uses_anonymous_args = 0
 780:Drivers/STM32F0xx_HAL_Driver/Src/stm32f0xx_hal_rcc.c ****   uint32_t tickstart;
 1894              		.loc 1 780 1 is_stmt 0 view .LVU481
 1895 0000 70B5     		push	{r4, r5, r6, lr}
 1896              	.LCFI7:
 1897              		.cfi_def_cfa_offset 16
 1898              		.cfi_offset 4, -16
 1899              		.cfi_offset 5, -12
 1900              		.cfi_offset 6, -8
 1901              		.cfi_offset 14, -4
 1902 0002 0400     		movs	r4, r0
 1903 0004 0D00     		movs	r5, r1
 781:Drivers/STM32F0xx_HAL_Driver/Src/stm32f0xx_hal_rcc.c **** 
 1904              		.loc 1 781 3 is_stmt 1 view .LVU482
 784:Drivers/STM32F0xx_HAL_Driver/Src/stm32f0xx_hal_rcc.c ****   {
 1905              		.loc 1 784 3 view .LVU483
 784:Drivers/STM32F0xx_HAL_Driver/Src/stm32f0xx_hal_rcc.c ****   {
 1906              		.loc 1 784 5 is_stmt 0 view .LVU484
 1907 0006 0028     		cmp	r0, #0
 1908 0008 00D1     		bne	.LCB1821
 1909 000a C7E0     		b	.L184	@long jump
 1910              	.LCB1821:
 790:Drivers/STM32F0xx_HAL_Driver/Src/stm32f0xx_hal_rcc.c ****   assert_param(IS_FLASH_LATENCY(FLatency));
 1911              		.loc 1 790 3 is_stmt 1 view .LVU485
 1912 000c 0368     		ldr	r3, [r0]
 1913 000e 5B07     		lsls	r3, r3, #29
 1914 0010 60D0     		beq	.L191
 1915              	.LVL125:
 1916              	.L168:
 791:Drivers/STM32F0xx_HAL_Driver/Src/stm32f0xx_hal_rcc.c **** 
 1917              		.loc 1 791 3 view .LVU486
 1918 0012 012D     		cmp	r5, #1
 1919 0014 63D8     		bhi	.L192
 1920              	.L169:
 798:Drivers/STM32F0xx_HAL_Driver/Src/stm32f0xx_hal_rcc.c ****   {    
 1921              		.loc 1 798 3 view .LVU487
 798:Drivers/STM32F0xx_HAL_Driver/Src/stm32f0xx_hal_rcc.c ****   {    
 1922              		.loc 1 798 17 is_stmt 0 view .LVU488
 1923 0016 654B     		ldr	r3, .L198
 1924 0018 1A68     		ldr	r2, [r3]
 1925 001a 0123     		movs	r3, #1
 1926 001c 1340     		ands	r3, r2
 798:Drivers/STM32F0xx_HAL_Driver/Src/stm32f0xx_hal_rcc.c ****   {    
 1927              		.loc 1 798 5 view .LVU489
ARM GAS  /tmp/cc0e6U0t.s 			page 59


 1928 001e AB42     		cmp	r3, r5
 1929 0020 0AD2     		bcs	.L170
 801:Drivers/STM32F0xx_HAL_Driver/Src/stm32f0xx_hal_rcc.c ****     
 1930              		.loc 1 801 5 is_stmt 1 view .LVU490
 1931 0022 6249     		ldr	r1, .L198
 1932 0024 0B68     		ldr	r3, [r1]
 1933 0026 0122     		movs	r2, #1
 1934 0028 9343     		bics	r3, r2
 1935 002a 2B43     		orrs	r3, r5
 1936 002c 0B60     		str	r3, [r1]
 805:Drivers/STM32F0xx_HAL_Driver/Src/stm32f0xx_hal_rcc.c ****     {
 1937              		.loc 1 805 5 view .LVU491
 805:Drivers/STM32F0xx_HAL_Driver/Src/stm32f0xx_hal_rcc.c ****     {
 1938              		.loc 1 805 8 is_stmt 0 view .LVU492
 1939 002e 0B68     		ldr	r3, [r1]
 1940 0030 1A40     		ands	r2, r3
 805:Drivers/STM32F0xx_HAL_Driver/Src/stm32f0xx_hal_rcc.c ****     {
 1941              		.loc 1 805 7 view .LVU493
 1942 0032 AA42     		cmp	r2, r5
 1943 0034 00D0     		beq	.LCB1854
 1944 0036 B3E0     		b	.L185	@long jump
 1945              	.LCB1854:
 1946              	.L170:
 812:Drivers/STM32F0xx_HAL_Driver/Src/stm32f0xx_hal_rcc.c ****   {
 1947              		.loc 1 812 3 is_stmt 1 view .LVU494
 812:Drivers/STM32F0xx_HAL_Driver/Src/stm32f0xx_hal_rcc.c ****   {
 1948              		.loc 1 812 25 is_stmt 0 view .LVU495
 1949 0038 2368     		ldr	r3, [r4]
 812:Drivers/STM32F0xx_HAL_Driver/Src/stm32f0xx_hal_rcc.c ****   {
 1950              		.loc 1 812 5 view .LVU496
 1951 003a 9A07     		lsls	r2, r3, #30
 1952 003c 21D5     		bpl	.L171
 816:Drivers/STM32F0xx_HAL_Driver/Src/stm32f0xx_hal_rcc.c ****     {
 1953              		.loc 1 816 5 is_stmt 1 view .LVU497
 816:Drivers/STM32F0xx_HAL_Driver/Src/stm32f0xx_hal_rcc.c ****     {
 1954              		.loc 1 816 7 is_stmt 0 view .LVU498
 1955 003e 5B07     		lsls	r3, r3, #29
 1956 0040 05D5     		bpl	.L172
 818:Drivers/STM32F0xx_HAL_Driver/Src/stm32f0xx_hal_rcc.c ****     }
 1957              		.loc 1 818 7 is_stmt 1 view .LVU499
 1958 0042 5B4A     		ldr	r2, .L198+4
 1959 0044 5168     		ldr	r1, [r2, #4]
 1960 0046 E023     		movs	r3, #224
 1961 0048 DB00     		lsls	r3, r3, #3
 1962 004a 0B43     		orrs	r3, r1
 1963 004c 5360     		str	r3, [r2, #4]
 1964              	.L172:
 822:Drivers/STM32F0xx_HAL_Driver/Src/stm32f0xx_hal_rcc.c ****     MODIFY_REG(RCC->CFGR, RCC_CFGR_HPRE, RCC_ClkInitStruct->AHBCLKDivider);
 1965              		.loc 1 822 5 view .LVU500
 1966 004e A368     		ldr	r3, [r4, #8]
 1967 0050 002B     		cmp	r3, #0
 1968 0052 0FD0     		beq	.L173
 822:Drivers/STM32F0xx_HAL_Driver/Src/stm32f0xx_hal_rcc.c ****     MODIFY_REG(RCC->CFGR, RCC_CFGR_HPRE, RCC_ClkInitStruct->AHBCLKDivider);
 1969              		.loc 1 822 5 is_stmt 0 discriminator 1 view .LVU501
 1970 0054 802B     		cmp	r3, #128
 1971 0056 0DD0     		beq	.L173
 822:Drivers/STM32F0xx_HAL_Driver/Src/stm32f0xx_hal_rcc.c ****     MODIFY_REG(RCC->CFGR, RCC_CFGR_HPRE, RCC_ClkInitStruct->AHBCLKDivider);
ARM GAS  /tmp/cc0e6U0t.s 			page 60


 1972              		.loc 1 822 5 discriminator 2 view .LVU502
 1973 0058 902B     		cmp	r3, #144
 1974 005a 0BD0     		beq	.L173
 822:Drivers/STM32F0xx_HAL_Driver/Src/stm32f0xx_hal_rcc.c ****     MODIFY_REG(RCC->CFGR, RCC_CFGR_HPRE, RCC_ClkInitStruct->AHBCLKDivider);
 1975              		.loc 1 822 5 discriminator 3 view .LVU503
 1976 005c A02B     		cmp	r3, #160
 1977 005e 09D0     		beq	.L173
 822:Drivers/STM32F0xx_HAL_Driver/Src/stm32f0xx_hal_rcc.c ****     MODIFY_REG(RCC->CFGR, RCC_CFGR_HPRE, RCC_ClkInitStruct->AHBCLKDivider);
 1978              		.loc 1 822 5 discriminator 4 view .LVU504
 1979 0060 B02B     		cmp	r3, #176
 1980 0062 07D0     		beq	.L173
 822:Drivers/STM32F0xx_HAL_Driver/Src/stm32f0xx_hal_rcc.c ****     MODIFY_REG(RCC->CFGR, RCC_CFGR_HPRE, RCC_ClkInitStruct->AHBCLKDivider);
 1981              		.loc 1 822 5 discriminator 5 view .LVU505
 1982 0064 C02B     		cmp	r3, #192
 1983 0066 05D0     		beq	.L173
 822:Drivers/STM32F0xx_HAL_Driver/Src/stm32f0xx_hal_rcc.c ****     MODIFY_REG(RCC->CFGR, RCC_CFGR_HPRE, RCC_ClkInitStruct->AHBCLKDivider);
 1984              		.loc 1 822 5 discriminator 6 view .LVU506
 1985 0068 D02B     		cmp	r3, #208
 1986 006a 03D0     		beq	.L173
 822:Drivers/STM32F0xx_HAL_Driver/Src/stm32f0xx_hal_rcc.c ****     MODIFY_REG(RCC->CFGR, RCC_CFGR_HPRE, RCC_ClkInitStruct->AHBCLKDivider);
 1987              		.loc 1 822 5 discriminator 7 view .LVU507
 1988 006c E02B     		cmp	r3, #224
 1989 006e 01D0     		beq	.L173
 822:Drivers/STM32F0xx_HAL_Driver/Src/stm32f0xx_hal_rcc.c ****     MODIFY_REG(RCC->CFGR, RCC_CFGR_HPRE, RCC_ClkInitStruct->AHBCLKDivider);
 1990              		.loc 1 822 5 discriminator 8 view .LVU508
 1991 0070 F02B     		cmp	r3, #240
 1992 0072 39D1     		bne	.L193
 1993              	.L173:
 823:Drivers/STM32F0xx_HAL_Driver/Src/stm32f0xx_hal_rcc.c ****   }
 1994              		.loc 1 823 5 is_stmt 1 view .LVU509
 1995 0074 4E4A     		ldr	r2, .L198+4
 1996 0076 5368     		ldr	r3, [r2, #4]
 1997 0078 F021     		movs	r1, #240
 1998 007a 8B43     		bics	r3, r1
 1999 007c A168     		ldr	r1, [r4, #8]
 2000 007e 0B43     		orrs	r3, r1
 2001 0080 5360     		str	r3, [r2, #4]
 2002              	.L171:
 827:Drivers/STM32F0xx_HAL_Driver/Src/stm32f0xx_hal_rcc.c ****   {
 2003              		.loc 1 827 3 view .LVU510
 827:Drivers/STM32F0xx_HAL_Driver/Src/stm32f0xx_hal_rcc.c ****   {
 2004              		.loc 1 827 5 is_stmt 0 view .LVU511
 2005 0082 2368     		ldr	r3, [r4]
 2006 0084 DB07     		lsls	r3, r3, #31
 2007 0086 45D5     		bpl	.L174
 829:Drivers/STM32F0xx_HAL_Driver/Src/stm32f0xx_hal_rcc.c ****     
 2008              		.loc 1 829 5 is_stmt 1 view .LVU512
 2009 0088 6368     		ldr	r3, [r4, #4]
 2010 008a 022B     		cmp	r3, #2
 2011 008c 31D8     		bhi	.L194
 2012              	.L175:
 832:Drivers/STM32F0xx_HAL_Driver/Src/stm32f0xx_hal_rcc.c ****     {
 2013              		.loc 1 832 5 view .LVU513
 832:Drivers/STM32F0xx_HAL_Driver/Src/stm32f0xx_hal_rcc.c ****     {
 2014              		.loc 1 832 25 is_stmt 0 view .LVU514
 2015 008e 6368     		ldr	r3, [r4, #4]
 832:Drivers/STM32F0xx_HAL_Driver/Src/stm32f0xx_hal_rcc.c ****     {
ARM GAS  /tmp/cc0e6U0t.s 			page 61


 2016              		.loc 1 832 7 view .LVU515
 2017 0090 012B     		cmp	r3, #1
 2018 0092 33D0     		beq	.L195
 841:Drivers/STM32F0xx_HAL_Driver/Src/stm32f0xx_hal_rcc.c ****     {
 2019              		.loc 1 841 10 is_stmt 1 view .LVU516
 841:Drivers/STM32F0xx_HAL_Driver/Src/stm32f0xx_hal_rcc.c ****     {
 2020              		.loc 1 841 12 is_stmt 0 view .LVU517
 2021 0094 022B     		cmp	r3, #2
 2022 0096 37D0     		beq	.L196
 864:Drivers/STM32F0xx_HAL_Driver/Src/stm32f0xx_hal_rcc.c ****       {
 2023              		.loc 1 864 7 is_stmt 1 view .LVU518
 864:Drivers/STM32F0xx_HAL_Driver/Src/stm32f0xx_hal_rcc.c ****       {
 2024              		.loc 1 864 10 is_stmt 0 view .LVU519
 2025 0098 454A     		ldr	r2, .L198+4
 2026 009a 1268     		ldr	r2, [r2]
 864:Drivers/STM32F0xx_HAL_Driver/Src/stm32f0xx_hal_rcc.c ****       {
 2027              		.loc 1 864 9 view .LVU520
 2028 009c 9207     		lsls	r2, r2, #30
 2029 009e 00D4     		bmi	.LCB1936
 2030 00a0 80E0     		b	.L188	@long jump
 2031              	.LCB1936:
 2032              	.L177:
 869:Drivers/STM32F0xx_HAL_Driver/Src/stm32f0xx_hal_rcc.c **** 
 2033              		.loc 1 869 5 is_stmt 1 view .LVU521
 2034 00a2 4349     		ldr	r1, .L198+4
 2035 00a4 4A68     		ldr	r2, [r1, #4]
 2036 00a6 0320     		movs	r0, #3
 2037 00a8 8243     		bics	r2, r0
 2038 00aa 1343     		orrs	r3, r2
 2039 00ac 4B60     		str	r3, [r1, #4]
 872:Drivers/STM32F0xx_HAL_Driver/Src/stm32f0xx_hal_rcc.c ****     
 2040              		.loc 1 872 5 view .LVU522
 872:Drivers/STM32F0xx_HAL_Driver/Src/stm32f0xx_hal_rcc.c ****     
 2041              		.loc 1 872 17 is_stmt 0 view .LVU523
 2042 00ae FFF7FEFF 		bl	HAL_GetTick
 2043              	.LVL126:
 2044 00b2 0600     		movs	r6, r0
 2045              	.LVL127:
 874:Drivers/STM32F0xx_HAL_Driver/Src/stm32f0xx_hal_rcc.c ****     {
 2046              		.loc 1 874 5 is_stmt 1 view .LVU524
 2047              	.L179:
 874:Drivers/STM32F0xx_HAL_Driver/Src/stm32f0xx_hal_rcc.c ****     {
 2048              		.loc 1 874 11 view .LVU525
 874:Drivers/STM32F0xx_HAL_Driver/Src/stm32f0xx_hal_rcc.c ****     {
 2049              		.loc 1 874 12 is_stmt 0 view .LVU526
 2050 00b4 3E4B     		ldr	r3, .L198+4
 2051 00b6 5B68     		ldr	r3, [r3, #4]
 2052 00b8 0C22     		movs	r2, #12
 2053 00ba 1A40     		ands	r2, r3
 874:Drivers/STM32F0xx_HAL_Driver/Src/stm32f0xx_hal_rcc.c ****     {
 2054              		.loc 1 874 78 view .LVU527
 2055 00bc 6368     		ldr	r3, [r4, #4]
 2056 00be 9B00     		lsls	r3, r3, #2
 874:Drivers/STM32F0xx_HAL_Driver/Src/stm32f0xx_hal_rcc.c ****     {
 2057              		.loc 1 874 11 view .LVU528
 2058 00c0 9A42     		cmp	r2, r3
 2059 00c2 27D0     		beq	.L174
ARM GAS  /tmp/cc0e6U0t.s 			page 62


 876:Drivers/STM32F0xx_HAL_Driver/Src/stm32f0xx_hal_rcc.c ****       {
 2060              		.loc 1 876 7 is_stmt 1 view .LVU529
 876:Drivers/STM32F0xx_HAL_Driver/Src/stm32f0xx_hal_rcc.c ****       {
 2061              		.loc 1 876 11 is_stmt 0 view .LVU530
 2062 00c4 FFF7FEFF 		bl	HAL_GetTick
 2063              	.LVL128:
 876:Drivers/STM32F0xx_HAL_Driver/Src/stm32f0xx_hal_rcc.c ****       {
 2064              		.loc 1 876 25 view .LVU531
 2065 00c8 801B     		subs	r0, r0, r6
 876:Drivers/STM32F0xx_HAL_Driver/Src/stm32f0xx_hal_rcc.c ****       {
 2066              		.loc 1 876 9 view .LVU532
 2067 00ca 3A4B     		ldr	r3, .L198+8
 2068 00cc 9842     		cmp	r0, r3
 2069 00ce F1D9     		bls	.L179
 878:Drivers/STM32F0xx_HAL_Driver/Src/stm32f0xx_hal_rcc.c ****       }
 2070              		.loc 1 878 16 view .LVU533
 2071 00d0 0320     		movs	r0, #3
 2072 00d2 5CE0     		b	.L167
 2073              	.LVL129:
 2074              	.L191:
 790:Drivers/STM32F0xx_HAL_Driver/Src/stm32f0xx_hal_rcc.c ****   assert_param(IS_FLASH_LATENCY(FLatency));
 2075              		.loc 1 790 3 discriminator 1 view .LVU534
 2076 00d4 3849     		ldr	r1, .L198+12
 2077              	.LVL130:
 790:Drivers/STM32F0xx_HAL_Driver/Src/stm32f0xx_hal_rcc.c ****   assert_param(IS_FLASH_LATENCY(FLatency));
 2078              		.loc 1 790 3 discriminator 1 view .LVU535
 2079 00d6 3948     		ldr	r0, .L198+16
 2080              	.LVL131:
 790:Drivers/STM32F0xx_HAL_Driver/Src/stm32f0xx_hal_rcc.c ****   assert_param(IS_FLASH_LATENCY(FLatency));
 2081              		.loc 1 790 3 discriminator 1 view .LVU536
 2082 00d8 FFF7FEFF 		bl	assert_failed
 2083              	.LVL132:
 2084 00dc 99E7     		b	.L168
 2085              	.L192:
 791:Drivers/STM32F0xx_HAL_Driver/Src/stm32f0xx_hal_rcc.c **** 
 2086              		.loc 1 791 3 discriminator 1 view .LVU537
 2087 00de 3849     		ldr	r1, .L198+20
 2088 00e0 3648     		ldr	r0, .L198+16
 2089 00e2 FFF7FEFF 		bl	assert_failed
 2090              	.LVL133:
 2091 00e6 96E7     		b	.L169
 2092              	.L193:
 822:Drivers/STM32F0xx_HAL_Driver/Src/stm32f0xx_hal_rcc.c ****     MODIFY_REG(RCC->CFGR, RCC_CFGR_HPRE, RCC_ClkInitStruct->AHBCLKDivider);
 2093              		.loc 1 822 5 discriminator 9 view .LVU538
 2094 00e8 3649     		ldr	r1, .L198+24
 2095 00ea 3448     		ldr	r0, .L198+16
 2096 00ec FFF7FEFF 		bl	assert_failed
 2097              	.LVL134:
 2098 00f0 C0E7     		b	.L173
 2099              	.L194:
 829:Drivers/STM32F0xx_HAL_Driver/Src/stm32f0xx_hal_rcc.c ****     
 2100              		.loc 1 829 5 discriminator 1 view .LVU539
 2101 00f2 3549     		ldr	r1, .L198+28
 2102 00f4 3148     		ldr	r0, .L198+16
 2103 00f6 FFF7FEFF 		bl	assert_failed
 2104              	.LVL135:
 2105 00fa C8E7     		b	.L175
ARM GAS  /tmp/cc0e6U0t.s 			page 63


 2106              	.L195:
 835:Drivers/STM32F0xx_HAL_Driver/Src/stm32f0xx_hal_rcc.c ****       {
 2107              		.loc 1 835 7 is_stmt 1 view .LVU540
 835:Drivers/STM32F0xx_HAL_Driver/Src/stm32f0xx_hal_rcc.c ****       {
 2108              		.loc 1 835 10 is_stmt 0 view .LVU541
 2109 00fc 2C4A     		ldr	r2, .L198+4
 2110 00fe 1268     		ldr	r2, [r2]
 835:Drivers/STM32F0xx_HAL_Driver/Src/stm32f0xx_hal_rcc.c ****       {
 2111              		.loc 1 835 9 view .LVU542
 2112 0100 9203     		lsls	r2, r2, #14
 2113 0102 CED4     		bmi	.L177
 837:Drivers/STM32F0xx_HAL_Driver/Src/stm32f0xx_hal_rcc.c ****       }
 2114              		.loc 1 837 16 view .LVU543
 2115 0104 0120     		movs	r0, #1
 2116 0106 42E0     		b	.L167
 2117              	.L196:
 844:Drivers/STM32F0xx_HAL_Driver/Src/stm32f0xx_hal_rcc.c ****       {
 2118              		.loc 1 844 7 is_stmt 1 view .LVU544
 844:Drivers/STM32F0xx_HAL_Driver/Src/stm32f0xx_hal_rcc.c ****       {
 2119              		.loc 1 844 10 is_stmt 0 view .LVU545
 2120 0108 294A     		ldr	r2, .L198+4
 2121 010a 1268     		ldr	r2, [r2]
 844:Drivers/STM32F0xx_HAL_Driver/Src/stm32f0xx_hal_rcc.c ****       {
 2122              		.loc 1 844 9 view .LVU546
 2123 010c 9201     		lsls	r2, r2, #6
 2124 010e C8D4     		bmi	.L177
 846:Drivers/STM32F0xx_HAL_Driver/Src/stm32f0xx_hal_rcc.c ****       }
 2125              		.loc 1 846 16 view .LVU547
 2126 0110 0120     		movs	r0, #1
 2127 0112 3CE0     		b	.L167
 2128              	.L174:
 884:Drivers/STM32F0xx_HAL_Driver/Src/stm32f0xx_hal_rcc.c ****   {    
 2129              		.loc 1 884 3 is_stmt 1 view .LVU548
 884:Drivers/STM32F0xx_HAL_Driver/Src/stm32f0xx_hal_rcc.c ****   {    
 2130              		.loc 1 884 17 is_stmt 0 view .LVU549
 2131 0114 254B     		ldr	r3, .L198
 2132 0116 1A68     		ldr	r2, [r3]
 2133 0118 0123     		movs	r3, #1
 2134 011a 1340     		ands	r3, r2
 884:Drivers/STM32F0xx_HAL_Driver/Src/stm32f0xx_hal_rcc.c ****   {    
 2135              		.loc 1 884 5 view .LVU550
 2136 011c AB42     		cmp	r3, r5
 2137 011e 09D9     		bls	.L181
 887:Drivers/STM32F0xx_HAL_Driver/Src/stm32f0xx_hal_rcc.c ****     
 2138              		.loc 1 887 5 is_stmt 1 view .LVU551
 2139 0120 2249     		ldr	r1, .L198
 2140 0122 0B68     		ldr	r3, [r1]
 2141 0124 0122     		movs	r2, #1
 2142 0126 9343     		bics	r3, r2
 2143 0128 2B43     		orrs	r3, r5
 2144 012a 0B60     		str	r3, [r1]
 891:Drivers/STM32F0xx_HAL_Driver/Src/stm32f0xx_hal_rcc.c ****     {
 2145              		.loc 1 891 5 view .LVU552
 891:Drivers/STM32F0xx_HAL_Driver/Src/stm32f0xx_hal_rcc.c ****     {
 2146              		.loc 1 891 8 is_stmt 0 view .LVU553
 2147 012c 0B68     		ldr	r3, [r1]
 2148 012e 1A40     		ands	r2, r3
ARM GAS  /tmp/cc0e6U0t.s 			page 64


 891:Drivers/STM32F0xx_HAL_Driver/Src/stm32f0xx_hal_rcc.c ****     {
 2149              		.loc 1 891 7 view .LVU554
 2150 0130 AA42     		cmp	r2, r5
 2151 0132 39D1     		bne	.L190
 2152              	.L181:
 898:Drivers/STM32F0xx_HAL_Driver/Src/stm32f0xx_hal_rcc.c ****   {
 2153              		.loc 1 898 3 is_stmt 1 view .LVU555
 898:Drivers/STM32F0xx_HAL_Driver/Src/stm32f0xx_hal_rcc.c ****   {
 2154              		.loc 1 898 5 is_stmt 0 view .LVU556
 2155 0134 2368     		ldr	r3, [r4]
 2156 0136 5B07     		lsls	r3, r3, #29
 2157 0138 19D5     		bpl	.L182
 900:Drivers/STM32F0xx_HAL_Driver/Src/stm32f0xx_hal_rcc.c ****     MODIFY_REG(RCC->CFGR, RCC_CFGR_PPRE, RCC_ClkInitStruct->APB1CLKDivider);
 2158              		.loc 1 900 5 is_stmt 1 view .LVU557
 2159 013a E368     		ldr	r3, [r4, #12]
 2160 013c 002B     		cmp	r3, #0
 2161 013e 0FD0     		beq	.L183
 900:Drivers/STM32F0xx_HAL_Driver/Src/stm32f0xx_hal_rcc.c ****     MODIFY_REG(RCC->CFGR, RCC_CFGR_PPRE, RCC_ClkInitStruct->APB1CLKDivider);
 2162              		.loc 1 900 5 is_stmt 0 discriminator 1 view .LVU558
 2163 0140 8022     		movs	r2, #128
 2164 0142 D200     		lsls	r2, r2, #3
 2165 0144 9342     		cmp	r3, r2
 2166 0146 0BD0     		beq	.L183
 900:Drivers/STM32F0xx_HAL_Driver/Src/stm32f0xx_hal_rcc.c ****     MODIFY_REG(RCC->CFGR, RCC_CFGR_PPRE, RCC_ClkInitStruct->APB1CLKDivider);
 2167              		.loc 1 900 5 discriminator 2 view .LVU559
 2168 0148 0132     		adds	r2, r2, #1
 2169 014a FF32     		adds	r2, r2, #255
 2170 014c 9342     		cmp	r3, r2
 2171 014e 07D0     		beq	.L183
 900:Drivers/STM32F0xx_HAL_Driver/Src/stm32f0xx_hal_rcc.c ****     MODIFY_REG(RCC->CFGR, RCC_CFGR_PPRE, RCC_ClkInitStruct->APB1CLKDivider);
 2172              		.loc 1 900 5 discriminator 3 view .LVU560
 2173 0150 0132     		adds	r2, r2, #1
 2174 0152 FF32     		adds	r2, r2, #255
 2175 0154 9342     		cmp	r3, r2
 2176 0156 03D0     		beq	.L183
 900:Drivers/STM32F0xx_HAL_Driver/Src/stm32f0xx_hal_rcc.c ****     MODIFY_REG(RCC->CFGR, RCC_CFGR_PPRE, RCC_ClkInitStruct->APB1CLKDivider);
 2177              		.loc 1 900 5 discriminator 4 view .LVU561
 2178 0158 0132     		adds	r2, r2, #1
 2179 015a FF32     		adds	r2, r2, #255
 2180 015c 9342     		cmp	r3, r2
 2181 015e 17D1     		bne	.L197
 2182              	.L183:
 901:Drivers/STM32F0xx_HAL_Driver/Src/stm32f0xx_hal_rcc.c ****   }
 2183              		.loc 1 901 5 is_stmt 1 view .LVU562
 2184 0160 134A     		ldr	r2, .L198+4
 2185 0162 5368     		ldr	r3, [r2, #4]
 2186 0164 1949     		ldr	r1, .L198+32
 2187 0166 0B40     		ands	r3, r1
 2188 0168 E168     		ldr	r1, [r4, #12]
 2189 016a 0B43     		orrs	r3, r1
 2190 016c 5360     		str	r3, [r2, #4]
 2191              	.L182:
 905:Drivers/STM32F0xx_HAL_Driver/Src/stm32f0xx_hal_rcc.c **** 
 2192              		.loc 1 905 3 view .LVU563
 905:Drivers/STM32F0xx_HAL_Driver/Src/stm32f0xx_hal_rcc.c **** 
 2193              		.loc 1 905 21 is_stmt 0 view .LVU564
 2194 016e FFF7FEFF 		bl	HAL_RCC_GetSysClockFreq
ARM GAS  /tmp/cc0e6U0t.s 			page 65


 2195              	.LVL136:
 905:Drivers/STM32F0xx_HAL_Driver/Src/stm32f0xx_hal_rcc.c **** 
 2196              		.loc 1 905 68 view .LVU565
 2197 0172 0F4B     		ldr	r3, .L198+4
 2198 0174 5A68     		ldr	r2, [r3, #4]
 905:Drivers/STM32F0xx_HAL_Driver/Src/stm32f0xx_hal_rcc.c **** 
 2199              		.loc 1 905 91 view .LVU566
 2200 0176 1209     		lsrs	r2, r2, #4
 2201 0178 0F23     		movs	r3, #15
 2202 017a 1340     		ands	r3, r2
 905:Drivers/STM32F0xx_HAL_Driver/Src/stm32f0xx_hal_rcc.c **** 
 2203              		.loc 1 905 63 view .LVU567
 2204 017c 144A     		ldr	r2, .L198+36
 2205 017e D35C     		ldrb	r3, [r2, r3]
 905:Drivers/STM32F0xx_HAL_Driver/Src/stm32f0xx_hal_rcc.c **** 
 2206              		.loc 1 905 47 view .LVU568
 2207 0180 D840     		lsrs	r0, r0, r3
 905:Drivers/STM32F0xx_HAL_Driver/Src/stm32f0xx_hal_rcc.c **** 
 2208              		.loc 1 905 19 view .LVU569
 2209 0182 144B     		ldr	r3, .L198+40
 2210 0184 1860     		str	r0, [r3]
 908:Drivers/STM32F0xx_HAL_Driver/Src/stm32f0xx_hal_rcc.c ****   
 2211              		.loc 1 908 3 is_stmt 1 view .LVU570
 2212 0186 0320     		movs	r0, #3
 2213 0188 FFF7FEFF 		bl	HAL_InitTick
 2214              	.LVL137:
 910:Drivers/STM32F0xx_HAL_Driver/Src/stm32f0xx_hal_rcc.c **** }
 2215              		.loc 1 910 3 view .LVU571
 910:Drivers/STM32F0xx_HAL_Driver/Src/stm32f0xx_hal_rcc.c **** }
 2216              		.loc 1 910 10 is_stmt 0 view .LVU572
 2217 018c 0020     		movs	r0, #0
 2218              	.L167:
 911:Drivers/STM32F0xx_HAL_Driver/Src/stm32f0xx_hal_rcc.c **** 
 2219              		.loc 1 911 1 view .LVU573
 2220              		@ sp needed
 2221              	.LVL138:
 2222              	.LVL139:
 911:Drivers/STM32F0xx_HAL_Driver/Src/stm32f0xx_hal_rcc.c **** 
 2223              		.loc 1 911 1 view .LVU574
 2224 018e 70BD     		pop	{r4, r5, r6, pc}
 2225              	.LVL140:
 2226              	.L197:
 900:Drivers/STM32F0xx_HAL_Driver/Src/stm32f0xx_hal_rcc.c ****     MODIFY_REG(RCC->CFGR, RCC_CFGR_PPRE, RCC_ClkInitStruct->APB1CLKDivider);
 2227              		.loc 1 900 5 discriminator 5 view .LVU575
 2228 0190 E121     		movs	r1, #225
 2229 0192 8900     		lsls	r1, r1, #2
 2230 0194 0948     		ldr	r0, .L198+16
 2231 0196 FFF7FEFF 		bl	assert_failed
 2232              	.LVL141:
 2233 019a E1E7     		b	.L183
 2234              	.LVL142:
 2235              	.L184:
 786:Drivers/STM32F0xx_HAL_Driver/Src/stm32f0xx_hal_rcc.c ****   }
 2236              		.loc 1 786 12 view .LVU576
 2237 019c 0120     		movs	r0, #1
 2238              	.LVL143:
 786:Drivers/STM32F0xx_HAL_Driver/Src/stm32f0xx_hal_rcc.c ****   }
ARM GAS  /tmp/cc0e6U0t.s 			page 66


 2239              		.loc 1 786 12 view .LVU577
 2240 019e F6E7     		b	.L167
 2241              	.LVL144:
 2242              	.L185:
 807:Drivers/STM32F0xx_HAL_Driver/Src/stm32f0xx_hal_rcc.c ****     }
 2243              		.loc 1 807 14 view .LVU578
 2244 01a0 0120     		movs	r0, #1
 2245 01a2 F4E7     		b	.L167
 2246              	.L188:
 866:Drivers/STM32F0xx_HAL_Driver/Src/stm32f0xx_hal_rcc.c ****       }
 2247              		.loc 1 866 16 view .LVU579
 2248 01a4 0120     		movs	r0, #1
 2249 01a6 F2E7     		b	.L167
 2250              	.L190:
 893:Drivers/STM32F0xx_HAL_Driver/Src/stm32f0xx_hal_rcc.c ****     }
 2251              		.loc 1 893 14 view .LVU580
 2252 01a8 0120     		movs	r0, #1
 2253 01aa F0E7     		b	.L167
 2254              	.L199:
 2255              		.align	2
 2256              	.L198:
 2257 01ac 00200240 		.word	1073881088
 2258 01b0 00100240 		.word	1073876992
 2259 01b4 88130000 		.word	5000
 2260 01b8 16030000 		.word	790
 2261 01bc 00000000 		.word	.LC2
 2262 01c0 17030000 		.word	791
 2263 01c4 36030000 		.word	822
 2264 01c8 3D030000 		.word	829
 2265 01cc FFF8FFFF 		.word	-1793
 2266 01d0 00000000 		.word	AHBPrescTable
 2267 01d4 00000000 		.word	SystemCoreClock
 2268              		.cfi_endproc
 2269              	.LFE42:
 2271              		.section	.text.HAL_RCC_GetHCLKFreq,"ax",%progbits
 2272              		.align	1
 2273              		.global	HAL_RCC_GetHCLKFreq
 2274              		.syntax unified
 2275              		.code	16
 2276              		.thumb_func
 2278              	HAL_RCC_GetHCLKFreq:
 2279              	.LFB47:
1162:Drivers/STM32F0xx_HAL_Driver/Src/stm32f0xx_hal_rcc.c **** 
1163:Drivers/STM32F0xx_HAL_Driver/Src/stm32f0xx_hal_rcc.c **** /**
1164:Drivers/STM32F0xx_HAL_Driver/Src/stm32f0xx_hal_rcc.c ****   * @brief  Returns the HCLK frequency     
1165:Drivers/STM32F0xx_HAL_Driver/Src/stm32f0xx_hal_rcc.c ****   * @note   Each time HCLK changes, this function must be called to update the
1166:Drivers/STM32F0xx_HAL_Driver/Src/stm32f0xx_hal_rcc.c ****   *         right HCLK value. Otherwise, any configuration based on this function will be incorrect
1167:Drivers/STM32F0xx_HAL_Driver/Src/stm32f0xx_hal_rcc.c ****   * 
1168:Drivers/STM32F0xx_HAL_Driver/Src/stm32f0xx_hal_rcc.c ****   * @note   The SystemCoreClock CMSIS variable is used to store System Clock Frequency 
1169:Drivers/STM32F0xx_HAL_Driver/Src/stm32f0xx_hal_rcc.c ****   *         and updated within this function
1170:Drivers/STM32F0xx_HAL_Driver/Src/stm32f0xx_hal_rcc.c ****   * @retval HCLK frequency
1171:Drivers/STM32F0xx_HAL_Driver/Src/stm32f0xx_hal_rcc.c ****   */
1172:Drivers/STM32F0xx_HAL_Driver/Src/stm32f0xx_hal_rcc.c **** uint32_t HAL_RCC_GetHCLKFreq(void)
1173:Drivers/STM32F0xx_HAL_Driver/Src/stm32f0xx_hal_rcc.c **** {
 2280              		.loc 1 1173 1 is_stmt 1 view -0
 2281              		.cfi_startproc
 2282              		@ args = 0, pretend = 0, frame = 0
ARM GAS  /tmp/cc0e6U0t.s 			page 67


 2283              		@ frame_needed = 0, uses_anonymous_args = 0
 2284              		@ link register save eliminated.
1174:Drivers/STM32F0xx_HAL_Driver/Src/stm32f0xx_hal_rcc.c ****   return SystemCoreClock;
 2285              		.loc 1 1174 3 view .LVU582
 2286              		.loc 1 1174 10 is_stmt 0 view .LVU583
 2287 0000 014B     		ldr	r3, .L201
 2288 0002 1868     		ldr	r0, [r3]
1175:Drivers/STM32F0xx_HAL_Driver/Src/stm32f0xx_hal_rcc.c **** }
 2289              		.loc 1 1175 1 view .LVU584
 2290              		@ sp needed
 2291 0004 7047     		bx	lr
 2292              	.L202:
 2293 0006 C046     		.align	2
 2294              	.L201:
 2295 0008 00000000 		.word	SystemCoreClock
 2296              		.cfi_endproc
 2297              	.LFE47:
 2299              		.section	.text.HAL_RCC_GetPCLK1Freq,"ax",%progbits
 2300              		.align	1
 2301              		.global	HAL_RCC_GetPCLK1Freq
 2302              		.syntax unified
 2303              		.code	16
 2304              		.thumb_func
 2306              	HAL_RCC_GetPCLK1Freq:
 2307              	.LFB48:
1176:Drivers/STM32F0xx_HAL_Driver/Src/stm32f0xx_hal_rcc.c **** 
1177:Drivers/STM32F0xx_HAL_Driver/Src/stm32f0xx_hal_rcc.c **** /**
1178:Drivers/STM32F0xx_HAL_Driver/Src/stm32f0xx_hal_rcc.c ****   * @brief  Returns the PCLK1 frequency     
1179:Drivers/STM32F0xx_HAL_Driver/Src/stm32f0xx_hal_rcc.c ****   * @note   Each time PCLK1 changes, this function must be called to update the
1180:Drivers/STM32F0xx_HAL_Driver/Src/stm32f0xx_hal_rcc.c ****   *         right PCLK1 value. Otherwise, any configuration based on this function will be incorrec
1181:Drivers/STM32F0xx_HAL_Driver/Src/stm32f0xx_hal_rcc.c ****   * @retval PCLK1 frequency
1182:Drivers/STM32F0xx_HAL_Driver/Src/stm32f0xx_hal_rcc.c ****   */
1183:Drivers/STM32F0xx_HAL_Driver/Src/stm32f0xx_hal_rcc.c **** uint32_t HAL_RCC_GetPCLK1Freq(void)
1184:Drivers/STM32F0xx_HAL_Driver/Src/stm32f0xx_hal_rcc.c **** {
 2308              		.loc 1 1184 1 is_stmt 1 view -0
 2309              		.cfi_startproc
 2310              		@ args = 0, pretend = 0, frame = 0
 2311              		@ frame_needed = 0, uses_anonymous_args = 0
 2312 0000 10B5     		push	{r4, lr}
 2313              	.LCFI8:
 2314              		.cfi_def_cfa_offset 8
 2315              		.cfi_offset 4, -8
 2316              		.cfi_offset 14, -4
1185:Drivers/STM32F0xx_HAL_Driver/Src/stm32f0xx_hal_rcc.c ****   /* Get HCLK source and Compute PCLK1 frequency ---------------------------*/
1186:Drivers/STM32F0xx_HAL_Driver/Src/stm32f0xx_hal_rcc.c ****   return (HAL_RCC_GetHCLKFreq() >> APBPrescTable[(RCC->CFGR & RCC_CFGR_PPRE) >> RCC_CFGR_PPRE_BITNU
 2317              		.loc 1 1186 3 view .LVU586
 2318              		.loc 1 1186 11 is_stmt 0 view .LVU587
 2319 0002 FFF7FEFF 		bl	HAL_RCC_GetHCLKFreq
 2320              	.LVL145:
 2321              		.loc 1 1186 54 view .LVU588
 2322 0006 044B     		ldr	r3, .L204
 2323 0008 5A68     		ldr	r2, [r3, #4]
 2324              		.loc 1 1186 78 view .LVU589
 2325 000a 120A     		lsrs	r2, r2, #8
 2326 000c 0723     		movs	r3, #7
 2327 000e 1340     		ands	r3, r2
 2328              		.loc 1 1186 49 view .LVU590
ARM GAS  /tmp/cc0e6U0t.s 			page 68


 2329 0010 024A     		ldr	r2, .L204+4
 2330 0012 D35C     		ldrb	r3, [r2, r3]
 2331              		.loc 1 1186 33 view .LVU591
 2332 0014 D840     		lsrs	r0, r0, r3
1187:Drivers/STM32F0xx_HAL_Driver/Src/stm32f0xx_hal_rcc.c **** }    
 2333              		.loc 1 1187 1 view .LVU592
 2334              		@ sp needed
 2335 0016 10BD     		pop	{r4, pc}
 2336              	.L205:
 2337              		.align	2
 2338              	.L204:
 2339 0018 00100240 		.word	1073876992
 2340 001c 00000000 		.word	APBPrescTable
 2341              		.cfi_endproc
 2342              	.LFE48:
 2344              		.section	.text.HAL_RCC_GetOscConfig,"ax",%progbits
 2345              		.align	1
 2346              		.global	HAL_RCC_GetOscConfig
 2347              		.syntax unified
 2348              		.code	16
 2349              		.thumb_func
 2351              	HAL_RCC_GetOscConfig:
 2352              	.LVL146:
 2353              	.LFB49:
1188:Drivers/STM32F0xx_HAL_Driver/Src/stm32f0xx_hal_rcc.c **** 
1189:Drivers/STM32F0xx_HAL_Driver/Src/stm32f0xx_hal_rcc.c **** /**
1190:Drivers/STM32F0xx_HAL_Driver/Src/stm32f0xx_hal_rcc.c ****   * @brief  Configures the RCC_OscInitStruct according to the internal 
1191:Drivers/STM32F0xx_HAL_Driver/Src/stm32f0xx_hal_rcc.c ****   * RCC configuration registers.
1192:Drivers/STM32F0xx_HAL_Driver/Src/stm32f0xx_hal_rcc.c ****   * @param  RCC_OscInitStruct pointer to an RCC_OscInitTypeDef structure that 
1193:Drivers/STM32F0xx_HAL_Driver/Src/stm32f0xx_hal_rcc.c ****   * will be configured.
1194:Drivers/STM32F0xx_HAL_Driver/Src/stm32f0xx_hal_rcc.c ****   * @retval None
1195:Drivers/STM32F0xx_HAL_Driver/Src/stm32f0xx_hal_rcc.c ****   */
1196:Drivers/STM32F0xx_HAL_Driver/Src/stm32f0xx_hal_rcc.c **** void HAL_RCC_GetOscConfig(RCC_OscInitTypeDef  *RCC_OscInitStruct)
1197:Drivers/STM32F0xx_HAL_Driver/Src/stm32f0xx_hal_rcc.c **** {
 2354              		.loc 1 1197 1 is_stmt 1 view -0
 2355              		.cfi_startproc
 2356              		@ args = 0, pretend = 0, frame = 0
 2357              		@ frame_needed = 0, uses_anonymous_args = 0
 2358              		.loc 1 1197 1 is_stmt 0 view .LVU594
 2359 0000 10B5     		push	{r4, lr}
 2360              	.LCFI9:
 2361              		.cfi_def_cfa_offset 8
 2362              		.cfi_offset 4, -8
 2363              		.cfi_offset 14, -4
 2364 0002 041E     		subs	r4, r0, #0
1198:Drivers/STM32F0xx_HAL_Driver/Src/stm32f0xx_hal_rcc.c ****   /* Check the parameters */
1199:Drivers/STM32F0xx_HAL_Driver/Src/stm32f0xx_hal_rcc.c ****   assert_param(RCC_OscInitStruct != NULL);
 2365              		.loc 1 1199 3 is_stmt 1 view .LVU595
 2366 0004 3FD0     		beq	.L222
 2367              	.LVL147:
 2368              	.L207:
1200:Drivers/STM32F0xx_HAL_Driver/Src/stm32f0xx_hal_rcc.c **** 
1201:Drivers/STM32F0xx_HAL_Driver/Src/stm32f0xx_hal_rcc.c ****   /* Set all possible values for the Oscillator type parameter ---------------*/
1202:Drivers/STM32F0xx_HAL_Driver/Src/stm32f0xx_hal_rcc.c ****   RCC_OscInitStruct->OscillatorType = RCC_OSCILLATORTYPE_HSE | RCC_OSCILLATORTYPE_HSI  \
 2369              		.loc 1 1202 3 view .LVU596
 2370              		.loc 1 1202 37 is_stmt 0 view .LVU597
 2371 0006 1F23     		movs	r3, #31
ARM GAS  /tmp/cc0e6U0t.s 			page 69


 2372 0008 2360     		str	r3, [r4]
1203:Drivers/STM32F0xx_HAL_Driver/Src/stm32f0xx_hal_rcc.c ****                   | RCC_OSCILLATORTYPE_LSE | RCC_OSCILLATORTYPE_LSI | RCC_OSCILLATORTYPE_HSI14;
1204:Drivers/STM32F0xx_HAL_Driver/Src/stm32f0xx_hal_rcc.c **** #if defined(RCC_HSI48_SUPPORT)
1205:Drivers/STM32F0xx_HAL_Driver/Src/stm32f0xx_hal_rcc.c ****   RCC_OscInitStruct->OscillatorType |= RCC_OSCILLATORTYPE_HSI48;
1206:Drivers/STM32F0xx_HAL_Driver/Src/stm32f0xx_hal_rcc.c **** #endif /* RCC_HSI48_SUPPORT */
1207:Drivers/STM32F0xx_HAL_Driver/Src/stm32f0xx_hal_rcc.c **** 
1208:Drivers/STM32F0xx_HAL_Driver/Src/stm32f0xx_hal_rcc.c **** 
1209:Drivers/STM32F0xx_HAL_Driver/Src/stm32f0xx_hal_rcc.c ****   /* Get the HSE configuration -----------------------------------------------*/
1210:Drivers/STM32F0xx_HAL_Driver/Src/stm32f0xx_hal_rcc.c ****   if((RCC->CR &RCC_CR_HSEBYP) == RCC_CR_HSEBYP)
 2373              		.loc 1 1210 3 is_stmt 1 view .LVU598
 2374              		.loc 1 1210 10 is_stmt 0 view .LVU599
 2375 000a 314B     		ldr	r3, .L223
 2376 000c 1B68     		ldr	r3, [r3]
 2377              		.loc 1 1210 5 view .LVU600
 2378 000e 5B03     		lsls	r3, r3, #13
 2379 0010 3ED5     		bpl	.L208
1211:Drivers/STM32F0xx_HAL_Driver/Src/stm32f0xx_hal_rcc.c ****   {
1212:Drivers/STM32F0xx_HAL_Driver/Src/stm32f0xx_hal_rcc.c ****     RCC_OscInitStruct->HSEState = RCC_HSE_BYPASS;
 2380              		.loc 1 1212 5 is_stmt 1 view .LVU601
 2381              		.loc 1 1212 33 is_stmt 0 view .LVU602
 2382 0012 0523     		movs	r3, #5
 2383 0014 6360     		str	r3, [r4, #4]
 2384              	.L209:
1213:Drivers/STM32F0xx_HAL_Driver/Src/stm32f0xx_hal_rcc.c ****   }
1214:Drivers/STM32F0xx_HAL_Driver/Src/stm32f0xx_hal_rcc.c ****   else if((RCC->CR &RCC_CR_HSEON) == RCC_CR_HSEON)
1215:Drivers/STM32F0xx_HAL_Driver/Src/stm32f0xx_hal_rcc.c ****   {
1216:Drivers/STM32F0xx_HAL_Driver/Src/stm32f0xx_hal_rcc.c ****     RCC_OscInitStruct->HSEState = RCC_HSE_ON;
1217:Drivers/STM32F0xx_HAL_Driver/Src/stm32f0xx_hal_rcc.c ****   }
1218:Drivers/STM32F0xx_HAL_Driver/Src/stm32f0xx_hal_rcc.c ****   else
1219:Drivers/STM32F0xx_HAL_Driver/Src/stm32f0xx_hal_rcc.c ****   {
1220:Drivers/STM32F0xx_HAL_Driver/Src/stm32f0xx_hal_rcc.c ****     RCC_OscInitStruct->HSEState = RCC_HSE_OFF;
1221:Drivers/STM32F0xx_HAL_Driver/Src/stm32f0xx_hal_rcc.c ****   }
1222:Drivers/STM32F0xx_HAL_Driver/Src/stm32f0xx_hal_rcc.c **** 
1223:Drivers/STM32F0xx_HAL_Driver/Src/stm32f0xx_hal_rcc.c ****   /* Get the HSI configuration -----------------------------------------------*/
1224:Drivers/STM32F0xx_HAL_Driver/Src/stm32f0xx_hal_rcc.c ****   if((RCC->CR &RCC_CR_HSION) == RCC_CR_HSION)
 2385              		.loc 1 1224 3 is_stmt 1 view .LVU603
 2386              		.loc 1 1224 10 is_stmt 0 view .LVU604
 2387 0016 2E4B     		ldr	r3, .L223
 2388 0018 1B68     		ldr	r3, [r3]
 2389              		.loc 1 1224 5 view .LVU605
 2390 001a DB07     		lsls	r3, r3, #31
 2391 001c 42D5     		bpl	.L211
1225:Drivers/STM32F0xx_HAL_Driver/Src/stm32f0xx_hal_rcc.c ****   {
1226:Drivers/STM32F0xx_HAL_Driver/Src/stm32f0xx_hal_rcc.c ****     RCC_OscInitStruct->HSIState = RCC_HSI_ON;
 2392              		.loc 1 1226 5 is_stmt 1 view .LVU606
 2393              		.loc 1 1226 33 is_stmt 0 view .LVU607
 2394 001e 0123     		movs	r3, #1
 2395 0020 E360     		str	r3, [r4, #12]
 2396              	.L212:
1227:Drivers/STM32F0xx_HAL_Driver/Src/stm32f0xx_hal_rcc.c ****   }
1228:Drivers/STM32F0xx_HAL_Driver/Src/stm32f0xx_hal_rcc.c ****   else
1229:Drivers/STM32F0xx_HAL_Driver/Src/stm32f0xx_hal_rcc.c ****   {
1230:Drivers/STM32F0xx_HAL_Driver/Src/stm32f0xx_hal_rcc.c ****     RCC_OscInitStruct->HSIState = RCC_HSI_OFF;
1231:Drivers/STM32F0xx_HAL_Driver/Src/stm32f0xx_hal_rcc.c ****   }
1232:Drivers/STM32F0xx_HAL_Driver/Src/stm32f0xx_hal_rcc.c ****   
1233:Drivers/STM32F0xx_HAL_Driver/Src/stm32f0xx_hal_rcc.c ****   RCC_OscInitStruct->HSICalibrationValue = (uint32_t)((RCC->CR &RCC_CR_HSITRIM) >> RCC_CR_HSITRIM_B
 2397              		.loc 1 1233 3 is_stmt 1 view .LVU608
ARM GAS  /tmp/cc0e6U0t.s 			page 70


 2398              		.loc 1 1233 59 is_stmt 0 view .LVU609
 2399 0022 2B49     		ldr	r1, .L223
 2400 0024 0A68     		ldr	r2, [r1]
 2401              		.loc 1 1233 44 view .LVU610
 2402 0026 D208     		lsrs	r2, r2, #3
 2403 0028 1F23     		movs	r3, #31
 2404 002a 1340     		ands	r3, r2
 2405              		.loc 1 1233 42 view .LVU611
 2406 002c 2361     		str	r3, [r4, #16]
1234:Drivers/STM32F0xx_HAL_Driver/Src/stm32f0xx_hal_rcc.c ****   
1235:Drivers/STM32F0xx_HAL_Driver/Src/stm32f0xx_hal_rcc.c ****   /* Get the LSE configuration -----------------------------------------------*/
1236:Drivers/STM32F0xx_HAL_Driver/Src/stm32f0xx_hal_rcc.c ****   if((RCC->BDCR &RCC_BDCR_LSEBYP) == RCC_BDCR_LSEBYP)
 2407              		.loc 1 1236 3 is_stmt 1 view .LVU612
 2408              		.loc 1 1236 10 is_stmt 0 view .LVU613
 2409 002e 0B6A     		ldr	r3, [r1, #32]
 2410              		.loc 1 1236 5 view .LVU614
 2411 0030 5B07     		lsls	r3, r3, #29
 2412 0032 3AD5     		bpl	.L213
1237:Drivers/STM32F0xx_HAL_Driver/Src/stm32f0xx_hal_rcc.c ****   {
1238:Drivers/STM32F0xx_HAL_Driver/Src/stm32f0xx_hal_rcc.c ****     RCC_OscInitStruct->LSEState = RCC_LSE_BYPASS;
 2413              		.loc 1 1238 5 is_stmt 1 view .LVU615
 2414              		.loc 1 1238 33 is_stmt 0 view .LVU616
 2415 0034 0523     		movs	r3, #5
 2416 0036 A360     		str	r3, [r4, #8]
 2417              	.L214:
1239:Drivers/STM32F0xx_HAL_Driver/Src/stm32f0xx_hal_rcc.c ****   }
1240:Drivers/STM32F0xx_HAL_Driver/Src/stm32f0xx_hal_rcc.c ****   else if((RCC->BDCR &RCC_BDCR_LSEON) == RCC_BDCR_LSEON)
1241:Drivers/STM32F0xx_HAL_Driver/Src/stm32f0xx_hal_rcc.c ****   {
1242:Drivers/STM32F0xx_HAL_Driver/Src/stm32f0xx_hal_rcc.c ****     RCC_OscInitStruct->LSEState = RCC_LSE_ON;
1243:Drivers/STM32F0xx_HAL_Driver/Src/stm32f0xx_hal_rcc.c ****   }
1244:Drivers/STM32F0xx_HAL_Driver/Src/stm32f0xx_hal_rcc.c ****   else
1245:Drivers/STM32F0xx_HAL_Driver/Src/stm32f0xx_hal_rcc.c ****   {
1246:Drivers/STM32F0xx_HAL_Driver/Src/stm32f0xx_hal_rcc.c ****     RCC_OscInitStruct->LSEState = RCC_LSE_OFF;
1247:Drivers/STM32F0xx_HAL_Driver/Src/stm32f0xx_hal_rcc.c ****   }
1248:Drivers/STM32F0xx_HAL_Driver/Src/stm32f0xx_hal_rcc.c ****   
1249:Drivers/STM32F0xx_HAL_Driver/Src/stm32f0xx_hal_rcc.c ****   /* Get the LSI configuration -----------------------------------------------*/
1250:Drivers/STM32F0xx_HAL_Driver/Src/stm32f0xx_hal_rcc.c ****   if((RCC->CSR &RCC_CSR_LSION) == RCC_CSR_LSION)
 2418              		.loc 1 1250 3 is_stmt 1 view .LVU617
 2419              		.loc 1 1250 10 is_stmt 0 view .LVU618
 2420 0038 254B     		ldr	r3, .L223
 2421 003a 5B6A     		ldr	r3, [r3, #36]
 2422              		.loc 1 1250 5 view .LVU619
 2423 003c DB07     		lsls	r3, r3, #31
 2424 003e 3ED5     		bpl	.L216
1251:Drivers/STM32F0xx_HAL_Driver/Src/stm32f0xx_hal_rcc.c ****   {
1252:Drivers/STM32F0xx_HAL_Driver/Src/stm32f0xx_hal_rcc.c ****     RCC_OscInitStruct->LSIState = RCC_LSI_ON;
 2425              		.loc 1 1252 5 is_stmt 1 view .LVU620
 2426              		.loc 1 1252 33 is_stmt 0 view .LVU621
 2427 0040 0123     		movs	r3, #1
 2428 0042 E361     		str	r3, [r4, #28]
 2429              	.L217:
1253:Drivers/STM32F0xx_HAL_Driver/Src/stm32f0xx_hal_rcc.c ****   }
1254:Drivers/STM32F0xx_HAL_Driver/Src/stm32f0xx_hal_rcc.c ****   else
1255:Drivers/STM32F0xx_HAL_Driver/Src/stm32f0xx_hal_rcc.c ****   {
1256:Drivers/STM32F0xx_HAL_Driver/Src/stm32f0xx_hal_rcc.c ****     RCC_OscInitStruct->LSIState = RCC_LSI_OFF;
1257:Drivers/STM32F0xx_HAL_Driver/Src/stm32f0xx_hal_rcc.c ****   }
1258:Drivers/STM32F0xx_HAL_Driver/Src/stm32f0xx_hal_rcc.c ****   
ARM GAS  /tmp/cc0e6U0t.s 			page 71


1259:Drivers/STM32F0xx_HAL_Driver/Src/stm32f0xx_hal_rcc.c ****   /* Get the HSI14 configuration -----------------------------------------------*/
1260:Drivers/STM32F0xx_HAL_Driver/Src/stm32f0xx_hal_rcc.c ****   if((RCC->CR2 & RCC_CR2_HSI14ON) == RCC_CR2_HSI14ON)
 2430              		.loc 1 1260 3 is_stmt 1 view .LVU622
 2431              		.loc 1 1260 10 is_stmt 0 view .LVU623
 2432 0044 224B     		ldr	r3, .L223
 2433 0046 5B6B     		ldr	r3, [r3, #52]
 2434              		.loc 1 1260 5 view .LVU624
 2435 0048 DB07     		lsls	r3, r3, #31
 2436 004a 3BD5     		bpl	.L218
1261:Drivers/STM32F0xx_HAL_Driver/Src/stm32f0xx_hal_rcc.c ****   {
1262:Drivers/STM32F0xx_HAL_Driver/Src/stm32f0xx_hal_rcc.c ****     RCC_OscInitStruct->HSI14State = RCC_HSI_ON;
 2437              		.loc 1 1262 5 is_stmt 1 view .LVU625
 2438              		.loc 1 1262 35 is_stmt 0 view .LVU626
 2439 004c 0123     		movs	r3, #1
 2440 004e 6361     		str	r3, [r4, #20]
 2441              	.L219:
1263:Drivers/STM32F0xx_HAL_Driver/Src/stm32f0xx_hal_rcc.c ****   }
1264:Drivers/STM32F0xx_HAL_Driver/Src/stm32f0xx_hal_rcc.c ****   else
1265:Drivers/STM32F0xx_HAL_Driver/Src/stm32f0xx_hal_rcc.c ****   {
1266:Drivers/STM32F0xx_HAL_Driver/Src/stm32f0xx_hal_rcc.c ****     RCC_OscInitStruct->HSI14State = RCC_HSI_OFF;
1267:Drivers/STM32F0xx_HAL_Driver/Src/stm32f0xx_hal_rcc.c ****   }
1268:Drivers/STM32F0xx_HAL_Driver/Src/stm32f0xx_hal_rcc.c **** 
