ARM GAS  /tmp/ccMsiaRR.s 			page 1


   1              		.cpu cortex-m0
   2              		.arch armv6s-m
   3              		.fpu softvfp
   4              		.eabi_attribute 20, 1
   5              		.eabi_attribute 21, 1
   6              		.eabi_attribute 23, 3
   7              		.eabi_attribute 24, 1
   8              		.eabi_attribute 25, 1
   9              		.eabi_attribute 26, 1
  10              		.eabi_attribute 30, 1
  11              		.eabi_attribute 34, 0
  12              		.eabi_attribute 18, 4
  13              		.file	"stm32f0xx_it.c"
  14              		.text
  15              	.Ltext0:
  16              		.cfi_sections	.debug_frame
  17              		.section	.text.NMI_Handler,"ax",%progbits
  18              		.align	1
  19              		.global	NMI_Handler
  20              		.syntax unified
  21              		.code	16
  22              		.thumb_func
  24              	NMI_Handler:
  25              	.LFB247:
  26              		.file 1 "Core/Src/stm32f0xx_it.c"
   1:Core/Src/stm32f0xx_it.c **** /* USER CODE BEGIN Header */
   2:Core/Src/stm32f0xx_it.c **** /**
   3:Core/Src/stm32f0xx_it.c ****   ******************************************************************************
   4:Core/Src/stm32f0xx_it.c ****   * @file    stm32f0xx_it.c
   5:Core/Src/stm32f0xx_it.c ****   * @brief   Interrupt Service Routines.
   6:Core/Src/stm32f0xx_it.c ****   ******************************************************************************
   7:Core/Src/stm32f0xx_it.c ****   * @attention
   8:Core/Src/stm32f0xx_it.c ****   *
   9:Core/Src/stm32f0xx_it.c ****   * Copyright (c) 2022 STMicroelectronics.
  10:Core/Src/stm32f0xx_it.c ****   * All rights reserved.
  11:Core/Src/stm32f0xx_it.c ****   *
  12:Core/Src/stm32f0xx_it.c ****   * This software is licensed under terms that can be found in the LICENSE file
  13:Core/Src/stm32f0xx_it.c ****   * in the root directory of this software component.
  14:Core/Src/stm32f0xx_it.c ****   * If no LICENSE file comes with this software, it is provided AS-IS.
  15:Core/Src/stm32f0xx_it.c ****   *
  16:Core/Src/stm32f0xx_it.c ****   ******************************************************************************
  17:Core/Src/stm32f0xx_it.c ****   */
  18:Core/Src/stm32f0xx_it.c **** /* USER CODE END Header */
  19:Core/Src/stm32f0xx_it.c **** 
  20:Core/Src/stm32f0xx_it.c **** /* Includes ------------------------------------------------------------------*/
  21:Core/Src/stm32f0xx_it.c **** #include "main.h"
  22:Core/Src/stm32f0xx_it.c **** #include "stm32f0xx_it.h"
  23:Core/Src/stm32f0xx_it.c **** /* Private includes ----------------------------------------------------------*/
  24:Core/Src/stm32f0xx_it.c **** /* USER CODE BEGIN Includes */
  25:Core/Src/stm32f0xx_it.c **** #include "servo.h"
  26:Core/Src/stm32f0xx_it.c **** #include "squeaker.h"
  27:Core/Src/stm32f0xx_it.c **** #include "stdlib.h"
  28:Core/Src/stm32f0xx_it.c **** #include "quaternion_lib.h"
  29:Core/Src/stm32f0xx_it.c **** #include "giro_driver.h"
  30:Core/Src/stm32f0xx_it.c **** 
  31:Core/Src/stm32f0xx_it.c **** #include "stm32f0xx_ll_rcc.h"
  32:Core/Src/stm32f0xx_it.c **** #include "stm32f0xx_ll_system.h"
ARM GAS  /tmp/ccMsiaRR.s 			page 2


  33:Core/Src/stm32f0xx_it.c **** #include "stm32f0xx_ll_bus.h"
  34:Core/Src/stm32f0xx_it.c **** #include "stm32f0xx_ll_gpio.h"
  35:Core/Src/stm32f0xx_it.c **** #include "stm32f0xx_ll_exti.h"
  36:Core/Src/stm32f0xx_it.c **** #include "stm32f0xx_ll_utils.h"
  37:Core/Src/stm32f0xx_it.c **** #include "stm32f0xx_ll_cortex.h"
  38:Core/Src/stm32f0xx_it.c **** 
  39:Core/Src/stm32f0xx_it.c **** extern I2C_HandleTypeDef hi2c1;
  40:Core/Src/stm32f0xx_it.c **** 
  41:Core/Src/stm32f0xx_it.c **** extern TIM_HandleTypeDef htim1;
  42:Core/Src/stm32f0xx_it.c **** extern TIM_HandleTypeDef htim2;
  43:Core/Src/stm32f0xx_it.c **** 
  44:Core/Src/stm32f0xx_it.c **** extern int8_t button_status ;
  45:Core/Src/stm32f0xx_it.c **** 
  46:Core/Src/stm32f0xx_it.c **** extern uint64_t button_delay_counter ;
  47:Core/Src/stm32f0xx_it.c **** 
  48:Core/Src/stm32f0xx_it.c **** extern uint16_t number ;
  49:Core/Src/stm32f0xx_it.c **** 
  50:Core/Src/stm32f0xx_it.c **** extern const uint64_t sis_tik_frik;
  51:Core/Src/stm32f0xx_it.c **** 
  52:Core/Src/stm32f0xx_it.c **** vector front = {1, 0, 0};
  53:Core/Src/stm32f0xx_it.c **** vector right = {0, 1, 0};
  54:Core/Src/stm32f0xx_it.c **** 
  55:Core/Src/stm32f0xx_it.c **** u_int8_t mode = 1;
  56:Core/Src/stm32f0xx_it.c **** 
  57:Core/Src/stm32f0xx_it.c **** #define LOCK_MODE 1
  58:Core/Src/stm32f0xx_it.c **** #define UNLOCK_MODE 1 << 1
  59:Core/Src/stm32f0xx_it.c **** 
  60:Core/Src/stm32f0xx_it.c **** #define BUTTON_DELAY 1
  61:Core/Src/stm32f0xx_it.c **** 
  62:Core/Src/stm32f0xx_it.c **** #define BUTTON_PUSH 1
  63:Core/Src/stm32f0xx_it.c **** 
  64:Core/Src/stm32f0xx_it.c **** #define BUTTON_PUSHED 1 << 1
  65:Core/Src/stm32f0xx_it.c **** 
  66:Core/Src/stm32f0xx_it.c **** #define BUTTON_UNPUSHED 1 << 2
  67:Core/Src/stm32f0xx_it.c **** /* USER CODE END Includes */
  68:Core/Src/stm32f0xx_it.c **** 
  69:Core/Src/stm32f0xx_it.c **** /* Private typedef -----------------------------------------------------------*/
  70:Core/Src/stm32f0xx_it.c **** /* USER CODE BEGIN TD */
  71:Core/Src/stm32f0xx_it.c **** 
  72:Core/Src/stm32f0xx_it.c **** /* USER CODE END TD */
  73:Core/Src/stm32f0xx_it.c **** 
  74:Core/Src/stm32f0xx_it.c **** /* Private define ------------------------------------------------------------*/
  75:Core/Src/stm32f0xx_it.c **** /* USER CODE BEGIN PD */
  76:Core/Src/stm32f0xx_it.c **** 
  77:Core/Src/stm32f0xx_it.c **** /* USER CODE END PD */
  78:Core/Src/stm32f0xx_it.c **** 
  79:Core/Src/stm32f0xx_it.c **** /* Private macro -------------------------------------------------------------*/
  80:Core/Src/stm32f0xx_it.c **** /* USER CODE BEGIN PM */
  81:Core/Src/stm32f0xx_it.c **** 
  82:Core/Src/stm32f0xx_it.c **** /* USER CODE END PM */
  83:Core/Src/stm32f0xx_it.c **** 
  84:Core/Src/stm32f0xx_it.c **** /* Private variables ---------------------------------------------------------*/
  85:Core/Src/stm32f0xx_it.c **** /* USER CODE BEGIN PV */
  86:Core/Src/stm32f0xx_it.c **** 
  87:Core/Src/stm32f0xx_it.c **** /* USER CODE END PV */
  88:Core/Src/stm32f0xx_it.c **** 
  89:Core/Src/stm32f0xx_it.c **** /* Private function prototypes -----------------------------------------------*/
ARM GAS  /tmp/ccMsiaRR.s 			page 3


  90:Core/Src/stm32f0xx_it.c **** /* USER CODE BEGIN PFP */
  91:Core/Src/stm32f0xx_it.c **** 
  92:Core/Src/stm32f0xx_it.c **** /* USER CODE END PFP */
  93:Core/Src/stm32f0xx_it.c **** 
  94:Core/Src/stm32f0xx_it.c **** /* Private user code ---------------------------------------------------------*/
  95:Core/Src/stm32f0xx_it.c **** /* USER CODE BEGIN 0 */
  96:Core/Src/stm32f0xx_it.c **** 
  97:Core/Src/stm32f0xx_it.c **** /* USER CODE END 0 */
  98:Core/Src/stm32f0xx_it.c **** 
  99:Core/Src/stm32f0xx_it.c **** /* External variables --------------------------------------------------------*/
 100:Core/Src/stm32f0xx_it.c **** 
 101:Core/Src/stm32f0xx_it.c **** /* USER CODE BEGIN EV */
 102:Core/Src/stm32f0xx_it.c **** 
 103:Core/Src/stm32f0xx_it.c **** /* USER CODE END EV */
 104:Core/Src/stm32f0xx_it.c **** 
 105:Core/Src/stm32f0xx_it.c **** /******************************************************************************/
 106:Core/Src/stm32f0xx_it.c **** /*           Cortex-M0 Processor Interruption and Exception Handlers          */
 107:Core/Src/stm32f0xx_it.c **** /******************************************************************************/
 108:Core/Src/stm32f0xx_it.c **** /**
 109:Core/Src/stm32f0xx_it.c ****   * @brief This function handles Non maskable interrupt.
 110:Core/Src/stm32f0xx_it.c ****   */
 111:Core/Src/stm32f0xx_it.c **** void NMI_Handler(void)
 112:Core/Src/stm32f0xx_it.c **** {
  27              		.loc 1 112 1 view -0
  28              		.cfi_startproc
  29              		@ Volatile: function does not return.
  30              		@ args = 0, pretend = 0, frame = 0
  31              		@ frame_needed = 0, uses_anonymous_args = 0
  32              		@ link register save eliminated.
  33              	.L2:
 113:Core/Src/stm32f0xx_it.c ****   /* USER CODE BEGIN NonMaskableInt_IRQn 0 */
 114:Core/Src/stm32f0xx_it.c **** 
 115:Core/Src/stm32f0xx_it.c ****   /* USER CODE END NonMaskableInt_IRQn 0 */
 116:Core/Src/stm32f0xx_it.c ****   /* USER CODE BEGIN NonMaskableInt_IRQn 1 */
 117:Core/Src/stm32f0xx_it.c ****   while (1)
  34              		.loc 1 117 3 discriminator 1 view .LVU1
 118:Core/Src/stm32f0xx_it.c ****   {
 119:Core/Src/stm32f0xx_it.c ****   }
  35              		.loc 1 119 3 discriminator 1 view .LVU2
 117:Core/Src/stm32f0xx_it.c ****   {
  36              		.loc 1 117 9 discriminator 1 view .LVU3
  37 0000 FEE7     		b	.L2
  38              		.cfi_endproc
  39              	.LFE247:
  41              		.section	.text.HardFault_Handler,"ax",%progbits
  42              		.align	1
  43              		.global	HardFault_Handler
  44              		.syntax unified
  45              		.code	16
  46              		.thumb_func
  48              	HardFault_Handler:
  49              	.LFB248:
 120:Core/Src/stm32f0xx_it.c ****   /* USER CODE END NonMaskableInt_IRQn 1 */
 121:Core/Src/stm32f0xx_it.c **** }
 122:Core/Src/stm32f0xx_it.c **** 
 123:Core/Src/stm32f0xx_it.c **** /**
 124:Core/Src/stm32f0xx_it.c ****   * @brief This function handles Hard fault interrupt.
ARM GAS  /tmp/ccMsiaRR.s 			page 4


 125:Core/Src/stm32f0xx_it.c ****   */
 126:Core/Src/stm32f0xx_it.c **** void HardFault_Handler(void)
 127:Core/Src/stm32f0xx_it.c **** {
  50              		.loc 1 127 1 view -0
  51              		.cfi_startproc
  52              		@ Volatile: function does not return.
  53              		@ args = 0, pretend = 0, frame = 0
  54              		@ frame_needed = 0, uses_anonymous_args = 0
  55              		@ link register save eliminated.
  56              	.L4:
 128:Core/Src/stm32f0xx_it.c ****   /* USER CODE BEGIN HardFault_IRQn 0 */
 129:Core/Src/stm32f0xx_it.c **** 
 130:Core/Src/stm32f0xx_it.c ****   /* USER CODE END HardFault_IRQn 0 */
 131:Core/Src/stm32f0xx_it.c ****   while (1)
  57              		.loc 1 131 3 discriminator 1 view .LVU5
 132:Core/Src/stm32f0xx_it.c ****   {
 133:Core/Src/stm32f0xx_it.c ****     /* USER CODE BEGIN W1_HardFault_IRQn 0 */
 134:Core/Src/stm32f0xx_it.c ****     /* USER CODE END W1_HardFault_IRQn 0 */
 135:Core/Src/stm32f0xx_it.c ****   }
  58              		.loc 1 135 3 discriminator 1 view .LVU6
 131:Core/Src/stm32f0xx_it.c ****   {
  59              		.loc 1 131 9 discriminator 1 view .LVU7
  60 0000 FEE7     		b	.L4
  61              		.cfi_endproc
  62              	.LFE248:
  64              		.section	.text.SVC_Handler,"ax",%progbits
  65              		.align	1
  66              		.global	SVC_Handler
  67              		.syntax unified
  68              		.code	16
  69              		.thumb_func
  71              	SVC_Handler:
  72              	.LFB249:
 136:Core/Src/stm32f0xx_it.c **** }
 137:Core/Src/stm32f0xx_it.c **** 
 138:Core/Src/stm32f0xx_it.c **** /**
 139:Core/Src/stm32f0xx_it.c ****   * @brief This function handles System service call via SWI instruction.
 140:Core/Src/stm32f0xx_it.c ****   */
 141:Core/Src/stm32f0xx_it.c **** void SVC_Handler(void)
 142:Core/Src/stm32f0xx_it.c **** {
  73              		.loc 1 142 1 view -0
  74              		.cfi_startproc
  75              		@ args = 0, pretend = 0, frame = 0
  76              		@ frame_needed = 0, uses_anonymous_args = 0
  77              		@ link register save eliminated.
 143:Core/Src/stm32f0xx_it.c ****   /* USER CODE BEGIN SVC_IRQn 0 */
 144:Core/Src/stm32f0xx_it.c **** 
 145:Core/Src/stm32f0xx_it.c ****   /* USER CODE END SVC_IRQn 0 */
 146:Core/Src/stm32f0xx_it.c ****   /* USER CODE BEGIN SVC_IRQn 1 */
 147:Core/Src/stm32f0xx_it.c **** 
 148:Core/Src/stm32f0xx_it.c ****   /* USER CODE END SVC_IRQn 1 */
 149:Core/Src/stm32f0xx_it.c **** }
  78              		.loc 1 149 1 view .LVU9
  79              		@ sp needed
  80 0000 7047     		bx	lr
  81              		.cfi_endproc
  82              	.LFE249:
ARM GAS  /tmp/ccMsiaRR.s 			page 5


  84              		.section	.text.PendSV_Handler,"ax",%progbits
  85              		.align	1
  86              		.global	PendSV_Handler
  87              		.syntax unified
  88              		.code	16
  89              		.thumb_func
  91              	PendSV_Handler:
  92              	.LFB250:
 150:Core/Src/stm32f0xx_it.c **** 
 151:Core/Src/stm32f0xx_it.c **** /**
 152:Core/Src/stm32f0xx_it.c ****   * @brief This function handles Pendable request for system service.
 153:Core/Src/stm32f0xx_it.c ****   */
 154:Core/Src/stm32f0xx_it.c **** void PendSV_Handler(void)
 155:Core/Src/stm32f0xx_it.c **** {
  93              		.loc 1 155 1 view -0
  94              		.cfi_startproc
  95              		@ args = 0, pretend = 0, frame = 0
  96              		@ frame_needed = 0, uses_anonymous_args = 0
  97              		@ link register save eliminated.
 156:Core/Src/stm32f0xx_it.c ****   /* USER CODE BEGIN PendSV_IRQn 0 */
 157:Core/Src/stm32f0xx_it.c **** 
 158:Core/Src/stm32f0xx_it.c ****   /* USER CODE END PendSV_IRQn 0 */
 159:Core/Src/stm32f0xx_it.c ****   /* USER CODE BEGIN PendSV_IRQn 1 */
 160:Core/Src/stm32f0xx_it.c **** 
 161:Core/Src/stm32f0xx_it.c ****   /* USER CODE END PendSV_IRQn 1 */
 162:Core/Src/stm32f0xx_it.c **** }
  98              		.loc 1 162 1 view .LVU11
  99              		@ sp needed
 100 0000 7047     		bx	lr
 101              		.cfi_endproc
 102              	.LFE250:
 104              		.global	__aeabi_dmul
 105              		.global	__aeabi_ddiv
 106              		.global	__aeabi_dsub
 107              		.global	__aeabi_d2iz
 108              		.global	__aeabi_i2d
 109              		.global	__aeabi_dcmpgt
 110              		.global	__aeabi_dcmplt
 111              		.section	.text.SysTick_Handler,"ax",%progbits
 112              		.align	1
 113              		.global	SysTick_Handler
 114              		.syntax unified
 115              		.code	16
 116              		.thumb_func
 118              	SysTick_Handler:
 119              	.LFB251:
 163:Core/Src/stm32f0xx_it.c **** 
 164:Core/Src/stm32f0xx_it.c **** /**
 165:Core/Src/stm32f0xx_it.c ****   * @brief This function handles System tick timer.
 166:Core/Src/stm32f0xx_it.c ****   */
 167:Core/Src/stm32f0xx_it.c **** void SysTick_Handler(void)
 168:Core/Src/stm32f0xx_it.c **** {
 120              		.loc 1 168 1 view -0
 121              		.cfi_startproc
 122              		@ args = 0, pretend = 0, frame = 144
 123              		@ frame_needed = 0, uses_anonymous_args = 0
 124 0000 F0B5     		push	{r4, r5, r6, r7, lr}
ARM GAS  /tmp/ccMsiaRR.s 			page 6


 125              	.LCFI0:
 126              		.cfi_def_cfa_offset 20
 127              		.cfi_offset 4, -20
 128              		.cfi_offset 5, -16
 129              		.cfi_offset 6, -12
 130              		.cfi_offset 7, -8
 131              		.cfi_offset 14, -4
 132 0002 D646     		mov	lr, r10
 133 0004 4746     		mov	r7, r8
 134 0006 80B5     		push	{r7, lr}
 135              	.LCFI1:
 136              		.cfi_def_cfa_offset 28
 137              		.cfi_offset 8, -28
 138              		.cfi_offset 10, -24
 139 0008 AFB0     		sub	sp, sp, #188
 140              	.LCFI2:
 141              		.cfi_def_cfa_offset 216
 169:Core/Src/stm32f0xx_it.c ****   
 170:Core/Src/stm32f0xx_it.c ****   double phi = 0;
 142              		.loc 1 170 3 view .LVU13
 143              		.loc 1 170 10 is_stmt 0 view .LVU14
 144 000a 0022     		movs	r2, #0
 145 000c 0023     		movs	r3, #0
 146 000e 2C92     		str	r2, [sp, #176]
 147 0010 2D93     		str	r3, [sp, #180]
 171:Core/Src/stm32f0xx_it.c ****   double psi = 0;
 148              		.loc 1 171 3 is_stmt 1 view .LVU15
 149              		.loc 1 171 10 is_stmt 0 view .LVU16
 150 0012 2A92     		str	r2, [sp, #168]
 151 0014 2B93     		str	r3, [sp, #172]
 172:Core/Src/stm32f0xx_it.c ****   double teta = 0;
 152              		.loc 1 172 3 is_stmt 1 view .LVU17
 153              		.loc 1 172 10 is_stmt 0 view .LVU18
 154 0016 2892     		str	r2, [sp, #160]
 155 0018 2993     		str	r3, [sp, #164]
 173:Core/Src/stm32f0xx_it.c ****   double dtime = 1/sis_tik_frik;
 156              		.loc 1 173 3 is_stmt 1 view .LVU19
 157              	.LVL0:
 174:Core/Src/stm32f0xx_it.c ****   
 175:Core/Src/stm32f0xx_it.c ****   /* USER CODE BEGIN SysTick_IRQn 0 */
 176:Core/Src/stm32f0xx_it.c **** 	if((button_status & BUTTON_PUSH) && (button_delay_counter < BUTTON_DELAY))
 158              		.loc 1 176 2 view .LVU20
 159              		.loc 1 176 20 is_stmt 0 view .LVU21
 160 001a B54B     		ldr	r3, .L24
 161 001c 0025     		movs	r5, #0
 162 001e 5D57     		ldrsb	r5, [r3, r5]
 163 0020 1B78     		ldrb	r3, [r3]
 164 0022 0122     		movs	r2, #1
 165 0024 1400     		movs	r4, r2
 166 0026 1C40     		ands	r4, r3
 167              		.loc 1 176 4 view .LVU22
 168 0028 1A42     		tst	r2, r3
 169 002a 1BD0     		beq	.L8
 170              		.loc 1 176 60 discriminator 1 view .LVU23
 171 002c B14A     		ldr	r2, .L24+4
 172 002e 1068     		ldr	r0, [r2]
 173 0030 5168     		ldr	r1, [r2, #4]
ARM GAS  /tmp/ccMsiaRR.s 			page 7


 174              		.loc 1 176 35 discriminator 1 view .LVU24
 175 0032 0200     		movs	r2, r0
 176 0034 0A43     		orrs	r2, r1
 177 0036 15D1     		bne	.L8
 177:Core/Src/stm32f0xx_it.c ****     {
 178:Core/Src/stm32f0xx_it.c ****         button_delay_counter++;
 178              		.loc 1 178 9 is_stmt 1 view .LVU25
 179              		.loc 1 178 29 is_stmt 0 view .LVU26
 180 0038 0122     		movs	r2, #1
 181 003a 0023     		movs	r3, #0
 182 003c 8018     		adds	r0, r0, r2
 183 003e 5941     		adcs	r1, r1, r3
 184 0040 AC4B     		ldr	r3, .L24+4
 185 0042 1860     		str	r0, [r3]
 186 0044 5960     		str	r1, [r3, #4]
 187              	.L9:
 179:Core/Src/stm32f0xx_it.c ****     }
 180:Core/Src/stm32f0xx_it.c **** 	else if(button_status & BUTTON_PUSH)
 181:Core/Src/stm32f0xx_it.c **** 	{
 182:Core/Src/stm32f0xx_it.c **** 		if(!LL_GPIO_IsInputPinSet(GPIOA, LL_GPIO_PIN_3))
 183:Core/Src/stm32f0xx_it.c **** 		{
 184:Core/Src/stm32f0xx_it.c **** 			if(!(button_status & BUTTON_PUSHED))
 185:Core/Src/stm32f0xx_it.c **** 			{
 186:Core/Src/stm32f0xx_it.c ****         if(mode == LOCK_MODE)
 187:Core/Src/stm32f0xx_it.c ****         {
 188:Core/Src/stm32f0xx_it.c ****           mode = UNLOCK_MODE;
 189:Core/Src/stm32f0xx_it.c ****         }
 190:Core/Src/stm32f0xx_it.c ****         else
 191:Core/Src/stm32f0xx_it.c ****         {
 192:Core/Src/stm32f0xx_it.c ****           mode = LOCK_MODE;
 193:Core/Src/stm32f0xx_it.c ****         }
 194:Core/Src/stm32f0xx_it.c **** 				button_status = button_status | BUTTON_PUSHED;
 195:Core/Src/stm32f0xx_it.c **** 			}
 196:Core/Src/stm32f0xx_it.c **** 		}
 197:Core/Src/stm32f0xx_it.c **** 		else
 198:Core/Src/stm32f0xx_it.c **** 		{
 199:Core/Src/stm32f0xx_it.c **** 			if(!(button_status & BUTTON_UNPUSHED))
 200:Core/Src/stm32f0xx_it.c **** 			{
 201:Core/Src/stm32f0xx_it.c **** 				//здесь пока тоже пусто)
 202:Core/Src/stm32f0xx_it.c **** 				button_status = button_status & (~(BUTTON_PUSH | BUTTON_PUSHED));
 203:Core/Src/stm32f0xx_it.c **** 				button_status = button_status | BUTTON_UNPUSHED;
 204:Core/Src/stm32f0xx_it.c **** 			}
 205:Core/Src/stm32f0xx_it.c **** 		}
 206:Core/Src/stm32f0xx_it.c **** 	}
 207:Core/Src/stm32f0xx_it.c **** 
 208:Core/Src/stm32f0xx_it.c **** #define POPRAVKA 0.005
 209:Core/Src/stm32f0xx_it.c **** 
 210:Core/Src/stm32f0xx_it.c ****   if(mode == LOCK_MODE)
 188              		.loc 1 210 3 is_stmt 1 view .LVU27
 189              		.loc 1 210 11 is_stmt 0 view .LVU28
 190 0046 AC4B     		ldr	r3, .L24+8
 191 0048 1B78     		ldrb	r3, [r3]
 192              		.loc 1 210 5 view .LVU29
 193 004a 012B     		cmp	r3, #1
 194 004c 2DD0     		beq	.L22
 211:Core/Src/stm32f0xx_it.c ****   {
 212:Core/Src/stm32f0xx_it.c ****     giro_read_angls(&hi2c1, &psi, &teta, &phi);
ARM GAS  /tmp/ccMsiaRR.s 			page 8


 213:Core/Src/stm32f0xx_it.c ****     squeaker_set_frik(&htim1, 4, 9000);
 214:Core/Src/stm32f0xx_it.c **** 
 215:Core/Src/stm32f0xx_it.c ****     uint16_t pin_mask = LL_GPIO_ReadOutputPort(GPIOC);
 216:Core/Src/stm32f0xx_it.c **** 		
 217:Core/Src/stm32f0xx_it.c **** 		pin_mask = pin_mask & (~(LL_GPIO_PIN_8 | LL_GPIO_PIN_9));
 218:Core/Src/stm32f0xx_it.c **** 
 219:Core/Src/stm32f0xx_it.c ****     double servo_rick = 0;
 220:Core/Src/stm32f0xx_it.c ****     double servo_tang = 0;
 221:Core/Src/stm32f0xx_it.c ****     double servo_kren = 0;
 222:Core/Src/stm32f0xx_it.c **** 
 223:Core/Src/stm32f0xx_it.c ****     psi = psi*POPRAVKA;
 224:Core/Src/stm32f0xx_it.c ****     teta = teta*POPRAVKA;  
 225:Core/Src/stm32f0xx_it.c ****     phi = phi*POPRAVKA;
 226:Core/Src/stm32f0xx_it.c **** 
 227:Core/Src/stm32f0xx_it.c ****     front = Rotate(front, psi, teta, phi);
 228:Core/Src/stm32f0xx_it.c ****     right = Rotate(right, psi, teta, phi);
 229:Core/Src/stm32f0xx_it.c ****     
 230:Core/Src/stm32f0xx_it.c ****     servo_rick = atan(front.y / front.x);
 231:Core/Src/stm32f0xx_it.c ****     servo_tang = asin(front.z);
 232:Core/Src/stm32f0xx_it.c ****     
 233:Core/Src/stm32f0xx_it.c ****     vector f_proec = {front.x, front.y, 0};
 234:Core/Src/stm32f0xx_it.c ****     vector r_proec = {right.x, right.y, 0};
 235:Core/Src/stm32f0xx_it.c **** 
 236:Core/Src/stm32f0xx_it.c ****     double rf_proec = Vector_Scalar_Mul(&f_proec, &r_proec);
 237:Core/Src/stm32f0xx_it.c ****     double f_len = Vector_Scalar_Mul(&f_proec, &f_proec);
 238:Core/Src/stm32f0xx_it.c **** 
 239:Core/Src/stm32f0xx_it.c ****     vector nr_proec = {r_proec.x - f_proec.x*rf_proec/f_len, r_proec.y - f_proec.y*rf_proec/f_len, 
 240:Core/Src/stm32f0xx_it.c **** 
 241:Core/Src/stm32f0xx_it.c ****     double nr_len = Vector_Scalar_Mul(&nr_proec, &nr_proec);
 242:Core/Src/stm32f0xx_it.c **** 
 243:Core/Src/stm32f0xx_it.c ****     servo_kren = (right.z/abs(right.z))*acos(sqrt(nr_len));
 244:Core/Src/stm32f0xx_it.c **** 
 245:Core/Src/stm32f0xx_it.c **** 
 246:Core/Src/stm32f0xx_it.c ****     set_3_servo(&htim2, /*servo_rick*/ + 3.14/2 , /*servo_tang*/ + 3.14/2, servo_kren);
 247:Core/Src/stm32f0xx_it.c **** 
 248:Core/Src/stm32f0xx_it.c ****     if(servo_tang > 0)
 249:Core/Src/stm32f0xx_it.c **** 		{
 250:Core/Src/stm32f0xx_it.c **** 			pin_mask = pin_mask | LL_GPIO_PIN_8;
 251:Core/Src/stm32f0xx_it.c **** 		}
 252:Core/Src/stm32f0xx_it.c **** 		else if (servo_tang < 0)
 253:Core/Src/stm32f0xx_it.c **** 		{
 254:Core/Src/stm32f0xx_it.c **** 			pin_mask = pin_mask | LL_GPIO_PIN_9;
 255:Core/Src/stm32f0xx_it.c **** 		}
 256:Core/Src/stm32f0xx_it.c ****     LL_GPIO_WriteOutputPort(GPIOC, pin_mask);
 257:Core/Src/stm32f0xx_it.c ****   }
 258:Core/Src/stm32f0xx_it.c ****   else
 259:Core/Src/stm32f0xx_it.c ****   {
 260:Core/Src/stm32f0xx_it.c ****     off_squeaker(&htim1, 4);
 195              		.loc 1 260 5 is_stmt 1 view .LVU30
 196 004e 0421     		movs	r1, #4
 197 0050 AA48     		ldr	r0, .L24+12
 198 0052 FFF7FEFF 		bl	off_squeaker
 199              	.LVL1:
 200              	.L18:
 261:Core/Src/stm32f0xx_it.c ****   }
 262:Core/Src/stm32f0xx_it.c ****   
 263:Core/Src/stm32f0xx_it.c ****   /* USER CODE END SysTick_IRQn 0 */
ARM GAS  /tmp/ccMsiaRR.s 			page 9


 264:Core/Src/stm32f0xx_it.c ****   HAL_IncTick();
 201              		.loc 1 264 3 view .LVU31
 202 0056 FFF7FEFF 		bl	HAL_IncTick
 203              	.LVL2:
 265:Core/Src/stm32f0xx_it.c ****   /* USER CODE BEGIN SysTick_IRQn 1 */
 266:Core/Src/stm32f0xx_it.c **** 
 267:Core/Src/stm32f0xx_it.c **** 
 268:Core/Src/stm32f0xx_it.c ****   /* USER CODE END SysTick_IRQn 1 */
 269:Core/Src/stm32f0xx_it.c **** }
 204              		.loc 1 269 1 is_stmt 0 view .LVU32
 205 005a 2FB0     		add	sp, sp, #188
 206              		@ sp needed
 207 005c C0BC     		pop	{r6, r7}
 208 005e BA46     		mov	r10, r7
 209 0060 B046     		mov	r8, r6
 210 0062 F0BD     		pop	{r4, r5, r6, r7, pc}
 211              	.L8:
 180:Core/Src/stm32f0xx_it.c **** 	{
 212              		.loc 1 180 7 is_stmt 1 view .LVU33
 180:Core/Src/stm32f0xx_it.c **** 	{
 213              		.loc 1 180 9 is_stmt 0 view .LVU34
 214 0064 002C     		cmp	r4, #0
 215 0066 EED0     		beq	.L9
 182:Core/Src/stm32f0xx_it.c **** 		{
 216              		.loc 1 182 3 is_stmt 1 view .LVU35
 217              	.LVL3:
 218              	.LBB9:
 219              	.LBI9:
 220              		.file 2 "Drivers/STM32F0xx_HAL_Driver/Inc/stm32f0xx_ll_gpio.h"
   1:Drivers/STM32F0xx_HAL_Driver/Inc/stm32f0xx_ll_gpio.h **** /**
   2:Drivers/STM32F0xx_HAL_Driver/Inc/stm32f0xx_ll_gpio.h ****   ******************************************************************************
   3:Drivers/STM32F0xx_HAL_Driver/Inc/stm32f0xx_ll_gpio.h ****   * @file    stm32f0xx_ll_gpio.h
   4:Drivers/STM32F0xx_HAL_Driver/Inc/stm32f0xx_ll_gpio.h ****   * @author  MCD Application Team
   5:Drivers/STM32F0xx_HAL_Driver/Inc/stm32f0xx_ll_gpio.h ****   * @brief   Header file of GPIO LL module.
   6:Drivers/STM32F0xx_HAL_Driver/Inc/stm32f0xx_ll_gpio.h ****   ******************************************************************************
   7:Drivers/STM32F0xx_HAL_Driver/Inc/stm32f0xx_ll_gpio.h ****   * @attention
   8:Drivers/STM32F0xx_HAL_Driver/Inc/stm32f0xx_ll_gpio.h ****   *
   9:Drivers/STM32F0xx_HAL_Driver/Inc/stm32f0xx_ll_gpio.h ****   * <h2><center>&copy; Copyright (c) 2016 STMicroelectronics.
  10:Drivers/STM32F0xx_HAL_Driver/Inc/stm32f0xx_ll_gpio.h ****   * All rights reserved.</center></h2>
  11:Drivers/STM32F0xx_HAL_Driver/Inc/stm32f0xx_ll_gpio.h ****   *
  12:Drivers/STM32F0xx_HAL_Driver/Inc/stm32f0xx_ll_gpio.h ****   * This software component is licensed by ST under BSD 3-Clause license,
  13:Drivers/STM32F0xx_HAL_Driver/Inc/stm32f0xx_ll_gpio.h ****   * the "License"; You may not use this file except in compliance with the
  14:Drivers/STM32F0xx_HAL_Driver/Inc/stm32f0xx_ll_gpio.h ****   * License. You may obtain a copy of the License at:
  15:Drivers/STM32F0xx_HAL_Driver/Inc/stm32f0xx_ll_gpio.h ****   *                        opensource.org/licenses/BSD-3-Clause
  16:Drivers/STM32F0xx_HAL_Driver/Inc/stm32f0xx_ll_gpio.h ****   *
  17:Drivers/STM32F0xx_HAL_Driver/Inc/stm32f0xx_ll_gpio.h ****   ******************************************************************************
  18:Drivers/STM32F0xx_HAL_Driver/Inc/stm32f0xx_ll_gpio.h ****   */
  19:Drivers/STM32F0xx_HAL_Driver/Inc/stm32f0xx_ll_gpio.h **** 
  20:Drivers/STM32F0xx_HAL_Driver/Inc/stm32f0xx_ll_gpio.h **** /* Define to prevent recursive inclusion -------------------------------------*/
  21:Drivers/STM32F0xx_HAL_Driver/Inc/stm32f0xx_ll_gpio.h **** #ifndef __STM32F0xx_LL_GPIO_H
  22:Drivers/STM32F0xx_HAL_Driver/Inc/stm32f0xx_ll_gpio.h **** #define __STM32F0xx_LL_GPIO_H
  23:Drivers/STM32F0xx_HAL_Driver/Inc/stm32f0xx_ll_gpio.h **** 
  24:Drivers/STM32F0xx_HAL_Driver/Inc/stm32f0xx_ll_gpio.h **** #ifdef __cplusplus
  25:Drivers/STM32F0xx_HAL_Driver/Inc/stm32f0xx_ll_gpio.h **** extern "C" {
  26:Drivers/STM32F0xx_HAL_Driver/Inc/stm32f0xx_ll_gpio.h **** #endif
  27:Drivers/STM32F0xx_HAL_Driver/Inc/stm32f0xx_ll_gpio.h **** 
  28:Drivers/STM32F0xx_HAL_Driver/Inc/stm32f0xx_ll_gpio.h **** /* Includes ------------------------------------------------------------------*/
ARM GAS  /tmp/ccMsiaRR.s 			page 10


  29:Drivers/STM32F0xx_HAL_Driver/Inc/stm32f0xx_ll_gpio.h **** #include "stm32f0xx.h"
  30:Drivers/STM32F0xx_HAL_Driver/Inc/stm32f0xx_ll_gpio.h **** 
  31:Drivers/STM32F0xx_HAL_Driver/Inc/stm32f0xx_ll_gpio.h **** /** @addtogroup STM32F0xx_LL_Driver
  32:Drivers/STM32F0xx_HAL_Driver/Inc/stm32f0xx_ll_gpio.h ****   * @{
  33:Drivers/STM32F0xx_HAL_Driver/Inc/stm32f0xx_ll_gpio.h ****   */
  34:Drivers/STM32F0xx_HAL_Driver/Inc/stm32f0xx_ll_gpio.h **** 
  35:Drivers/STM32F0xx_HAL_Driver/Inc/stm32f0xx_ll_gpio.h **** #if defined (GPIOA) || defined (GPIOB) || defined (GPIOC) || defined (GPIOD) || defined (GPIOE) || 
  36:Drivers/STM32F0xx_HAL_Driver/Inc/stm32f0xx_ll_gpio.h **** 
  37:Drivers/STM32F0xx_HAL_Driver/Inc/stm32f0xx_ll_gpio.h **** /** @defgroup GPIO_LL GPIO
  38:Drivers/STM32F0xx_HAL_Driver/Inc/stm32f0xx_ll_gpio.h ****   * @{
  39:Drivers/STM32F0xx_HAL_Driver/Inc/stm32f0xx_ll_gpio.h ****   */
  40:Drivers/STM32F0xx_HAL_Driver/Inc/stm32f0xx_ll_gpio.h **** 
  41:Drivers/STM32F0xx_HAL_Driver/Inc/stm32f0xx_ll_gpio.h **** /* Private types -------------------------------------------------------------*/
  42:Drivers/STM32F0xx_HAL_Driver/Inc/stm32f0xx_ll_gpio.h **** /* Private variables ---------------------------------------------------------*/
  43:Drivers/STM32F0xx_HAL_Driver/Inc/stm32f0xx_ll_gpio.h **** /* Private constants ---------------------------------------------------------*/
  44:Drivers/STM32F0xx_HAL_Driver/Inc/stm32f0xx_ll_gpio.h **** /* Private macros ------------------------------------------------------------*/
  45:Drivers/STM32F0xx_HAL_Driver/Inc/stm32f0xx_ll_gpio.h **** #if defined(USE_FULL_LL_DRIVER)
  46:Drivers/STM32F0xx_HAL_Driver/Inc/stm32f0xx_ll_gpio.h **** /** @defgroup GPIO_LL_Private_Macros GPIO Private Macros
  47:Drivers/STM32F0xx_HAL_Driver/Inc/stm32f0xx_ll_gpio.h ****   * @{
  48:Drivers/STM32F0xx_HAL_Driver/Inc/stm32f0xx_ll_gpio.h ****   */
  49:Drivers/STM32F0xx_HAL_Driver/Inc/stm32f0xx_ll_gpio.h **** 
  50:Drivers/STM32F0xx_HAL_Driver/Inc/stm32f0xx_ll_gpio.h **** /**
  51:Drivers/STM32F0xx_HAL_Driver/Inc/stm32f0xx_ll_gpio.h ****   * @}
  52:Drivers/STM32F0xx_HAL_Driver/Inc/stm32f0xx_ll_gpio.h ****   */
  53:Drivers/STM32F0xx_HAL_Driver/Inc/stm32f0xx_ll_gpio.h **** #endif /*USE_FULL_LL_DRIVER*/
  54:Drivers/STM32F0xx_HAL_Driver/Inc/stm32f0xx_ll_gpio.h **** 
  55:Drivers/STM32F0xx_HAL_Driver/Inc/stm32f0xx_ll_gpio.h **** /* Exported types ------------------------------------------------------------*/
  56:Drivers/STM32F0xx_HAL_Driver/Inc/stm32f0xx_ll_gpio.h **** #if defined(USE_FULL_LL_DRIVER)
  57:Drivers/STM32F0xx_HAL_Driver/Inc/stm32f0xx_ll_gpio.h **** /** @defgroup GPIO_LL_ES_INIT GPIO Exported Init structures
  58:Drivers/STM32F0xx_HAL_Driver/Inc/stm32f0xx_ll_gpio.h ****   * @{
  59:Drivers/STM32F0xx_HAL_Driver/Inc/stm32f0xx_ll_gpio.h ****   */
  60:Drivers/STM32F0xx_HAL_Driver/Inc/stm32f0xx_ll_gpio.h **** 
  61:Drivers/STM32F0xx_HAL_Driver/Inc/stm32f0xx_ll_gpio.h **** /**
  62:Drivers/STM32F0xx_HAL_Driver/Inc/stm32f0xx_ll_gpio.h ****   * @brief LL GPIO Init Structure definition
  63:Drivers/STM32F0xx_HAL_Driver/Inc/stm32f0xx_ll_gpio.h ****   */
  64:Drivers/STM32F0xx_HAL_Driver/Inc/stm32f0xx_ll_gpio.h **** typedef struct
  65:Drivers/STM32F0xx_HAL_Driver/Inc/stm32f0xx_ll_gpio.h **** {
  66:Drivers/STM32F0xx_HAL_Driver/Inc/stm32f0xx_ll_gpio.h ****   uint32_t Pin;          /*!< Specifies the GPIO pins to be configured.
  67:Drivers/STM32F0xx_HAL_Driver/Inc/stm32f0xx_ll_gpio.h ****                               This parameter can be any value of @ref GPIO_LL_EC_PIN */
  68:Drivers/STM32F0xx_HAL_Driver/Inc/stm32f0xx_ll_gpio.h **** 
  69:Drivers/STM32F0xx_HAL_Driver/Inc/stm32f0xx_ll_gpio.h ****   uint32_t Mode;         /*!< Specifies the operating mode for the selected pins.
  70:Drivers/STM32F0xx_HAL_Driver/Inc/stm32f0xx_ll_gpio.h ****                               This parameter can be a value of @ref GPIO_LL_EC_MODE.
  71:Drivers/STM32F0xx_HAL_Driver/Inc/stm32f0xx_ll_gpio.h **** 
  72:Drivers/STM32F0xx_HAL_Driver/Inc/stm32f0xx_ll_gpio.h ****                               GPIO HW configuration can be modified afterwards using unitary functi
  73:Drivers/STM32F0xx_HAL_Driver/Inc/stm32f0xx_ll_gpio.h **** 
  74:Drivers/STM32F0xx_HAL_Driver/Inc/stm32f0xx_ll_gpio.h ****   uint32_t Speed;        /*!< Specifies the speed for the selected pins.
  75:Drivers/STM32F0xx_HAL_Driver/Inc/stm32f0xx_ll_gpio.h ****                               This parameter can be a value of @ref GPIO_LL_EC_SPEED.
  76:Drivers/STM32F0xx_HAL_Driver/Inc/stm32f0xx_ll_gpio.h **** 
  77:Drivers/STM32F0xx_HAL_Driver/Inc/stm32f0xx_ll_gpio.h ****                               GPIO HW configuration can be modified afterwards using unitary functi
  78:Drivers/STM32F0xx_HAL_Driver/Inc/stm32f0xx_ll_gpio.h **** 
  79:Drivers/STM32F0xx_HAL_Driver/Inc/stm32f0xx_ll_gpio.h ****   uint32_t OutputType;   /*!< Specifies the operating output type for the selected pins.
  80:Drivers/STM32F0xx_HAL_Driver/Inc/stm32f0xx_ll_gpio.h ****                               This parameter can be a value of @ref GPIO_LL_EC_OUTPUT.
  81:Drivers/STM32F0xx_HAL_Driver/Inc/stm32f0xx_ll_gpio.h **** 
  82:Drivers/STM32F0xx_HAL_Driver/Inc/stm32f0xx_ll_gpio.h ****                               GPIO HW configuration can be modified afterwards using unitary functi
  83:Drivers/STM32F0xx_HAL_Driver/Inc/stm32f0xx_ll_gpio.h **** 
  84:Drivers/STM32F0xx_HAL_Driver/Inc/stm32f0xx_ll_gpio.h ****   uint32_t Pull;         /*!< Specifies the operating Pull-up/Pull down for the selected pins.
  85:Drivers/STM32F0xx_HAL_Driver/Inc/stm32f0xx_ll_gpio.h ****                               This parameter can be a value of @ref GPIO_LL_EC_PULL.
ARM GAS  /tmp/ccMsiaRR.s 			page 11


  86:Drivers/STM32F0xx_HAL_Driver/Inc/stm32f0xx_ll_gpio.h **** 
  87:Drivers/STM32F0xx_HAL_Driver/Inc/stm32f0xx_ll_gpio.h ****                               GPIO HW configuration can be modified afterwards using unitary functi
  88:Drivers/STM32F0xx_HAL_Driver/Inc/stm32f0xx_ll_gpio.h **** 
  89:Drivers/STM32F0xx_HAL_Driver/Inc/stm32f0xx_ll_gpio.h ****   uint32_t Alternate;    /*!< Specifies the Peripheral to be connected to the selected pins.
  90:Drivers/STM32F0xx_HAL_Driver/Inc/stm32f0xx_ll_gpio.h ****                               This parameter can be a value of @ref GPIO_LL_EC_AF.
  91:Drivers/STM32F0xx_HAL_Driver/Inc/stm32f0xx_ll_gpio.h **** 
  92:Drivers/STM32F0xx_HAL_Driver/Inc/stm32f0xx_ll_gpio.h ****                               GPIO HW configuration can be modified afterwards using unitary functi
  93:Drivers/STM32F0xx_HAL_Driver/Inc/stm32f0xx_ll_gpio.h **** } LL_GPIO_InitTypeDef;
  94:Drivers/STM32F0xx_HAL_Driver/Inc/stm32f0xx_ll_gpio.h **** 
  95:Drivers/STM32F0xx_HAL_Driver/Inc/stm32f0xx_ll_gpio.h **** /**
  96:Drivers/STM32F0xx_HAL_Driver/Inc/stm32f0xx_ll_gpio.h ****   * @}
  97:Drivers/STM32F0xx_HAL_Driver/Inc/stm32f0xx_ll_gpio.h ****   */
  98:Drivers/STM32F0xx_HAL_Driver/Inc/stm32f0xx_ll_gpio.h **** #endif /* USE_FULL_LL_DRIVER */
  99:Drivers/STM32F0xx_HAL_Driver/Inc/stm32f0xx_ll_gpio.h **** 
 100:Drivers/STM32F0xx_HAL_Driver/Inc/stm32f0xx_ll_gpio.h **** /* Exported constants --------------------------------------------------------*/
 101:Drivers/STM32F0xx_HAL_Driver/Inc/stm32f0xx_ll_gpio.h **** /** @defgroup GPIO_LL_Exported_Constants GPIO Exported Constants
 102:Drivers/STM32F0xx_HAL_Driver/Inc/stm32f0xx_ll_gpio.h ****   * @{
 103:Drivers/STM32F0xx_HAL_Driver/Inc/stm32f0xx_ll_gpio.h ****   */
 104:Drivers/STM32F0xx_HAL_Driver/Inc/stm32f0xx_ll_gpio.h **** 
 105:Drivers/STM32F0xx_HAL_Driver/Inc/stm32f0xx_ll_gpio.h **** /** @defgroup GPIO_LL_EC_PIN PIN
 106:Drivers/STM32F0xx_HAL_Driver/Inc/stm32f0xx_ll_gpio.h ****   * @{
 107:Drivers/STM32F0xx_HAL_Driver/Inc/stm32f0xx_ll_gpio.h ****   */
 108:Drivers/STM32F0xx_HAL_Driver/Inc/stm32f0xx_ll_gpio.h **** #define LL_GPIO_PIN_0                      GPIO_BSRR_BS_0 /*!< Select pin 0 */
 109:Drivers/STM32F0xx_HAL_Driver/Inc/stm32f0xx_ll_gpio.h **** #define LL_GPIO_PIN_1                      GPIO_BSRR_BS_1 /*!< Select pin 1 */
 110:Drivers/STM32F0xx_HAL_Driver/Inc/stm32f0xx_ll_gpio.h **** #define LL_GPIO_PIN_2                      GPIO_BSRR_BS_2 /*!< Select pin 2 */
 111:Drivers/STM32F0xx_HAL_Driver/Inc/stm32f0xx_ll_gpio.h **** #define LL_GPIO_PIN_3                      GPIO_BSRR_BS_3 /*!< Select pin 3 */
 112:Drivers/STM32F0xx_HAL_Driver/Inc/stm32f0xx_ll_gpio.h **** #define LL_GPIO_PIN_4                      GPIO_BSRR_BS_4 /*!< Select pin 4 */
 113:Drivers/STM32F0xx_HAL_Driver/Inc/stm32f0xx_ll_gpio.h **** #define LL_GPIO_PIN_5                      GPIO_BSRR_BS_5 /*!< Select pin 5 */
 114:Drivers/STM32F0xx_HAL_Driver/Inc/stm32f0xx_ll_gpio.h **** #define LL_GPIO_PIN_6                      GPIO_BSRR_BS_6 /*!< Select pin 6 */
 115:Drivers/STM32F0xx_HAL_Driver/Inc/stm32f0xx_ll_gpio.h **** #define LL_GPIO_PIN_7                      GPIO_BSRR_BS_7 /*!< Select pin 7 */
 116:Drivers/STM32F0xx_HAL_Driver/Inc/stm32f0xx_ll_gpio.h **** #define LL_GPIO_PIN_8                      GPIO_BSRR_BS_8 /*!< Select pin 8 */
 117:Drivers/STM32F0xx_HAL_Driver/Inc/stm32f0xx_ll_gpio.h **** #define LL_GPIO_PIN_9                      GPIO_BSRR_BS_9 /*!< Select pin 9 */
 118:Drivers/STM32F0xx_HAL_Driver/Inc/stm32f0xx_ll_gpio.h **** #define LL_GPIO_PIN_10                     GPIO_BSRR_BS_10 /*!< Select pin 10 */
 119:Drivers/STM32F0xx_HAL_Driver/Inc/stm32f0xx_ll_gpio.h **** #define LL_GPIO_PIN_11                     GPIO_BSRR_BS_11 /*!< Select pin 11 */
 120:Drivers/STM32F0xx_HAL_Driver/Inc/stm32f0xx_ll_gpio.h **** #define LL_GPIO_PIN_12                     GPIO_BSRR_BS_12 /*!< Select pin 12 */
 121:Drivers/STM32F0xx_HAL_Driver/Inc/stm32f0xx_ll_gpio.h **** #define LL_GPIO_PIN_13                     GPIO_BSRR_BS_13 /*!< Select pin 13 */
 122:Drivers/STM32F0xx_HAL_Driver/Inc/stm32f0xx_ll_gpio.h **** #define LL_GPIO_PIN_14                     GPIO_BSRR_BS_14 /*!< Select pin 14 */
 123:Drivers/STM32F0xx_HAL_Driver/Inc/stm32f0xx_ll_gpio.h **** #define LL_GPIO_PIN_15                     GPIO_BSRR_BS_15 /*!< Select pin 15 */
 124:Drivers/STM32F0xx_HAL_Driver/Inc/stm32f0xx_ll_gpio.h **** #define LL_GPIO_PIN_ALL                    (GPIO_BSRR_BS_0 | GPIO_BSRR_BS_1  | GPIO_BSRR_BS_2  | \
 125:Drivers/STM32F0xx_HAL_Driver/Inc/stm32f0xx_ll_gpio.h ****                                            GPIO_BSRR_BS_3  | GPIO_BSRR_BS_4  | GPIO_BSRR_BS_5  | \
 126:Drivers/STM32F0xx_HAL_Driver/Inc/stm32f0xx_ll_gpio.h ****                                            GPIO_BSRR_BS_6  | GPIO_BSRR_BS_7  | GPIO_BSRR_BS_8  | \
 127:Drivers/STM32F0xx_HAL_Driver/Inc/stm32f0xx_ll_gpio.h ****                                            GPIO_BSRR_BS_9  | GPIO_BSRR_BS_10 | GPIO_BSRR_BS_11 | \
 128:Drivers/STM32F0xx_HAL_Driver/Inc/stm32f0xx_ll_gpio.h ****                                            GPIO_BSRR_BS_12 | GPIO_BSRR_BS_13 | GPIO_BSRR_BS_14 | \
 129:Drivers/STM32F0xx_HAL_Driver/Inc/stm32f0xx_ll_gpio.h ****                                            GPIO_BSRR_BS_15) /*!< Select all pins */
 130:Drivers/STM32F0xx_HAL_Driver/Inc/stm32f0xx_ll_gpio.h **** /**
 131:Drivers/STM32F0xx_HAL_Driver/Inc/stm32f0xx_ll_gpio.h ****   * @}
 132:Drivers/STM32F0xx_HAL_Driver/Inc/stm32f0xx_ll_gpio.h ****   */
 133:Drivers/STM32F0xx_HAL_Driver/Inc/stm32f0xx_ll_gpio.h **** 
 134:Drivers/STM32F0xx_HAL_Driver/Inc/stm32f0xx_ll_gpio.h **** /** @defgroup GPIO_LL_EC_MODE Mode
 135:Drivers/STM32F0xx_HAL_Driver/Inc/stm32f0xx_ll_gpio.h ****   * @{
 136:Drivers/STM32F0xx_HAL_Driver/Inc/stm32f0xx_ll_gpio.h ****   */
 137:Drivers/STM32F0xx_HAL_Driver/Inc/stm32f0xx_ll_gpio.h **** #define LL_GPIO_MODE_INPUT                 (0x00000000U) /*!< Select input mode */
 138:Drivers/STM32F0xx_HAL_Driver/Inc/stm32f0xx_ll_gpio.h **** #define LL_GPIO_MODE_OUTPUT                GPIO_MODER_MODER0_0  /*!< Select output mode */
 139:Drivers/STM32F0xx_HAL_Driver/Inc/stm32f0xx_ll_gpio.h **** #define LL_GPIO_MODE_ALTERNATE             GPIO_MODER_MODER0_1  /*!< Select alternate function mode
 140:Drivers/STM32F0xx_HAL_Driver/Inc/stm32f0xx_ll_gpio.h **** #define LL_GPIO_MODE_ANALOG                GPIO_MODER_MODER0    /*!< Select analog mode */
 141:Drivers/STM32F0xx_HAL_Driver/Inc/stm32f0xx_ll_gpio.h **** /**
 142:Drivers/STM32F0xx_HAL_Driver/Inc/stm32f0xx_ll_gpio.h ****   * @}
ARM GAS  /tmp/ccMsiaRR.s 			page 12


 143:Drivers/STM32F0xx_HAL_Driver/Inc/stm32f0xx_ll_gpio.h ****   */
 144:Drivers/STM32F0xx_HAL_Driver/Inc/stm32f0xx_ll_gpio.h **** 
 145:Drivers/STM32F0xx_HAL_Driver/Inc/stm32f0xx_ll_gpio.h **** /** @defgroup GPIO_LL_EC_OUTPUT Output Type
 146:Drivers/STM32F0xx_HAL_Driver/Inc/stm32f0xx_ll_gpio.h ****   * @{
 147:Drivers/STM32F0xx_HAL_Driver/Inc/stm32f0xx_ll_gpio.h ****   */
 148:Drivers/STM32F0xx_HAL_Driver/Inc/stm32f0xx_ll_gpio.h **** #define LL_GPIO_OUTPUT_PUSHPULL            (0x00000000U) /*!< Select push-pull as output type */
 149:Drivers/STM32F0xx_HAL_Driver/Inc/stm32f0xx_ll_gpio.h **** #define LL_GPIO_OUTPUT_OPENDRAIN           GPIO_OTYPER_OT_0 /*!< Select open-drain as output type *
 150:Drivers/STM32F0xx_HAL_Driver/Inc/stm32f0xx_ll_gpio.h **** /**
 151:Drivers/STM32F0xx_HAL_Driver/Inc/stm32f0xx_ll_gpio.h ****   * @}
 152:Drivers/STM32F0xx_HAL_Driver/Inc/stm32f0xx_ll_gpio.h ****   */
 153:Drivers/STM32F0xx_HAL_Driver/Inc/stm32f0xx_ll_gpio.h **** 
 154:Drivers/STM32F0xx_HAL_Driver/Inc/stm32f0xx_ll_gpio.h **** /** @defgroup GPIO_LL_EC_SPEED Output Speed
 155:Drivers/STM32F0xx_HAL_Driver/Inc/stm32f0xx_ll_gpio.h ****   * @{
 156:Drivers/STM32F0xx_HAL_Driver/Inc/stm32f0xx_ll_gpio.h ****   */
 157:Drivers/STM32F0xx_HAL_Driver/Inc/stm32f0xx_ll_gpio.h **** #define LL_GPIO_SPEED_FREQ_LOW             (0x00000000U) /*!< Select I/O low output speed    */
 158:Drivers/STM32F0xx_HAL_Driver/Inc/stm32f0xx_ll_gpio.h **** #define LL_GPIO_SPEED_FREQ_MEDIUM          GPIO_OSPEEDR_OSPEEDR0_0 /*!< Select I/O medium output sp
 159:Drivers/STM32F0xx_HAL_Driver/Inc/stm32f0xx_ll_gpio.h **** #define LL_GPIO_SPEED_FREQ_HIGH            GPIO_OSPEEDR_OSPEEDR0   /*!< Select I/O high output spee
 160:Drivers/STM32F0xx_HAL_Driver/Inc/stm32f0xx_ll_gpio.h **** /**
 161:Drivers/STM32F0xx_HAL_Driver/Inc/stm32f0xx_ll_gpio.h ****   * @}
 162:Drivers/STM32F0xx_HAL_Driver/Inc/stm32f0xx_ll_gpio.h ****   */
 163:Drivers/STM32F0xx_HAL_Driver/Inc/stm32f0xx_ll_gpio.h **** #define LL_GPIO_SPEED_LOW                  LL_GPIO_SPEED_FREQ_LOW
 164:Drivers/STM32F0xx_HAL_Driver/Inc/stm32f0xx_ll_gpio.h **** #define LL_GPIO_SPEED_MEDIUM               LL_GPIO_SPEED_FREQ_MEDIUM
 165:Drivers/STM32F0xx_HAL_Driver/Inc/stm32f0xx_ll_gpio.h **** #define LL_GPIO_SPEED_HIGH                 LL_GPIO_SPEED_FREQ_HIGH
 166:Drivers/STM32F0xx_HAL_Driver/Inc/stm32f0xx_ll_gpio.h **** 
 167:Drivers/STM32F0xx_HAL_Driver/Inc/stm32f0xx_ll_gpio.h **** /** @defgroup GPIO_LL_EC_PULL Pull Up Pull Down
 168:Drivers/STM32F0xx_HAL_Driver/Inc/stm32f0xx_ll_gpio.h ****   * @{
 169:Drivers/STM32F0xx_HAL_Driver/Inc/stm32f0xx_ll_gpio.h ****   */
 170:Drivers/STM32F0xx_HAL_Driver/Inc/stm32f0xx_ll_gpio.h **** #define LL_GPIO_PULL_NO                    (0x00000000U) /*!< Select I/O no pull */
 171:Drivers/STM32F0xx_HAL_Driver/Inc/stm32f0xx_ll_gpio.h **** #define LL_GPIO_PULL_UP                    GPIO_PUPDR_PUPDR0_0 /*!< Select I/O pull up */
 172:Drivers/STM32F0xx_HAL_Driver/Inc/stm32f0xx_ll_gpio.h **** #define LL_GPIO_PULL_DOWN                  GPIO_PUPDR_PUPDR0_1 /*!< Select I/O pull down */
 173:Drivers/STM32F0xx_HAL_Driver/Inc/stm32f0xx_ll_gpio.h **** /**
 174:Drivers/STM32F0xx_HAL_Driver/Inc/stm32f0xx_ll_gpio.h ****   * @}
 175:Drivers/STM32F0xx_HAL_Driver/Inc/stm32f0xx_ll_gpio.h ****   */
 176:Drivers/STM32F0xx_HAL_Driver/Inc/stm32f0xx_ll_gpio.h **** 
 177:Drivers/STM32F0xx_HAL_Driver/Inc/stm32f0xx_ll_gpio.h **** /** @defgroup GPIO_LL_EC_AF Alternate Function
 178:Drivers/STM32F0xx_HAL_Driver/Inc/stm32f0xx_ll_gpio.h ****   * @{
 179:Drivers/STM32F0xx_HAL_Driver/Inc/stm32f0xx_ll_gpio.h ****   */
 180:Drivers/STM32F0xx_HAL_Driver/Inc/stm32f0xx_ll_gpio.h **** #define LL_GPIO_AF_0                       (0x0000000U) /*!< Select alternate function 0 */
 181:Drivers/STM32F0xx_HAL_Driver/Inc/stm32f0xx_ll_gpio.h **** #define LL_GPIO_AF_1                       (0x0000001U) /*!< Select alternate function 1 */
 182:Drivers/STM32F0xx_HAL_Driver/Inc/stm32f0xx_ll_gpio.h **** #define LL_GPIO_AF_2                       (0x0000002U) /*!< Select alternate function 2 */
 183:Drivers/STM32F0xx_HAL_Driver/Inc/stm32f0xx_ll_gpio.h **** #define LL_GPIO_AF_3                       (0x0000003U) /*!< Select alternate function 3 */
 184:Drivers/STM32F0xx_HAL_Driver/Inc/stm32f0xx_ll_gpio.h **** #define LL_GPIO_AF_4                       (0x0000004U) /*!< Select alternate function 4 */
 185:Drivers/STM32F0xx_HAL_Driver/Inc/stm32f0xx_ll_gpio.h **** #define LL_GPIO_AF_5                       (0x0000005U) /*!< Select alternate function 5 */
 186:Drivers/STM32F0xx_HAL_Driver/Inc/stm32f0xx_ll_gpio.h **** #define LL_GPIO_AF_6                       (0x0000006U) /*!< Select alternate function 6 */
 187:Drivers/STM32F0xx_HAL_Driver/Inc/stm32f0xx_ll_gpio.h **** #define LL_GPIO_AF_7                       (0x0000007U) /*!< Select alternate function 7 */
 188:Drivers/STM32F0xx_HAL_Driver/Inc/stm32f0xx_ll_gpio.h **** /**
 189:Drivers/STM32F0xx_HAL_Driver/Inc/stm32f0xx_ll_gpio.h ****   * @}
 190:Drivers/STM32F0xx_HAL_Driver/Inc/stm32f0xx_ll_gpio.h ****   */
 191:Drivers/STM32F0xx_HAL_Driver/Inc/stm32f0xx_ll_gpio.h **** 
 192:Drivers/STM32F0xx_HAL_Driver/Inc/stm32f0xx_ll_gpio.h **** /**
 193:Drivers/STM32F0xx_HAL_Driver/Inc/stm32f0xx_ll_gpio.h ****   * @}
 194:Drivers/STM32F0xx_HAL_Driver/Inc/stm32f0xx_ll_gpio.h ****   */
 195:Drivers/STM32F0xx_HAL_Driver/Inc/stm32f0xx_ll_gpio.h **** 
 196:Drivers/STM32F0xx_HAL_Driver/Inc/stm32f0xx_ll_gpio.h **** /* Exported macro ------------------------------------------------------------*/
 197:Drivers/STM32F0xx_HAL_Driver/Inc/stm32f0xx_ll_gpio.h **** /** @defgroup GPIO_LL_Exported_Macros GPIO Exported Macros
 198:Drivers/STM32F0xx_HAL_Driver/Inc/stm32f0xx_ll_gpio.h ****   * @{
 199:Drivers/STM32F0xx_HAL_Driver/Inc/stm32f0xx_ll_gpio.h ****   */
ARM GAS  /tmp/ccMsiaRR.s 			page 13


 200:Drivers/STM32F0xx_HAL_Driver/Inc/stm32f0xx_ll_gpio.h **** 
 201:Drivers/STM32F0xx_HAL_Driver/Inc/stm32f0xx_ll_gpio.h **** /** @defgroup GPIO_LL_EM_WRITE_READ Common Write and read registers Macros
 202:Drivers/STM32F0xx_HAL_Driver/Inc/stm32f0xx_ll_gpio.h ****   * @{
 203:Drivers/STM32F0xx_HAL_Driver/Inc/stm32f0xx_ll_gpio.h ****   */
 204:Drivers/STM32F0xx_HAL_Driver/Inc/stm32f0xx_ll_gpio.h **** 
 205:Drivers/STM32F0xx_HAL_Driver/Inc/stm32f0xx_ll_gpio.h **** /**
 206:Drivers/STM32F0xx_HAL_Driver/Inc/stm32f0xx_ll_gpio.h ****   * @brief  Write a value in GPIO register
 207:Drivers/STM32F0xx_HAL_Driver/Inc/stm32f0xx_ll_gpio.h ****   * @param  __INSTANCE__ GPIO Instance
 208:Drivers/STM32F0xx_HAL_Driver/Inc/stm32f0xx_ll_gpio.h ****   * @param  __REG__ Register to be written
 209:Drivers/STM32F0xx_HAL_Driver/Inc/stm32f0xx_ll_gpio.h ****   * @param  __VALUE__ Value to be written in the register
 210:Drivers/STM32F0xx_HAL_Driver/Inc/stm32f0xx_ll_gpio.h ****   * @retval None
 211:Drivers/STM32F0xx_HAL_Driver/Inc/stm32f0xx_ll_gpio.h ****   */
 212:Drivers/STM32F0xx_HAL_Driver/Inc/stm32f0xx_ll_gpio.h **** #define LL_GPIO_WriteReg(__INSTANCE__, __REG__, __VALUE__) WRITE_REG(__INSTANCE__->__REG__, (__VALU
 213:Drivers/STM32F0xx_HAL_Driver/Inc/stm32f0xx_ll_gpio.h **** 
 214:Drivers/STM32F0xx_HAL_Driver/Inc/stm32f0xx_ll_gpio.h **** /**
 215:Drivers/STM32F0xx_HAL_Driver/Inc/stm32f0xx_ll_gpio.h ****   * @brief  Read a value in GPIO register
 216:Drivers/STM32F0xx_HAL_Driver/Inc/stm32f0xx_ll_gpio.h ****   * @param  __INSTANCE__ GPIO Instance
 217:Drivers/STM32F0xx_HAL_Driver/Inc/stm32f0xx_ll_gpio.h ****   * @param  __REG__ Register to be read
 218:Drivers/STM32F0xx_HAL_Driver/Inc/stm32f0xx_ll_gpio.h ****   * @retval Register value
 219:Drivers/STM32F0xx_HAL_Driver/Inc/stm32f0xx_ll_gpio.h ****   */
 220:Drivers/STM32F0xx_HAL_Driver/Inc/stm32f0xx_ll_gpio.h **** #define LL_GPIO_ReadReg(__INSTANCE__, __REG__) READ_REG(__INSTANCE__->__REG__)
 221:Drivers/STM32F0xx_HAL_Driver/Inc/stm32f0xx_ll_gpio.h **** /**
 222:Drivers/STM32F0xx_HAL_Driver/Inc/stm32f0xx_ll_gpio.h ****   * @}
 223:Drivers/STM32F0xx_HAL_Driver/Inc/stm32f0xx_ll_gpio.h ****   */
 224:Drivers/STM32F0xx_HAL_Driver/Inc/stm32f0xx_ll_gpio.h **** 
 225:Drivers/STM32F0xx_HAL_Driver/Inc/stm32f0xx_ll_gpio.h **** /**
 226:Drivers/STM32F0xx_HAL_Driver/Inc/stm32f0xx_ll_gpio.h ****   * @}
 227:Drivers/STM32F0xx_HAL_Driver/Inc/stm32f0xx_ll_gpio.h ****   */
 228:Drivers/STM32F0xx_HAL_Driver/Inc/stm32f0xx_ll_gpio.h **** 
 229:Drivers/STM32F0xx_HAL_Driver/Inc/stm32f0xx_ll_gpio.h **** /* Exported functions --------------------------------------------------------*/
 230:Drivers/STM32F0xx_HAL_Driver/Inc/stm32f0xx_ll_gpio.h **** /** @defgroup GPIO_LL_Exported_Functions GPIO Exported Functions
 231:Drivers/STM32F0xx_HAL_Driver/Inc/stm32f0xx_ll_gpio.h ****   * @{
 232:Drivers/STM32F0xx_HAL_Driver/Inc/stm32f0xx_ll_gpio.h ****   */
 233:Drivers/STM32F0xx_HAL_Driver/Inc/stm32f0xx_ll_gpio.h **** 
 234:Drivers/STM32F0xx_HAL_Driver/Inc/stm32f0xx_ll_gpio.h **** /** @defgroup GPIO_LL_EF_Port_Configuration Port Configuration
 235:Drivers/STM32F0xx_HAL_Driver/Inc/stm32f0xx_ll_gpio.h ****   * @{
 236:Drivers/STM32F0xx_HAL_Driver/Inc/stm32f0xx_ll_gpio.h ****   */
 237:Drivers/STM32F0xx_HAL_Driver/Inc/stm32f0xx_ll_gpio.h **** 
 238:Drivers/STM32F0xx_HAL_Driver/Inc/stm32f0xx_ll_gpio.h **** /**
 239:Drivers/STM32F0xx_HAL_Driver/Inc/stm32f0xx_ll_gpio.h ****   * @brief  Configure gpio mode for a dedicated pin on dedicated port.
 240:Drivers/STM32F0xx_HAL_Driver/Inc/stm32f0xx_ll_gpio.h ****   * @note   I/O mode can be Input mode, General purpose output, Alternate function mode or Analog.
 241:Drivers/STM32F0xx_HAL_Driver/Inc/stm32f0xx_ll_gpio.h ****   * @note   Warning: only one pin can be passed as parameter.
 242:Drivers/STM32F0xx_HAL_Driver/Inc/stm32f0xx_ll_gpio.h ****   * @rmtoll MODER        MODEy         LL_GPIO_SetPinMode
 243:Drivers/STM32F0xx_HAL_Driver/Inc/stm32f0xx_ll_gpio.h ****   * @param  GPIOx GPIO Port
 244:Drivers/STM32F0xx_HAL_Driver/Inc/stm32f0xx_ll_gpio.h ****   * @param  Pin This parameter can be one of the following values:
 245:Drivers/STM32F0xx_HAL_Driver/Inc/stm32f0xx_ll_gpio.h ****   *         @arg @ref LL_GPIO_PIN_0
 246:Drivers/STM32F0xx_HAL_Driver/Inc/stm32f0xx_ll_gpio.h ****   *         @arg @ref LL_GPIO_PIN_1
 247:Drivers/STM32F0xx_HAL_Driver/Inc/stm32f0xx_ll_gpio.h ****   *         @arg @ref LL_GPIO_PIN_2
 248:Drivers/STM32F0xx_HAL_Driver/Inc/stm32f0xx_ll_gpio.h ****   *         @arg @ref LL_GPIO_PIN_3
 249:Drivers/STM32F0xx_HAL_Driver/Inc/stm32f0xx_ll_gpio.h ****   *         @arg @ref LL_GPIO_PIN_4
 250:Drivers/STM32F0xx_HAL_Driver/Inc/stm32f0xx_ll_gpio.h ****   *         @arg @ref LL_GPIO_PIN_5
 251:Drivers/STM32F0xx_HAL_Driver/Inc/stm32f0xx_ll_gpio.h ****   *         @arg @ref LL_GPIO_PIN_6
 252:Drivers/STM32F0xx_HAL_Driver/Inc/stm32f0xx_ll_gpio.h ****   *         @arg @ref LL_GPIO_PIN_7
 253:Drivers/STM32F0xx_HAL_Driver/Inc/stm32f0xx_ll_gpio.h ****   *         @arg @ref LL_GPIO_PIN_8
 254:Drivers/STM32F0xx_HAL_Driver/Inc/stm32f0xx_ll_gpio.h ****   *         @arg @ref LL_GPIO_PIN_9
 255:Drivers/STM32F0xx_HAL_Driver/Inc/stm32f0xx_ll_gpio.h ****   *         @arg @ref LL_GPIO_PIN_10
 256:Drivers/STM32F0xx_HAL_Driver/Inc/stm32f0xx_ll_gpio.h ****   *         @arg @ref LL_GPIO_PIN_11
ARM GAS  /tmp/ccMsiaRR.s 			page 14


 257:Drivers/STM32F0xx_HAL_Driver/Inc/stm32f0xx_ll_gpio.h ****   *         @arg @ref LL_GPIO_PIN_12
 258:Drivers/STM32F0xx_HAL_Driver/Inc/stm32f0xx_ll_gpio.h ****   *         @arg @ref LL_GPIO_PIN_13
 259:Drivers/STM32F0xx_HAL_Driver/Inc/stm32f0xx_ll_gpio.h ****   *         @arg @ref LL_GPIO_PIN_14
 260:Drivers/STM32F0xx_HAL_Driver/Inc/stm32f0xx_ll_gpio.h ****   *         @arg @ref LL_GPIO_PIN_15
 261:Drivers/STM32F0xx_HAL_Driver/Inc/stm32f0xx_ll_gpio.h ****   * @param  Mode This parameter can be one of the following values:
 262:Drivers/STM32F0xx_HAL_Driver/Inc/stm32f0xx_ll_gpio.h ****   *         @arg @ref LL_GPIO_MODE_INPUT
 263:Drivers/STM32F0xx_HAL_Driver/Inc/stm32f0xx_ll_gpio.h ****   *         @arg @ref LL_GPIO_MODE_OUTPUT
 264:Drivers/STM32F0xx_HAL_Driver/Inc/stm32f0xx_ll_gpio.h ****   *         @arg @ref LL_GPIO_MODE_ALTERNATE
 265:Drivers/STM32F0xx_HAL_Driver/Inc/stm32f0xx_ll_gpio.h ****   *         @arg @ref LL_GPIO_MODE_ANALOG
 266:Drivers/STM32F0xx_HAL_Driver/Inc/stm32f0xx_ll_gpio.h ****   * @retval None
 267:Drivers/STM32F0xx_HAL_Driver/Inc/stm32f0xx_ll_gpio.h ****   */
 268:Drivers/STM32F0xx_HAL_Driver/Inc/stm32f0xx_ll_gpio.h **** __STATIC_INLINE void LL_GPIO_SetPinMode(GPIO_TypeDef *GPIOx, uint32_t Pin, uint32_t Mode)
 269:Drivers/STM32F0xx_HAL_Driver/Inc/stm32f0xx_ll_gpio.h **** {
 270:Drivers/STM32F0xx_HAL_Driver/Inc/stm32f0xx_ll_gpio.h ****   MODIFY_REG(GPIOx->MODER, ((Pin * Pin) * GPIO_MODER_MODER0), ((Pin * Pin) * Mode));
 271:Drivers/STM32F0xx_HAL_Driver/Inc/stm32f0xx_ll_gpio.h **** }
 272:Drivers/STM32F0xx_HAL_Driver/Inc/stm32f0xx_ll_gpio.h **** 
 273:Drivers/STM32F0xx_HAL_Driver/Inc/stm32f0xx_ll_gpio.h **** /**
 274:Drivers/STM32F0xx_HAL_Driver/Inc/stm32f0xx_ll_gpio.h ****   * @brief  Return gpio mode for a dedicated pin on dedicated port.
 275:Drivers/STM32F0xx_HAL_Driver/Inc/stm32f0xx_ll_gpio.h ****   * @note   I/O mode can be Input mode, General purpose output, Alternate function mode or Analog.
 276:Drivers/STM32F0xx_HAL_Driver/Inc/stm32f0xx_ll_gpio.h ****   * @note   Warning: only one pin can be passed as parameter.
 277:Drivers/STM32F0xx_HAL_Driver/Inc/stm32f0xx_ll_gpio.h ****   * @rmtoll MODER        MODEy         LL_GPIO_GetPinMode
 278:Drivers/STM32F0xx_HAL_Driver/Inc/stm32f0xx_ll_gpio.h ****   * @param  GPIOx GPIO Port
 279:Drivers/STM32F0xx_HAL_Driver/Inc/stm32f0xx_ll_gpio.h ****   * @param  Pin This parameter can be one of the following values:
 280:Drivers/STM32F0xx_HAL_Driver/Inc/stm32f0xx_ll_gpio.h ****   *         @arg @ref LL_GPIO_PIN_0
 281:Drivers/STM32F0xx_HAL_Driver/Inc/stm32f0xx_ll_gpio.h ****   *         @arg @ref LL_GPIO_PIN_1
 282:Drivers/STM32F0xx_HAL_Driver/Inc/stm32f0xx_ll_gpio.h ****   *         @arg @ref LL_GPIO_PIN_2
 283:Drivers/STM32F0xx_HAL_Driver/Inc/stm32f0xx_ll_gpio.h ****   *         @arg @ref LL_GPIO_PIN_3
 284:Drivers/STM32F0xx_HAL_Driver/Inc/stm32f0xx_ll_gpio.h ****   *         @arg @ref LL_GPIO_PIN_4
 285:Drivers/STM32F0xx_HAL_Driver/Inc/stm32f0xx_ll_gpio.h ****   *         @arg @ref LL_GPIO_PIN_5
 286:Drivers/STM32F0xx_HAL_Driver/Inc/stm32f0xx_ll_gpio.h ****   *         @arg @ref LL_GPIO_PIN_6
 287:Drivers/STM32F0xx_HAL_Driver/Inc/stm32f0xx_ll_gpio.h ****   *         @arg @ref LL_GPIO_PIN_7
 288:Drivers/STM32F0xx_HAL_Driver/Inc/stm32f0xx_ll_gpio.h ****   *         @arg @ref LL_GPIO_PIN_8
 289:Drivers/STM32F0xx_HAL_Driver/Inc/stm32f0xx_ll_gpio.h ****   *         @arg @ref LL_GPIO_PIN_9
 290:Drivers/STM32F0xx_HAL_Driver/Inc/stm32f0xx_ll_gpio.h ****   *         @arg @ref LL_GPIO_PIN_10
 291:Drivers/STM32F0xx_HAL_Driver/Inc/stm32f0xx_ll_gpio.h ****   *         @arg @ref LL_GPIO_PIN_11
 292:Drivers/STM32F0xx_HAL_Driver/Inc/stm32f0xx_ll_gpio.h ****   *         @arg @ref LL_GPIO_PIN_12
 293:Drivers/STM32F0xx_HAL_Driver/Inc/stm32f0xx_ll_gpio.h ****   *         @arg @ref LL_GPIO_PIN_13
 294:Drivers/STM32F0xx_HAL_Driver/Inc/stm32f0xx_ll_gpio.h ****   *         @arg @ref LL_GPIO_PIN_14
 295:Drivers/STM32F0xx_HAL_Driver/Inc/stm32f0xx_ll_gpio.h ****   *         @arg @ref LL_GPIO_PIN_15
 296:Drivers/STM32F0xx_HAL_Driver/Inc/stm32f0xx_ll_gpio.h ****   * @retval Returned value can be one of the following values:
 297:Drivers/STM32F0xx_HAL_Driver/Inc/stm32f0xx_ll_gpio.h ****   *         @arg @ref LL_GPIO_MODE_INPUT
 298:Drivers/STM32F0xx_HAL_Driver/Inc/stm32f0xx_ll_gpio.h ****   *         @arg @ref LL_GPIO_MODE_OUTPUT
 299:Drivers/STM32F0xx_HAL_Driver/Inc/stm32f0xx_ll_gpio.h ****   *         @arg @ref LL_GPIO_MODE_ALTERNATE
 300:Drivers/STM32F0xx_HAL_Driver/Inc/stm32f0xx_ll_gpio.h ****   *         @arg @ref LL_GPIO_MODE_ANALOG
 301:Drivers/STM32F0xx_HAL_Driver/Inc/stm32f0xx_ll_gpio.h ****   */
 302:Drivers/STM32F0xx_HAL_Driver/Inc/stm32f0xx_ll_gpio.h **** __STATIC_INLINE uint32_t LL_GPIO_GetPinMode(GPIO_TypeDef *GPIOx, uint32_t Pin)
 303:Drivers/STM32F0xx_HAL_Driver/Inc/stm32f0xx_ll_gpio.h **** {
 304:Drivers/STM32F0xx_HAL_Driver/Inc/stm32f0xx_ll_gpio.h ****   return (uint32_t)(READ_BIT(GPIOx->MODER, ((Pin * Pin) * GPIO_MODER_MODER0)) / (Pin * Pin));
 305:Drivers/STM32F0xx_HAL_Driver/Inc/stm32f0xx_ll_gpio.h **** }
 306:Drivers/STM32F0xx_HAL_Driver/Inc/stm32f0xx_ll_gpio.h **** 
 307:Drivers/STM32F0xx_HAL_Driver/Inc/stm32f0xx_ll_gpio.h **** /**
 308:Drivers/STM32F0xx_HAL_Driver/Inc/stm32f0xx_ll_gpio.h ****   * @brief  Configure gpio output type for several pins on dedicated port.
 309:Drivers/STM32F0xx_HAL_Driver/Inc/stm32f0xx_ll_gpio.h ****   * @note   Output type as to be set when gpio pin is in output or
 310:Drivers/STM32F0xx_HAL_Driver/Inc/stm32f0xx_ll_gpio.h ****   *         alternate modes. Possible type are Push-pull or Open-drain.
 311:Drivers/STM32F0xx_HAL_Driver/Inc/stm32f0xx_ll_gpio.h ****   * @rmtoll OTYPER       OTy           LL_GPIO_SetPinOutputType
 312:Drivers/STM32F0xx_HAL_Driver/Inc/stm32f0xx_ll_gpio.h ****   * @param  GPIOx GPIO Port
 313:Drivers/STM32F0xx_HAL_Driver/Inc/stm32f0xx_ll_gpio.h ****   * @param  PinMask This parameter can be a combination of the following values:
ARM GAS  /tmp/ccMsiaRR.s 			page 15


 314:Drivers/STM32F0xx_HAL_Driver/Inc/stm32f0xx_ll_gpio.h ****   *         @arg @ref LL_GPIO_PIN_0
 315:Drivers/STM32F0xx_HAL_Driver/Inc/stm32f0xx_ll_gpio.h ****   *         @arg @ref LL_GPIO_PIN_1
 316:Drivers/STM32F0xx_HAL_Driver/Inc/stm32f0xx_ll_gpio.h ****   *         @arg @ref LL_GPIO_PIN_2
 317:Drivers/STM32F0xx_HAL_Driver/Inc/stm32f0xx_ll_gpio.h ****   *         @arg @ref LL_GPIO_PIN_3
 318:Drivers/STM32F0xx_HAL_Driver/Inc/stm32f0xx_ll_gpio.h ****   *         @arg @ref LL_GPIO_PIN_4
 319:Drivers/STM32F0xx_HAL_Driver/Inc/stm32f0xx_ll_gpio.h ****   *         @arg @ref LL_GPIO_PIN_5
 320:Drivers/STM32F0xx_HAL_Driver/Inc/stm32f0xx_ll_gpio.h ****   *         @arg @ref LL_GPIO_PIN_6
 321:Drivers/STM32F0xx_HAL_Driver/Inc/stm32f0xx_ll_gpio.h ****   *         @arg @ref LL_GPIO_PIN_7
 322:Drivers/STM32F0xx_HAL_Driver/Inc/stm32f0xx_ll_gpio.h ****   *         @arg @ref LL_GPIO_PIN_8
 323:Drivers/STM32F0xx_HAL_Driver/Inc/stm32f0xx_ll_gpio.h ****   *         @arg @ref LL_GPIO_PIN_9
 324:Drivers/STM32F0xx_HAL_Driver/Inc/stm32f0xx_ll_gpio.h ****   *         @arg @ref LL_GPIO_PIN_10
 325:Drivers/STM32F0xx_HAL_Driver/Inc/stm32f0xx_ll_gpio.h ****   *         @arg @ref LL_GPIO_PIN_11
 326:Drivers/STM32F0xx_HAL_Driver/Inc/stm32f0xx_ll_gpio.h ****   *         @arg @ref LL_GPIO_PIN_12
 327:Drivers/STM32F0xx_HAL_Driver/Inc/stm32f0xx_ll_gpio.h ****   *         @arg @ref LL_GPIO_PIN_13
 328:Drivers/STM32F0xx_HAL_Driver/Inc/stm32f0xx_ll_gpio.h ****   *         @arg @ref LL_GPIO_PIN_14
 329:Drivers/STM32F0xx_HAL_Driver/Inc/stm32f0xx_ll_gpio.h ****   *         @arg @ref LL_GPIO_PIN_15
 330:Drivers/STM32F0xx_HAL_Driver/Inc/stm32f0xx_ll_gpio.h ****   *         @arg @ref LL_GPIO_PIN_ALL
 331:Drivers/STM32F0xx_HAL_Driver/Inc/stm32f0xx_ll_gpio.h ****   * @param  OutputType This parameter can be one of the following values:
 332:Drivers/STM32F0xx_HAL_Driver/Inc/stm32f0xx_ll_gpio.h ****   *         @arg @ref LL_GPIO_OUTPUT_PUSHPULL
 333:Drivers/STM32F0xx_HAL_Driver/Inc/stm32f0xx_ll_gpio.h ****   *         @arg @ref LL_GPIO_OUTPUT_OPENDRAIN
 334:Drivers/STM32F0xx_HAL_Driver/Inc/stm32f0xx_ll_gpio.h ****   * @retval None
 335:Drivers/STM32F0xx_HAL_Driver/Inc/stm32f0xx_ll_gpio.h ****   */
 336:Drivers/STM32F0xx_HAL_Driver/Inc/stm32f0xx_ll_gpio.h **** __STATIC_INLINE void LL_GPIO_SetPinOutputType(GPIO_TypeDef *GPIOx, uint32_t PinMask, uint32_t Outpu
 337:Drivers/STM32F0xx_HAL_Driver/Inc/stm32f0xx_ll_gpio.h **** {
 338:Drivers/STM32F0xx_HAL_Driver/Inc/stm32f0xx_ll_gpio.h ****   MODIFY_REG(GPIOx->OTYPER, PinMask, (PinMask * OutputType));
 339:Drivers/STM32F0xx_HAL_Driver/Inc/stm32f0xx_ll_gpio.h **** }
 340:Drivers/STM32F0xx_HAL_Driver/Inc/stm32f0xx_ll_gpio.h **** 
 341:Drivers/STM32F0xx_HAL_Driver/Inc/stm32f0xx_ll_gpio.h **** /**
 342:Drivers/STM32F0xx_HAL_Driver/Inc/stm32f0xx_ll_gpio.h ****   * @brief  Return gpio output type for several pins on dedicated port.
 343:Drivers/STM32F0xx_HAL_Driver/Inc/stm32f0xx_ll_gpio.h ****   * @note   Output type as to be set when gpio pin is in output or
 344:Drivers/STM32F0xx_HAL_Driver/Inc/stm32f0xx_ll_gpio.h ****   *         alternate modes. Possible type are Push-pull or Open-drain.
 345:Drivers/STM32F0xx_HAL_Driver/Inc/stm32f0xx_ll_gpio.h ****   * @note   Warning: only one pin can be passed as parameter.
 346:Drivers/STM32F0xx_HAL_Driver/Inc/stm32f0xx_ll_gpio.h ****   * @rmtoll OTYPER       OTy           LL_GPIO_GetPinOutputType
 347:Drivers/STM32F0xx_HAL_Driver/Inc/stm32f0xx_ll_gpio.h ****   * @param  GPIOx GPIO Port
 348:Drivers/STM32F0xx_HAL_Driver/Inc/stm32f0xx_ll_gpio.h ****   * @param  Pin This parameter can be one of the following values:
 349:Drivers/STM32F0xx_HAL_Driver/Inc/stm32f0xx_ll_gpio.h ****   *         @arg @ref LL_GPIO_PIN_0
 350:Drivers/STM32F0xx_HAL_Driver/Inc/stm32f0xx_ll_gpio.h ****   *         @arg @ref LL_GPIO_PIN_1
 351:Drivers/STM32F0xx_HAL_Driver/Inc/stm32f0xx_ll_gpio.h ****   *         @arg @ref LL_GPIO_PIN_2
 352:Drivers/STM32F0xx_HAL_Driver/Inc/stm32f0xx_ll_gpio.h ****   *         @arg @ref LL_GPIO_PIN_3
 353:Drivers/STM32F0xx_HAL_Driver/Inc/stm32f0xx_ll_gpio.h ****   *         @arg @ref LL_GPIO_PIN_4
 354:Drivers/STM32F0xx_HAL_Driver/Inc/stm32f0xx_ll_gpio.h ****   *         @arg @ref LL_GPIO_PIN_5
 355:Drivers/STM32F0xx_HAL_Driver/Inc/stm32f0xx_ll_gpio.h ****   *         @arg @ref LL_GPIO_PIN_6
 356:Drivers/STM32F0xx_HAL_Driver/Inc/stm32f0xx_ll_gpio.h ****   *         @arg @ref LL_GPIO_PIN_7
 357:Drivers/STM32F0xx_HAL_Driver/Inc/stm32f0xx_ll_gpio.h ****   *         @arg @ref LL_GPIO_PIN_8
 358:Drivers/STM32F0xx_HAL_Driver/Inc/stm32f0xx_ll_gpio.h ****   *         @arg @ref LL_GPIO_PIN_9
 359:Drivers/STM32F0xx_HAL_Driver/Inc/stm32f0xx_ll_gpio.h ****   *         @arg @ref LL_GPIO_PIN_10
 360:Drivers/STM32F0xx_HAL_Driver/Inc/stm32f0xx_ll_gpio.h ****   *         @arg @ref LL_GPIO_PIN_11
 361:Drivers/STM32F0xx_HAL_Driver/Inc/stm32f0xx_ll_gpio.h ****   *         @arg @ref LL_GPIO_PIN_12
 362:Drivers/STM32F0xx_HAL_Driver/Inc/stm32f0xx_ll_gpio.h ****   *         @arg @ref LL_GPIO_PIN_13
 363:Drivers/STM32F0xx_HAL_Driver/Inc/stm32f0xx_ll_gpio.h ****   *         @arg @ref LL_GPIO_PIN_14
 364:Drivers/STM32F0xx_HAL_Driver/Inc/stm32f0xx_ll_gpio.h ****   *         @arg @ref LL_GPIO_PIN_15
 365:Drivers/STM32F0xx_HAL_Driver/Inc/stm32f0xx_ll_gpio.h ****   *         @arg @ref LL_GPIO_PIN_ALL
 366:Drivers/STM32F0xx_HAL_Driver/Inc/stm32f0xx_ll_gpio.h ****   * @retval Returned value can be one of the following values:
 367:Drivers/STM32F0xx_HAL_Driver/Inc/stm32f0xx_ll_gpio.h ****   *         @arg @ref LL_GPIO_OUTPUT_PUSHPULL
 368:Drivers/STM32F0xx_HAL_Driver/Inc/stm32f0xx_ll_gpio.h ****   *         @arg @ref LL_GPIO_OUTPUT_OPENDRAIN
 369:Drivers/STM32F0xx_HAL_Driver/Inc/stm32f0xx_ll_gpio.h ****   */
 370:Drivers/STM32F0xx_HAL_Driver/Inc/stm32f0xx_ll_gpio.h **** __STATIC_INLINE uint32_t LL_GPIO_GetPinOutputType(GPIO_TypeDef *GPIOx, uint32_t Pin)
ARM GAS  /tmp/ccMsiaRR.s 			page 16


 371:Drivers/STM32F0xx_HAL_Driver/Inc/stm32f0xx_ll_gpio.h **** {
 372:Drivers/STM32F0xx_HAL_Driver/Inc/stm32f0xx_ll_gpio.h ****   return (uint32_t)(READ_BIT(GPIOx->OTYPER, Pin) / Pin);
 373:Drivers/STM32F0xx_HAL_Driver/Inc/stm32f0xx_ll_gpio.h **** }
 374:Drivers/STM32F0xx_HAL_Driver/Inc/stm32f0xx_ll_gpio.h **** 
 375:Drivers/STM32F0xx_HAL_Driver/Inc/stm32f0xx_ll_gpio.h **** /**
 376:Drivers/STM32F0xx_HAL_Driver/Inc/stm32f0xx_ll_gpio.h ****   * @brief  Configure gpio speed for a dedicated pin on dedicated port.
 377:Drivers/STM32F0xx_HAL_Driver/Inc/stm32f0xx_ll_gpio.h ****   * @note   I/O speed can be Low, Medium, Fast or High speed.
 378:Drivers/STM32F0xx_HAL_Driver/Inc/stm32f0xx_ll_gpio.h ****   * @note   Warning: only one pin can be passed as parameter.
 379:Drivers/STM32F0xx_HAL_Driver/Inc/stm32f0xx_ll_gpio.h ****   * @note   Refer to datasheet for frequency specifications and the power
 380:Drivers/STM32F0xx_HAL_Driver/Inc/stm32f0xx_ll_gpio.h ****   *         supply and load conditions for each speed.
 381:Drivers/STM32F0xx_HAL_Driver/Inc/stm32f0xx_ll_gpio.h ****   * @rmtoll OSPEEDR      OSPEEDy       LL_GPIO_SetPinSpeed
 382:Drivers/STM32F0xx_HAL_Driver/Inc/stm32f0xx_ll_gpio.h ****   * @param  GPIOx GPIO Port
 383:Drivers/STM32F0xx_HAL_Driver/Inc/stm32f0xx_ll_gpio.h ****   * @param  Pin This parameter can be one of the following values:
 384:Drivers/STM32F0xx_HAL_Driver/Inc/stm32f0xx_ll_gpio.h ****   *         @arg @ref LL_GPIO_PIN_0
 385:Drivers/STM32F0xx_HAL_Driver/Inc/stm32f0xx_ll_gpio.h ****   *         @arg @ref LL_GPIO_PIN_1
 386:Drivers/STM32F0xx_HAL_Driver/Inc/stm32f0xx_ll_gpio.h ****   *         @arg @ref LL_GPIO_PIN_2
 387:Drivers/STM32F0xx_HAL_Driver/Inc/stm32f0xx_ll_gpio.h ****   *         @arg @ref LL_GPIO_PIN_3
 388:Drivers/STM32F0xx_HAL_Driver/Inc/stm32f0xx_ll_gpio.h ****   *         @arg @ref LL_GPIO_PIN_4
 389:Drivers/STM32F0xx_HAL_Driver/Inc/stm32f0xx_ll_gpio.h ****   *         @arg @ref LL_GPIO_PIN_5
 390:Drivers/STM32F0xx_HAL_Driver/Inc/stm32f0xx_ll_gpio.h ****   *         @arg @ref LL_GPIO_PIN_6
 391:Drivers/STM32F0xx_HAL_Driver/Inc/stm32f0xx_ll_gpio.h ****   *         @arg @ref LL_GPIO_PIN_7
 392:Drivers/STM32F0xx_HAL_Driver/Inc/stm32f0xx_ll_gpio.h ****   *         @arg @ref LL_GPIO_PIN_8
 393:Drivers/STM32F0xx_HAL_Driver/Inc/stm32f0xx_ll_gpio.h ****   *         @arg @ref LL_GPIO_PIN_9
 394:Drivers/STM32F0xx_HAL_Driver/Inc/stm32f0xx_ll_gpio.h ****   *         @arg @ref LL_GPIO_PIN_10
 395:Drivers/STM32F0xx_HAL_Driver/Inc/stm32f0xx_ll_gpio.h ****   *         @arg @ref LL_GPIO_PIN_11
 396:Drivers/STM32F0xx_HAL_Driver/Inc/stm32f0xx_ll_gpio.h ****   *         @arg @ref LL_GPIO_PIN_12
 397:Drivers/STM32F0xx_HAL_Driver/Inc/stm32f0xx_ll_gpio.h ****   *         @arg @ref LL_GPIO_PIN_13
 398:Drivers/STM32F0xx_HAL_Driver/Inc/stm32f0xx_ll_gpio.h ****   *         @arg @ref LL_GPIO_PIN_14
 399:Drivers/STM32F0xx_HAL_Driver/Inc/stm32f0xx_ll_gpio.h ****   *         @arg @ref LL_GPIO_PIN_15
 400:Drivers/STM32F0xx_HAL_Driver/Inc/stm32f0xx_ll_gpio.h ****   * @param  Speed This parameter can be one of the following values:
 401:Drivers/STM32F0xx_HAL_Driver/Inc/stm32f0xx_ll_gpio.h ****   *         @arg @ref LL_GPIO_SPEED_FREQ_LOW
 402:Drivers/STM32F0xx_HAL_Driver/Inc/stm32f0xx_ll_gpio.h ****   *         @arg @ref LL_GPIO_SPEED_FREQ_MEDIUM
 403:Drivers/STM32F0xx_HAL_Driver/Inc/stm32f0xx_ll_gpio.h ****   *         @arg @ref LL_GPIO_SPEED_FREQ_HIGH
 404:Drivers/STM32F0xx_HAL_Driver/Inc/stm32f0xx_ll_gpio.h ****   * @retval None
 405:Drivers/STM32F0xx_HAL_Driver/Inc/stm32f0xx_ll_gpio.h ****   */
 406:Drivers/STM32F0xx_HAL_Driver/Inc/stm32f0xx_ll_gpio.h **** __STATIC_INLINE void LL_GPIO_SetPinSpeed(GPIO_TypeDef *GPIOx, uint32_t Pin, uint32_t  Speed)
 407:Drivers/STM32F0xx_HAL_Driver/Inc/stm32f0xx_ll_gpio.h **** {
 408:Drivers/STM32F0xx_HAL_Driver/Inc/stm32f0xx_ll_gpio.h ****   MODIFY_REG(GPIOx->OSPEEDR, ((Pin * Pin) * GPIO_OSPEEDR_OSPEEDR0), ((Pin * Pin) * Speed));
 409:Drivers/STM32F0xx_HAL_Driver/Inc/stm32f0xx_ll_gpio.h **** }
 410:Drivers/STM32F0xx_HAL_Driver/Inc/stm32f0xx_ll_gpio.h **** 
 411:Drivers/STM32F0xx_HAL_Driver/Inc/stm32f0xx_ll_gpio.h **** /**
 412:Drivers/STM32F0xx_HAL_Driver/Inc/stm32f0xx_ll_gpio.h ****   * @brief  Return gpio speed for a dedicated pin on dedicated port.
 413:Drivers/STM32F0xx_HAL_Driver/Inc/stm32f0xx_ll_gpio.h ****   * @note   I/O speed can be Low, Medium, Fast or High speed.
 414:Drivers/STM32F0xx_HAL_Driver/Inc/stm32f0xx_ll_gpio.h ****   * @note   Warning: only one pin can be passed as parameter.
 415:Drivers/STM32F0xx_HAL_Driver/Inc/stm32f0xx_ll_gpio.h ****   * @note   Refer to datasheet for frequency specifications and the power
 416:Drivers/STM32F0xx_HAL_Driver/Inc/stm32f0xx_ll_gpio.h ****   *         supply and load conditions for each speed.
 417:Drivers/STM32F0xx_HAL_Driver/Inc/stm32f0xx_ll_gpio.h ****   * @rmtoll OSPEEDR      OSPEEDy       LL_GPIO_GetPinSpeed
 418:Drivers/STM32F0xx_HAL_Driver/Inc/stm32f0xx_ll_gpio.h ****   * @param  GPIOx GPIO Port
 419:Drivers/STM32F0xx_HAL_Driver/Inc/stm32f0xx_ll_gpio.h ****   * @param  Pin This parameter can be one of the following values:
 420:Drivers/STM32F0xx_HAL_Driver/Inc/stm32f0xx_ll_gpio.h ****   *         @arg @ref LL_GPIO_PIN_0
 421:Drivers/STM32F0xx_HAL_Driver/Inc/stm32f0xx_ll_gpio.h ****   *         @arg @ref LL_GPIO_PIN_1
 422:Drivers/STM32F0xx_HAL_Driver/Inc/stm32f0xx_ll_gpio.h ****   *         @arg @ref LL_GPIO_PIN_2
 423:Drivers/STM32F0xx_HAL_Driver/Inc/stm32f0xx_ll_gpio.h ****   *         @arg @ref LL_GPIO_PIN_3
 424:Drivers/STM32F0xx_HAL_Driver/Inc/stm32f0xx_ll_gpio.h ****   *         @arg @ref LL_GPIO_PIN_4
 425:Drivers/STM32F0xx_HAL_Driver/Inc/stm32f0xx_ll_gpio.h ****   *         @arg @ref LL_GPIO_PIN_5
 426:Drivers/STM32F0xx_HAL_Driver/Inc/stm32f0xx_ll_gpio.h ****   *         @arg @ref LL_GPIO_PIN_6
 427:Drivers/STM32F0xx_HAL_Driver/Inc/stm32f0xx_ll_gpio.h ****   *         @arg @ref LL_GPIO_PIN_7
ARM GAS  /tmp/ccMsiaRR.s 			page 17


 428:Drivers/STM32F0xx_HAL_Driver/Inc/stm32f0xx_ll_gpio.h ****   *         @arg @ref LL_GPIO_PIN_8
 429:Drivers/STM32F0xx_HAL_Driver/Inc/stm32f0xx_ll_gpio.h ****   *         @arg @ref LL_GPIO_PIN_9
 430:Drivers/STM32F0xx_HAL_Driver/Inc/stm32f0xx_ll_gpio.h ****   *         @arg @ref LL_GPIO_PIN_10
 431:Drivers/STM32F0xx_HAL_Driver/Inc/stm32f0xx_ll_gpio.h ****   *         @arg @ref LL_GPIO_PIN_11
 432:Drivers/STM32F0xx_HAL_Driver/Inc/stm32f0xx_ll_gpio.h ****   *         @arg @ref LL_GPIO_PIN_12
 433:Drivers/STM32F0xx_HAL_Driver/Inc/stm32f0xx_ll_gpio.h ****   *         @arg @ref LL_GPIO_PIN_13
 434:Drivers/STM32F0xx_HAL_Driver/Inc/stm32f0xx_ll_gpio.h ****   *         @arg @ref LL_GPIO_PIN_14
 435:Drivers/STM32F0xx_HAL_Driver/Inc/stm32f0xx_ll_gpio.h ****   *         @arg @ref LL_GPIO_PIN_15
 436:Drivers/STM32F0xx_HAL_Driver/Inc/stm32f0xx_ll_gpio.h ****   * @retval Returned value can be one of the following values:
 437:Drivers/STM32F0xx_HAL_Driver/Inc/stm32f0xx_ll_gpio.h ****   *         @arg @ref LL_GPIO_SPEED_FREQ_LOW
 438:Drivers/STM32F0xx_HAL_Driver/Inc/stm32f0xx_ll_gpio.h ****   *         @arg @ref LL_GPIO_SPEED_FREQ_MEDIUM
 439:Drivers/STM32F0xx_HAL_Driver/Inc/stm32f0xx_ll_gpio.h ****   *         @arg @ref LL_GPIO_SPEED_FREQ_HIGH
 440:Drivers/STM32F0xx_HAL_Driver/Inc/stm32f0xx_ll_gpio.h ****   */
 441:Drivers/STM32F0xx_HAL_Driver/Inc/stm32f0xx_ll_gpio.h **** __STATIC_INLINE uint32_t LL_GPIO_GetPinSpeed(GPIO_TypeDef *GPIOx, uint32_t Pin)
 442:Drivers/STM32F0xx_HAL_Driver/Inc/stm32f0xx_ll_gpio.h **** {
 443:Drivers/STM32F0xx_HAL_Driver/Inc/stm32f0xx_ll_gpio.h ****   return (uint32_t)(READ_BIT(GPIOx->OSPEEDR, ((Pin * Pin) * GPIO_OSPEEDR_OSPEEDR0)) / (Pin * Pin));
 444:Drivers/STM32F0xx_HAL_Driver/Inc/stm32f0xx_ll_gpio.h **** }
 445:Drivers/STM32F0xx_HAL_Driver/Inc/stm32f0xx_ll_gpio.h **** 
 446:Drivers/STM32F0xx_HAL_Driver/Inc/stm32f0xx_ll_gpio.h **** /**
 447:Drivers/STM32F0xx_HAL_Driver/Inc/stm32f0xx_ll_gpio.h ****   * @brief  Configure gpio pull-up or pull-down for a dedicated pin on a dedicated port.
 448:Drivers/STM32F0xx_HAL_Driver/Inc/stm32f0xx_ll_gpio.h ****   * @note   Warning: only one pin can be passed as parameter.
 449:Drivers/STM32F0xx_HAL_Driver/Inc/stm32f0xx_ll_gpio.h ****   * @rmtoll PUPDR        PUPDy         LL_GPIO_SetPinPull
 450:Drivers/STM32F0xx_HAL_Driver/Inc/stm32f0xx_ll_gpio.h ****   * @param  GPIOx GPIO Port
 451:Drivers/STM32F0xx_HAL_Driver/Inc/stm32f0xx_ll_gpio.h ****   * @param  Pin This parameter can be one of the following values:
 452:Drivers/STM32F0xx_HAL_Driver/Inc/stm32f0xx_ll_gpio.h ****   *         @arg @ref LL_GPIO_PIN_0
 453:Drivers/STM32F0xx_HAL_Driver/Inc/stm32f0xx_ll_gpio.h ****   *         @arg @ref LL_GPIO_PIN_1
 454:Drivers/STM32F0xx_HAL_Driver/Inc/stm32f0xx_ll_gpio.h ****   *         @arg @ref LL_GPIO_PIN_2
 455:Drivers/STM32F0xx_HAL_Driver/Inc/stm32f0xx_ll_gpio.h ****   *         @arg @ref LL_GPIO_PIN_3
 456:Drivers/STM32F0xx_HAL_Driver/Inc/stm32f0xx_ll_gpio.h ****   *         @arg @ref LL_GPIO_PIN_4
 457:Drivers/STM32F0xx_HAL_Driver/Inc/stm32f0xx_ll_gpio.h ****   *         @arg @ref LL_GPIO_PIN_5
 458:Drivers/STM32F0xx_HAL_Driver/Inc/stm32f0xx_ll_gpio.h ****   *         @arg @ref LL_GPIO_PIN_6
 459:Drivers/STM32F0xx_HAL_Driver/Inc/stm32f0xx_ll_gpio.h ****   *         @arg @ref LL_GPIO_PIN_7
 460:Drivers/STM32F0xx_HAL_Driver/Inc/stm32f0xx_ll_gpio.h ****   *         @arg @ref LL_GPIO_PIN_8
 461:Drivers/STM32F0xx_HAL_Driver/Inc/stm32f0xx_ll_gpio.h ****   *         @arg @ref LL_GPIO_PIN_9
 462:Drivers/STM32F0xx_HAL_Driver/Inc/stm32f0xx_ll_gpio.h ****   *         @arg @ref LL_GPIO_PIN_10
 463:Drivers/STM32F0xx_HAL_Driver/Inc/stm32f0xx_ll_gpio.h ****   *         @arg @ref LL_GPIO_PIN_11
 464:Drivers/STM32F0xx_HAL_Driver/Inc/stm32f0xx_ll_gpio.h ****   *         @arg @ref LL_GPIO_PIN_12
 465:Drivers/STM32F0xx_HAL_Driver/Inc/stm32f0xx_ll_gpio.h ****   *         @arg @ref LL_GPIO_PIN_13
 466:Drivers/STM32F0xx_HAL_Driver/Inc/stm32f0xx_ll_gpio.h ****   *         @arg @ref LL_GPIO_PIN_14
 467:Drivers/STM32F0xx_HAL_Driver/Inc/stm32f0xx_ll_gpio.h ****   *         @arg @ref LL_GPIO_PIN_15
 468:Drivers/STM32F0xx_HAL_Driver/Inc/stm32f0xx_ll_gpio.h ****   * @param  Pull This parameter can be one of the following values:
 469:Drivers/STM32F0xx_HAL_Driver/Inc/stm32f0xx_ll_gpio.h ****   *         @arg @ref LL_GPIO_PULL_NO
 470:Drivers/STM32F0xx_HAL_Driver/Inc/stm32f0xx_ll_gpio.h ****   *         @arg @ref LL_GPIO_PULL_UP
 471:Drivers/STM32F0xx_HAL_Driver/Inc/stm32f0xx_ll_gpio.h ****   *         @arg @ref LL_GPIO_PULL_DOWN
 472:Drivers/STM32F0xx_HAL_Driver/Inc/stm32f0xx_ll_gpio.h ****   * @retval None
 473:Drivers/STM32F0xx_HAL_Driver/Inc/stm32f0xx_ll_gpio.h ****   */
 474:Drivers/STM32F0xx_HAL_Driver/Inc/stm32f0xx_ll_gpio.h **** __STATIC_INLINE void LL_GPIO_SetPinPull(GPIO_TypeDef *GPIOx, uint32_t Pin, uint32_t Pull)
 475:Drivers/STM32F0xx_HAL_Driver/Inc/stm32f0xx_ll_gpio.h **** {
 476:Drivers/STM32F0xx_HAL_Driver/Inc/stm32f0xx_ll_gpio.h ****   MODIFY_REG(GPIOx->PUPDR, ((Pin * Pin) * GPIO_PUPDR_PUPDR0), ((Pin * Pin) * Pull));
 477:Drivers/STM32F0xx_HAL_Driver/Inc/stm32f0xx_ll_gpio.h **** }
 478:Drivers/STM32F0xx_HAL_Driver/Inc/stm32f0xx_ll_gpio.h **** 
 479:Drivers/STM32F0xx_HAL_Driver/Inc/stm32f0xx_ll_gpio.h **** /**
 480:Drivers/STM32F0xx_HAL_Driver/Inc/stm32f0xx_ll_gpio.h ****   * @brief  Return gpio pull-up or pull-down for a dedicated pin on a dedicated port
 481:Drivers/STM32F0xx_HAL_Driver/Inc/stm32f0xx_ll_gpio.h ****   * @note   Warning: only one pin can be passed as parameter.
 482:Drivers/STM32F0xx_HAL_Driver/Inc/stm32f0xx_ll_gpio.h ****   * @rmtoll PUPDR        PUPDy         LL_GPIO_GetPinPull
 483:Drivers/STM32F0xx_HAL_Driver/Inc/stm32f0xx_ll_gpio.h ****   * @param  GPIOx GPIO Port
 484:Drivers/STM32F0xx_HAL_Driver/Inc/stm32f0xx_ll_gpio.h ****   * @param  Pin This parameter can be one of the following values:
ARM GAS  /tmp/ccMsiaRR.s 			page 18


 485:Drivers/STM32F0xx_HAL_Driver/Inc/stm32f0xx_ll_gpio.h ****   *         @arg @ref LL_GPIO_PIN_0
 486:Drivers/STM32F0xx_HAL_Driver/Inc/stm32f0xx_ll_gpio.h ****   *         @arg @ref LL_GPIO_PIN_1
 487:Drivers/STM32F0xx_HAL_Driver/Inc/stm32f0xx_ll_gpio.h ****   *         @arg @ref LL_GPIO_PIN_2
 488:Drivers/STM32F0xx_HAL_Driver/Inc/stm32f0xx_ll_gpio.h ****   *         @arg @ref LL_GPIO_PIN_3
 489:Drivers/STM32F0xx_HAL_Driver/Inc/stm32f0xx_ll_gpio.h ****   *         @arg @ref LL_GPIO_PIN_4
 490:Drivers/STM32F0xx_HAL_Driver/Inc/stm32f0xx_ll_gpio.h ****   *         @arg @ref LL_GPIO_PIN_5
 491:Drivers/STM32F0xx_HAL_Driver/Inc/stm32f0xx_ll_gpio.h ****   *         @arg @ref LL_GPIO_PIN_6
 492:Drivers/STM32F0xx_HAL_Driver/Inc/stm32f0xx_ll_gpio.h ****   *         @arg @ref LL_GPIO_PIN_7
 493:Drivers/STM32F0xx_HAL_Driver/Inc/stm32f0xx_ll_gpio.h ****   *         @arg @ref LL_GPIO_PIN_8
 494:Drivers/STM32F0xx_HAL_Driver/Inc/stm32f0xx_ll_gpio.h ****   *         @arg @ref LL_GPIO_PIN_9
 495:Drivers/STM32F0xx_HAL_Driver/Inc/stm32f0xx_ll_gpio.h ****   *         @arg @ref LL_GPIO_PIN_10
 496:Drivers/STM32F0xx_HAL_Driver/Inc/stm32f0xx_ll_gpio.h ****   *         @arg @ref LL_GPIO_PIN_11
 497:Drivers/STM32F0xx_HAL_Driver/Inc/stm32f0xx_ll_gpio.h ****   *         @arg @ref LL_GPIO_PIN_12
 498:Drivers/STM32F0xx_HAL_Driver/Inc/stm32f0xx_ll_gpio.h ****   *         @arg @ref LL_GPIO_PIN_13
 499:Drivers/STM32F0xx_HAL_Driver/Inc/stm32f0xx_ll_gpio.h ****   *         @arg @ref LL_GPIO_PIN_14
 500:Drivers/STM32F0xx_HAL_Driver/Inc/stm32f0xx_ll_gpio.h ****   *         @arg @ref LL_GPIO_PIN_15
 501:Drivers/STM32F0xx_HAL_Driver/Inc/stm32f0xx_ll_gpio.h ****   * @retval Returned value can be one of the following values:
 502:Drivers/STM32F0xx_HAL_Driver/Inc/stm32f0xx_ll_gpio.h ****   *         @arg @ref LL_GPIO_PULL_NO
 503:Drivers/STM32F0xx_HAL_Driver/Inc/stm32f0xx_ll_gpio.h ****   *         @arg @ref LL_GPIO_PULL_UP
 504:Drivers/STM32F0xx_HAL_Driver/Inc/stm32f0xx_ll_gpio.h ****   *         @arg @ref LL_GPIO_PULL_DOWN
 505:Drivers/STM32F0xx_HAL_Driver/Inc/stm32f0xx_ll_gpio.h ****   */
 506:Drivers/STM32F0xx_HAL_Driver/Inc/stm32f0xx_ll_gpio.h **** __STATIC_INLINE uint32_t LL_GPIO_GetPinPull(GPIO_TypeDef *GPIOx, uint32_t Pin)
 507:Drivers/STM32F0xx_HAL_Driver/Inc/stm32f0xx_ll_gpio.h **** {
 508:Drivers/STM32F0xx_HAL_Driver/Inc/stm32f0xx_ll_gpio.h ****   return (uint32_t)(READ_BIT(GPIOx->PUPDR, ((Pin * Pin) * GPIO_PUPDR_PUPDR0)) / (Pin * Pin));
 509:Drivers/STM32F0xx_HAL_Driver/Inc/stm32f0xx_ll_gpio.h **** }
 510:Drivers/STM32F0xx_HAL_Driver/Inc/stm32f0xx_ll_gpio.h **** 
 511:Drivers/STM32F0xx_HAL_Driver/Inc/stm32f0xx_ll_gpio.h **** /**
 512:Drivers/STM32F0xx_HAL_Driver/Inc/stm32f0xx_ll_gpio.h ****   * @brief  Configure gpio alternate function of a dedicated pin from 0 to 7 for a dedicated port.
 513:Drivers/STM32F0xx_HAL_Driver/Inc/stm32f0xx_ll_gpio.h ****   * @note   Possible values are from AF0 to AF7 depending on target.
 514:Drivers/STM32F0xx_HAL_Driver/Inc/stm32f0xx_ll_gpio.h ****   * @note   Warning: only one pin can be passed as parameter.
 515:Drivers/STM32F0xx_HAL_Driver/Inc/stm32f0xx_ll_gpio.h ****   * @rmtoll AFRL         AFSELy        LL_GPIO_SetAFPin_0_7
 516:Drivers/STM32F0xx_HAL_Driver/Inc/stm32f0xx_ll_gpio.h ****   * @param  GPIOx GPIO Port
 517:Drivers/STM32F0xx_HAL_Driver/Inc/stm32f0xx_ll_gpio.h ****   * @param  Pin This parameter can be one of the following values:
 518:Drivers/STM32F0xx_HAL_Driver/Inc/stm32f0xx_ll_gpio.h ****   *         @arg @ref LL_GPIO_PIN_0
 519:Drivers/STM32F0xx_HAL_Driver/Inc/stm32f0xx_ll_gpio.h ****   *         @arg @ref LL_GPIO_PIN_1
 520:Drivers/STM32F0xx_HAL_Driver/Inc/stm32f0xx_ll_gpio.h ****   *         @arg @ref LL_GPIO_PIN_2
 521:Drivers/STM32F0xx_HAL_Driver/Inc/stm32f0xx_ll_gpio.h ****   *         @arg @ref LL_GPIO_PIN_3
 522:Drivers/STM32F0xx_HAL_Driver/Inc/stm32f0xx_ll_gpio.h ****   *         @arg @ref LL_GPIO_PIN_4
 523:Drivers/STM32F0xx_HAL_Driver/Inc/stm32f0xx_ll_gpio.h ****   *         @arg @ref LL_GPIO_PIN_5
 524:Drivers/STM32F0xx_HAL_Driver/Inc/stm32f0xx_ll_gpio.h ****   *         @arg @ref LL_GPIO_PIN_6
 525:Drivers/STM32F0xx_HAL_Driver/Inc/stm32f0xx_ll_gpio.h ****   *         @arg @ref LL_GPIO_PIN_7
 526:Drivers/STM32F0xx_HAL_Driver/Inc/stm32f0xx_ll_gpio.h ****   * @param  Alternate This parameter can be one of the following values:
 527:Drivers/STM32F0xx_HAL_Driver/Inc/stm32f0xx_ll_gpio.h ****   *         @arg @ref LL_GPIO_AF_0
 528:Drivers/STM32F0xx_HAL_Driver/Inc/stm32f0xx_ll_gpio.h ****   *         @arg @ref LL_GPIO_AF_1
 529:Drivers/STM32F0xx_HAL_Driver/Inc/stm32f0xx_ll_gpio.h ****   *         @arg @ref LL_GPIO_AF_2
 530:Drivers/STM32F0xx_HAL_Driver/Inc/stm32f0xx_ll_gpio.h ****   *         @arg @ref LL_GPIO_AF_3
 531:Drivers/STM32F0xx_HAL_Driver/Inc/stm32f0xx_ll_gpio.h ****   *         @arg @ref LL_GPIO_AF_4
 532:Drivers/STM32F0xx_HAL_Driver/Inc/stm32f0xx_ll_gpio.h ****   *         @arg @ref LL_GPIO_AF_5
 533:Drivers/STM32F0xx_HAL_Driver/Inc/stm32f0xx_ll_gpio.h ****   *         @arg @ref LL_GPIO_AF_6
 534:Drivers/STM32F0xx_HAL_Driver/Inc/stm32f0xx_ll_gpio.h ****   *         @arg @ref LL_GPIO_AF_7
 535:Drivers/STM32F0xx_HAL_Driver/Inc/stm32f0xx_ll_gpio.h ****   * @retval None
 536:Drivers/STM32F0xx_HAL_Driver/Inc/stm32f0xx_ll_gpio.h ****   */
 537:Drivers/STM32F0xx_HAL_Driver/Inc/stm32f0xx_ll_gpio.h **** __STATIC_INLINE void LL_GPIO_SetAFPin_0_7(GPIO_TypeDef *GPIOx, uint32_t Pin, uint32_t Alternate)
 538:Drivers/STM32F0xx_HAL_Driver/Inc/stm32f0xx_ll_gpio.h **** {
 539:Drivers/STM32F0xx_HAL_Driver/Inc/stm32f0xx_ll_gpio.h ****   MODIFY_REG(GPIOx->AFR[0], ((((Pin * Pin) * Pin) * Pin) * GPIO_AFRL_AFSEL0),
 540:Drivers/STM32F0xx_HAL_Driver/Inc/stm32f0xx_ll_gpio.h ****              ((((Pin * Pin) * Pin) * Pin) * Alternate));
 541:Drivers/STM32F0xx_HAL_Driver/Inc/stm32f0xx_ll_gpio.h **** }
ARM GAS  /tmp/ccMsiaRR.s 			page 19


 542:Drivers/STM32F0xx_HAL_Driver/Inc/stm32f0xx_ll_gpio.h **** 
 543:Drivers/STM32F0xx_HAL_Driver/Inc/stm32f0xx_ll_gpio.h **** /**
 544:Drivers/STM32F0xx_HAL_Driver/Inc/stm32f0xx_ll_gpio.h ****   * @brief  Return gpio alternate function of a dedicated pin from 0 to 7 for a dedicated port.
 545:Drivers/STM32F0xx_HAL_Driver/Inc/stm32f0xx_ll_gpio.h ****   * @rmtoll AFRL         AFSELy        LL_GPIO_GetAFPin_0_7
 546:Drivers/STM32F0xx_HAL_Driver/Inc/stm32f0xx_ll_gpio.h ****   * @param  GPIOx GPIO Port
 547:Drivers/STM32F0xx_HAL_Driver/Inc/stm32f0xx_ll_gpio.h ****   * @param  Pin This parameter can be one of the following values:
 548:Drivers/STM32F0xx_HAL_Driver/Inc/stm32f0xx_ll_gpio.h ****   *         @arg @ref LL_GPIO_PIN_0
 549:Drivers/STM32F0xx_HAL_Driver/Inc/stm32f0xx_ll_gpio.h ****   *         @arg @ref LL_GPIO_PIN_1
 550:Drivers/STM32F0xx_HAL_Driver/Inc/stm32f0xx_ll_gpio.h ****   *         @arg @ref LL_GPIO_PIN_2
 551:Drivers/STM32F0xx_HAL_Driver/Inc/stm32f0xx_ll_gpio.h ****   *         @arg @ref LL_GPIO_PIN_3
 552:Drivers/STM32F0xx_HAL_Driver/Inc/stm32f0xx_ll_gpio.h ****   *         @arg @ref LL_GPIO_PIN_4
 553:Drivers/STM32F0xx_HAL_Driver/Inc/stm32f0xx_ll_gpio.h ****   *         @arg @ref LL_GPIO_PIN_5
 554:Drivers/STM32F0xx_HAL_Driver/Inc/stm32f0xx_ll_gpio.h ****   *         @arg @ref LL_GPIO_PIN_6
 555:Drivers/STM32F0xx_HAL_Driver/Inc/stm32f0xx_ll_gpio.h ****   *         @arg @ref LL_GPIO_PIN_7
 556:Drivers/STM32F0xx_HAL_Driver/Inc/stm32f0xx_ll_gpio.h ****   * @retval Returned value can be one of the following values:
 557:Drivers/STM32F0xx_HAL_Driver/Inc/stm32f0xx_ll_gpio.h ****   *         @arg @ref LL_GPIO_AF_0
 558:Drivers/STM32F0xx_HAL_Driver/Inc/stm32f0xx_ll_gpio.h ****   *         @arg @ref LL_GPIO_AF_1
 559:Drivers/STM32F0xx_HAL_Driver/Inc/stm32f0xx_ll_gpio.h ****   *         @arg @ref LL_GPIO_AF_2
 560:Drivers/STM32F0xx_HAL_Driver/Inc/stm32f0xx_ll_gpio.h ****   *         @arg @ref LL_GPIO_AF_3
 561:Drivers/STM32F0xx_HAL_Driver/Inc/stm32f0xx_ll_gpio.h ****   *         @arg @ref LL_GPIO_AF_4
 562:Drivers/STM32F0xx_HAL_Driver/Inc/stm32f0xx_ll_gpio.h ****   *         @arg @ref LL_GPIO_AF_5
 563:Drivers/STM32F0xx_HAL_Driver/Inc/stm32f0xx_ll_gpio.h ****   *         @arg @ref LL_GPIO_AF_6
 564:Drivers/STM32F0xx_HAL_Driver/Inc/stm32f0xx_ll_gpio.h ****   *         @arg @ref LL_GPIO_AF_7
 565:Drivers/STM32F0xx_HAL_Driver/Inc/stm32f0xx_ll_gpio.h ****   */
 566:Drivers/STM32F0xx_HAL_Driver/Inc/stm32f0xx_ll_gpio.h **** __STATIC_INLINE uint32_t LL_GPIO_GetAFPin_0_7(GPIO_TypeDef *GPIOx, uint32_t Pin)
 567:Drivers/STM32F0xx_HAL_Driver/Inc/stm32f0xx_ll_gpio.h **** {
 568:Drivers/STM32F0xx_HAL_Driver/Inc/stm32f0xx_ll_gpio.h ****   return (uint32_t)(READ_BIT(GPIOx->AFR[0],
 569:Drivers/STM32F0xx_HAL_Driver/Inc/stm32f0xx_ll_gpio.h ****                              ((((Pin * Pin) * Pin) * Pin) * GPIO_AFRL_AFSEL0)) / (((Pin * Pin) * Pi
 570:Drivers/STM32F0xx_HAL_Driver/Inc/stm32f0xx_ll_gpio.h **** }
 571:Drivers/STM32F0xx_HAL_Driver/Inc/stm32f0xx_ll_gpio.h **** 
 572:Drivers/STM32F0xx_HAL_Driver/Inc/stm32f0xx_ll_gpio.h **** /**
 573:Drivers/STM32F0xx_HAL_Driver/Inc/stm32f0xx_ll_gpio.h ****   * @brief  Configure gpio alternate function of a dedicated pin from 8 to 15 for a dedicated port.
 574:Drivers/STM32F0xx_HAL_Driver/Inc/stm32f0xx_ll_gpio.h ****   * @note   Possible values are from AF0 to AF7 depending on target.
 575:Drivers/STM32F0xx_HAL_Driver/Inc/stm32f0xx_ll_gpio.h ****   * @note   Warning: only one pin can be passed as parameter.
 576:Drivers/STM32F0xx_HAL_Driver/Inc/stm32f0xx_ll_gpio.h ****   * @rmtoll AFRH         AFSELy        LL_GPIO_SetAFPin_8_15
 577:Drivers/STM32F0xx_HAL_Driver/Inc/stm32f0xx_ll_gpio.h ****   * @param  GPIOx GPIO Port
 578:Drivers/STM32F0xx_HAL_Driver/Inc/stm32f0xx_ll_gpio.h ****   * @param  Pin This parameter can be one of the following values:
 579:Drivers/STM32F0xx_HAL_Driver/Inc/stm32f0xx_ll_gpio.h ****   *         @arg @ref LL_GPIO_PIN_8
 580:Drivers/STM32F0xx_HAL_Driver/Inc/stm32f0xx_ll_gpio.h ****   *         @arg @ref LL_GPIO_PIN_9
 581:Drivers/STM32F0xx_HAL_Driver/Inc/stm32f0xx_ll_gpio.h ****   *         @arg @ref LL_GPIO_PIN_10
 582:Drivers/STM32F0xx_HAL_Driver/Inc/stm32f0xx_ll_gpio.h ****   *         @arg @ref LL_GPIO_PIN_11
 583:Drivers/STM32F0xx_HAL_Driver/Inc/stm32f0xx_ll_gpio.h ****   *         @arg @ref LL_GPIO_PIN_12
 584:Drivers/STM32F0xx_HAL_Driver/Inc/stm32f0xx_ll_gpio.h ****   *         @arg @ref LL_GPIO_PIN_13
 585:Drivers/STM32F0xx_HAL_Driver/Inc/stm32f0xx_ll_gpio.h ****   *         @arg @ref LL_GPIO_PIN_14
 586:Drivers/STM32F0xx_HAL_Driver/Inc/stm32f0xx_ll_gpio.h ****   *         @arg @ref LL_GPIO_PIN_15
 587:Drivers/STM32F0xx_HAL_Driver/Inc/stm32f0xx_ll_gpio.h ****   * @param  Alternate This parameter can be one of the following values:
 588:Drivers/STM32F0xx_HAL_Driver/Inc/stm32f0xx_ll_gpio.h ****   *         @arg @ref LL_GPIO_AF_0
 589:Drivers/STM32F0xx_HAL_Driver/Inc/stm32f0xx_ll_gpio.h ****   *         @arg @ref LL_GPIO_AF_1
 590:Drivers/STM32F0xx_HAL_Driver/Inc/stm32f0xx_ll_gpio.h ****   *         @arg @ref LL_GPIO_AF_2
 591:Drivers/STM32F0xx_HAL_Driver/Inc/stm32f0xx_ll_gpio.h ****   *         @arg @ref LL_GPIO_AF_3
 592:Drivers/STM32F0xx_HAL_Driver/Inc/stm32f0xx_ll_gpio.h ****   *         @arg @ref LL_GPIO_AF_4
 593:Drivers/STM32F0xx_HAL_Driver/Inc/stm32f0xx_ll_gpio.h ****   *         @arg @ref LL_GPIO_AF_5
 594:Drivers/STM32F0xx_HAL_Driver/Inc/stm32f0xx_ll_gpio.h ****   *         @arg @ref LL_GPIO_AF_6
 595:Drivers/STM32F0xx_HAL_Driver/Inc/stm32f0xx_ll_gpio.h ****   *         @arg @ref LL_GPIO_AF_7
 596:Drivers/STM32F0xx_HAL_Driver/Inc/stm32f0xx_ll_gpio.h ****   * @retval None
 597:Drivers/STM32F0xx_HAL_Driver/Inc/stm32f0xx_ll_gpio.h ****   */
 598:Drivers/STM32F0xx_HAL_Driver/Inc/stm32f0xx_ll_gpio.h **** __STATIC_INLINE void LL_GPIO_SetAFPin_8_15(GPIO_TypeDef *GPIOx, uint32_t Pin, uint32_t Alternate)
ARM GAS  /tmp/ccMsiaRR.s 			page 20


 599:Drivers/STM32F0xx_HAL_Driver/Inc/stm32f0xx_ll_gpio.h **** {
 600:Drivers/STM32F0xx_HAL_Driver/Inc/stm32f0xx_ll_gpio.h ****   MODIFY_REG(GPIOx->AFR[1], (((((Pin >> 8U) * (Pin >> 8U)) * (Pin >> 8U)) * (Pin >> 8U)) * GPIO_AFR
 601:Drivers/STM32F0xx_HAL_Driver/Inc/stm32f0xx_ll_gpio.h ****              (((((Pin >> 8U) * (Pin >> 8U)) * (Pin >> 8U)) * (Pin >> 8U)) * Alternate));
 602:Drivers/STM32F0xx_HAL_Driver/Inc/stm32f0xx_ll_gpio.h **** }
 603:Drivers/STM32F0xx_HAL_Driver/Inc/stm32f0xx_ll_gpio.h **** 
 604:Drivers/STM32F0xx_HAL_Driver/Inc/stm32f0xx_ll_gpio.h **** /**
 605:Drivers/STM32F0xx_HAL_Driver/Inc/stm32f0xx_ll_gpio.h ****   * @brief  Return gpio alternate function of a dedicated pin from 8 to 15 for a dedicated port.
 606:Drivers/STM32F0xx_HAL_Driver/Inc/stm32f0xx_ll_gpio.h ****   * @note   Possible values are from AF0 to AF7 depending on target.
 607:Drivers/STM32F0xx_HAL_Driver/Inc/stm32f0xx_ll_gpio.h ****   * @rmtoll AFRH         AFSELy        LL_GPIO_GetAFPin_8_15
 608:Drivers/STM32F0xx_HAL_Driver/Inc/stm32f0xx_ll_gpio.h ****   * @param  GPIOx GPIO Port
 609:Drivers/STM32F0xx_HAL_Driver/Inc/stm32f0xx_ll_gpio.h ****   * @param  Pin This parameter can be one of the following values:
 610:Drivers/STM32F0xx_HAL_Driver/Inc/stm32f0xx_ll_gpio.h ****   *         @arg @ref LL_GPIO_PIN_8
 611:Drivers/STM32F0xx_HAL_Driver/Inc/stm32f0xx_ll_gpio.h ****   *         @arg @ref LL_GPIO_PIN_9
 612:Drivers/STM32F0xx_HAL_Driver/Inc/stm32f0xx_ll_gpio.h ****   *         @arg @ref LL_GPIO_PIN_10
 613:Drivers/STM32F0xx_HAL_Driver/Inc/stm32f0xx_ll_gpio.h ****   *         @arg @ref LL_GPIO_PIN_11
 614:Drivers/STM32F0xx_HAL_Driver/Inc/stm32f0xx_ll_gpio.h ****   *         @arg @ref LL_GPIO_PIN_12
 615:Drivers/STM32F0xx_HAL_Driver/Inc/stm32f0xx_ll_gpio.h ****   *         @arg @ref LL_GPIO_PIN_13
 616:Drivers/STM32F0xx_HAL_Driver/Inc/stm32f0xx_ll_gpio.h ****   *         @arg @ref LL_GPIO_PIN_14
 617:Drivers/STM32F0xx_HAL_Driver/Inc/stm32f0xx_ll_gpio.h ****   *         @arg @ref LL_GPIO_PIN_15
 618:Drivers/STM32F0xx_HAL_Driver/Inc/stm32f0xx_ll_gpio.h ****   * @retval Returned value can be one of the following values:
 619:Drivers/STM32F0xx_HAL_Driver/Inc/stm32f0xx_ll_gpio.h ****   *         @arg @ref LL_GPIO_AF_0
 620:Drivers/STM32F0xx_HAL_Driver/Inc/stm32f0xx_ll_gpio.h ****   *         @arg @ref LL_GPIO_AF_1
 621:Drivers/STM32F0xx_HAL_Driver/Inc/stm32f0xx_ll_gpio.h ****   *         @arg @ref LL_GPIO_AF_2
 622:Drivers/STM32F0xx_HAL_Driver/Inc/stm32f0xx_ll_gpio.h ****   *         @arg @ref LL_GPIO_AF_3
 623:Drivers/STM32F0xx_HAL_Driver/Inc/stm32f0xx_ll_gpio.h ****   *         @arg @ref LL_GPIO_AF_4
 624:Drivers/STM32F0xx_HAL_Driver/Inc/stm32f0xx_ll_gpio.h ****   *         @arg @ref LL_GPIO_AF_5
 625:Drivers/STM32F0xx_HAL_Driver/Inc/stm32f0xx_ll_gpio.h ****   *         @arg @ref LL_GPIO_AF_6
 626:Drivers/STM32F0xx_HAL_Driver/Inc/stm32f0xx_ll_gpio.h ****   *         @arg @ref LL_GPIO_AF_7
 627:Drivers/STM32F0xx_HAL_Driver/Inc/stm32f0xx_ll_gpio.h ****   */
 628:Drivers/STM32F0xx_HAL_Driver/Inc/stm32f0xx_ll_gpio.h **** __STATIC_INLINE uint32_t LL_GPIO_GetAFPin_8_15(GPIO_TypeDef *GPIOx, uint32_t Pin)
 629:Drivers/STM32F0xx_HAL_Driver/Inc/stm32f0xx_ll_gpio.h **** {
 630:Drivers/STM32F0xx_HAL_Driver/Inc/stm32f0xx_ll_gpio.h ****   return (uint32_t)(READ_BIT(GPIOx->AFR[1],
 631:Drivers/STM32F0xx_HAL_Driver/Inc/stm32f0xx_ll_gpio.h ****                              (((((Pin >> 8U) * (Pin >> 8U)) * (Pin >> 8U)) * (Pin >> 8U)) * GPIO_AF
 632:Drivers/STM32F0xx_HAL_Driver/Inc/stm32f0xx_ll_gpio.h ****                                  (Pin >> 8U)) * (Pin >> 8U)) * (Pin >> 8U)));
 633:Drivers/STM32F0xx_HAL_Driver/Inc/stm32f0xx_ll_gpio.h **** }
 634:Drivers/STM32F0xx_HAL_Driver/Inc/stm32f0xx_ll_gpio.h **** 
 635:Drivers/STM32F0xx_HAL_Driver/Inc/stm32f0xx_ll_gpio.h **** 
 636:Drivers/STM32F0xx_HAL_Driver/Inc/stm32f0xx_ll_gpio.h **** /**
 637:Drivers/STM32F0xx_HAL_Driver/Inc/stm32f0xx_ll_gpio.h ****   * @brief  Lock configuration of several pins for a dedicated port.
 638:Drivers/STM32F0xx_HAL_Driver/Inc/stm32f0xx_ll_gpio.h ****   * @note   When the lock sequence has been applied on a port bit, the
 639:Drivers/STM32F0xx_HAL_Driver/Inc/stm32f0xx_ll_gpio.h ****   *         value of this port bit can no longer be modified until the
 640:Drivers/STM32F0xx_HAL_Driver/Inc/stm32f0xx_ll_gpio.h ****   *         next reset.
 641:Drivers/STM32F0xx_HAL_Driver/Inc/stm32f0xx_ll_gpio.h ****   * @note   Each lock bit freezes a specific configuration register
 642:Drivers/STM32F0xx_HAL_Driver/Inc/stm32f0xx_ll_gpio.h ****   *         (control and alternate function registers).
 643:Drivers/STM32F0xx_HAL_Driver/Inc/stm32f0xx_ll_gpio.h ****   * @rmtoll LCKR         LCKK          LL_GPIO_LockPin
 644:Drivers/STM32F0xx_HAL_Driver/Inc/stm32f0xx_ll_gpio.h ****   * @param  GPIOx GPIO Port
 645:Drivers/STM32F0xx_HAL_Driver/Inc/stm32f0xx_ll_gpio.h ****   * @param  PinMask This parameter can be a combination of the following values:
 646:Drivers/STM32F0xx_HAL_Driver/Inc/stm32f0xx_ll_gpio.h ****   *         @arg @ref LL_GPIO_PIN_0
 647:Drivers/STM32F0xx_HAL_Driver/Inc/stm32f0xx_ll_gpio.h ****   *         @arg @ref LL_GPIO_PIN_1
 648:Drivers/STM32F0xx_HAL_Driver/Inc/stm32f0xx_ll_gpio.h ****   *         @arg @ref LL_GPIO_PIN_2
 649:Drivers/STM32F0xx_HAL_Driver/Inc/stm32f0xx_ll_gpio.h ****   *         @arg @ref LL_GPIO_PIN_3
 650:Drivers/STM32F0xx_HAL_Driver/Inc/stm32f0xx_ll_gpio.h ****   *         @arg @ref LL_GPIO_PIN_4
 651:Drivers/STM32F0xx_HAL_Driver/Inc/stm32f0xx_ll_gpio.h ****   *         @arg @ref LL_GPIO_PIN_5
 652:Drivers/STM32F0xx_HAL_Driver/Inc/stm32f0xx_ll_gpio.h ****   *         @arg @ref LL_GPIO_PIN_6
 653:Drivers/STM32F0xx_HAL_Driver/Inc/stm32f0xx_ll_gpio.h ****   *         @arg @ref LL_GPIO_PIN_7
 654:Drivers/STM32F0xx_HAL_Driver/Inc/stm32f0xx_ll_gpio.h ****   *         @arg @ref LL_GPIO_PIN_8
 655:Drivers/STM32F0xx_HAL_Driver/Inc/stm32f0xx_ll_gpio.h ****   *         @arg @ref LL_GPIO_PIN_9
ARM GAS  /tmp/ccMsiaRR.s 			page 21


 656:Drivers/STM32F0xx_HAL_Driver/Inc/stm32f0xx_ll_gpio.h ****   *         @arg @ref LL_GPIO_PIN_10
 657:Drivers/STM32F0xx_HAL_Driver/Inc/stm32f0xx_ll_gpio.h ****   *         @arg @ref LL_GPIO_PIN_11
 658:Drivers/STM32F0xx_HAL_Driver/Inc/stm32f0xx_ll_gpio.h ****   *         @arg @ref LL_GPIO_PIN_12
 659:Drivers/STM32F0xx_HAL_Driver/Inc/stm32f0xx_ll_gpio.h ****   *         @arg @ref LL_GPIO_PIN_13
 660:Drivers/STM32F0xx_HAL_Driver/Inc/stm32f0xx_ll_gpio.h ****   *         @arg @ref LL_GPIO_PIN_14
 661:Drivers/STM32F0xx_HAL_Driver/Inc/stm32f0xx_ll_gpio.h ****   *         @arg @ref LL_GPIO_PIN_15
 662:Drivers/STM32F0xx_HAL_Driver/Inc/stm32f0xx_ll_gpio.h ****   *         @arg @ref LL_GPIO_PIN_ALL
 663:Drivers/STM32F0xx_HAL_Driver/Inc/stm32f0xx_ll_gpio.h ****   * @retval None
 664:Drivers/STM32F0xx_HAL_Driver/Inc/stm32f0xx_ll_gpio.h ****   */
 665:Drivers/STM32F0xx_HAL_Driver/Inc/stm32f0xx_ll_gpio.h **** __STATIC_INLINE void LL_GPIO_LockPin(GPIO_TypeDef *GPIOx, uint32_t PinMask)
 666:Drivers/STM32F0xx_HAL_Driver/Inc/stm32f0xx_ll_gpio.h **** {
 667:Drivers/STM32F0xx_HAL_Driver/Inc/stm32f0xx_ll_gpio.h ****   __IO uint32_t temp;
 668:Drivers/STM32F0xx_HAL_Driver/Inc/stm32f0xx_ll_gpio.h ****   WRITE_REG(GPIOx->LCKR, GPIO_LCKR_LCKK | PinMask);
 669:Drivers/STM32F0xx_HAL_Driver/Inc/stm32f0xx_ll_gpio.h ****   WRITE_REG(GPIOx->LCKR, PinMask);
 670:Drivers/STM32F0xx_HAL_Driver/Inc/stm32f0xx_ll_gpio.h ****   WRITE_REG(GPIOx->LCKR, GPIO_LCKR_LCKK | PinMask);
 671:Drivers/STM32F0xx_HAL_Driver/Inc/stm32f0xx_ll_gpio.h ****   temp = READ_REG(GPIOx->LCKR);
 672:Drivers/STM32F0xx_HAL_Driver/Inc/stm32f0xx_ll_gpio.h ****   (void) temp;
 673:Drivers/STM32F0xx_HAL_Driver/Inc/stm32f0xx_ll_gpio.h **** }
 674:Drivers/STM32F0xx_HAL_Driver/Inc/stm32f0xx_ll_gpio.h **** 
 675:Drivers/STM32F0xx_HAL_Driver/Inc/stm32f0xx_ll_gpio.h **** /**
 676:Drivers/STM32F0xx_HAL_Driver/Inc/stm32f0xx_ll_gpio.h ****   * @brief  Return 1 if all pins passed as parameter, of a dedicated port, are locked. else Return 
 677:Drivers/STM32F0xx_HAL_Driver/Inc/stm32f0xx_ll_gpio.h ****   * @rmtoll LCKR         LCKy          LL_GPIO_IsPinLocked
 678:Drivers/STM32F0xx_HAL_Driver/Inc/stm32f0xx_ll_gpio.h ****   * @param  GPIOx GPIO Port
 679:Drivers/STM32F0xx_HAL_Driver/Inc/stm32f0xx_ll_gpio.h ****   * @param  PinMask This parameter can be a combination of the following values:
 680:Drivers/STM32F0xx_HAL_Driver/Inc/stm32f0xx_ll_gpio.h ****   *         @arg @ref LL_GPIO_PIN_0
 681:Drivers/STM32F0xx_HAL_Driver/Inc/stm32f0xx_ll_gpio.h ****   *         @arg @ref LL_GPIO_PIN_1
 682:Drivers/STM32F0xx_HAL_Driver/Inc/stm32f0xx_ll_gpio.h ****   *         @arg @ref LL_GPIO_PIN_2
 683:Drivers/STM32F0xx_HAL_Driver/Inc/stm32f0xx_ll_gpio.h ****   *         @arg @ref LL_GPIO_PIN_3
 684:Drivers/STM32F0xx_HAL_Driver/Inc/stm32f0xx_ll_gpio.h ****   *         @arg @ref LL_GPIO_PIN_4
 685:Drivers/STM32F0xx_HAL_Driver/Inc/stm32f0xx_ll_gpio.h ****   *         @arg @ref LL_GPIO_PIN_5
 686:Drivers/STM32F0xx_HAL_Driver/Inc/stm32f0xx_ll_gpio.h ****   *         @arg @ref LL_GPIO_PIN_6
 687:Drivers/STM32F0xx_HAL_Driver/Inc/stm32f0xx_ll_gpio.h ****   *         @arg @ref LL_GPIO_PIN_7
 688:Drivers/STM32F0xx_HAL_Driver/Inc/stm32f0xx_ll_gpio.h ****   *         @arg @ref LL_GPIO_PIN_8
 689:Drivers/STM32F0xx_HAL_Driver/Inc/stm32f0xx_ll_gpio.h ****   *         @arg @ref LL_GPIO_PIN_9
 690:Drivers/STM32F0xx_HAL_Driver/Inc/stm32f0xx_ll_gpio.h ****   *         @arg @ref LL_GPIO_PIN_10
 691:Drivers/STM32F0xx_HAL_Driver/Inc/stm32f0xx_ll_gpio.h ****   *         @arg @ref LL_GPIO_PIN_11
 692:Drivers/STM32F0xx_HAL_Driver/Inc/stm32f0xx_ll_gpio.h ****   *         @arg @ref LL_GPIO_PIN_12
 693:Drivers/STM32F0xx_HAL_Driver/Inc/stm32f0xx_ll_gpio.h ****   *         @arg @ref LL_GPIO_PIN_13
 694:Drivers/STM32F0xx_HAL_Driver/Inc/stm32f0xx_ll_gpio.h ****   *         @arg @ref LL_GPIO_PIN_14
 695:Drivers/STM32F0xx_HAL_Driver/Inc/stm32f0xx_ll_gpio.h ****   *         @arg @ref LL_GPIO_PIN_15
 696:Drivers/STM32F0xx_HAL_Driver/Inc/stm32f0xx_ll_gpio.h ****   *         @arg @ref LL_GPIO_PIN_ALL
 697:Drivers/STM32F0xx_HAL_Driver/Inc/stm32f0xx_ll_gpio.h ****   * @retval State of bit (1 or 0).
 698:Drivers/STM32F0xx_HAL_Driver/Inc/stm32f0xx_ll_gpio.h ****   */
 699:Drivers/STM32F0xx_HAL_Driver/Inc/stm32f0xx_ll_gpio.h **** __STATIC_INLINE uint32_t LL_GPIO_IsPinLocked(GPIO_TypeDef *GPIOx, uint32_t PinMask)
 700:Drivers/STM32F0xx_HAL_Driver/Inc/stm32f0xx_ll_gpio.h **** {
 701:Drivers/STM32F0xx_HAL_Driver/Inc/stm32f0xx_ll_gpio.h ****   return (READ_BIT(GPIOx->LCKR, PinMask) == (PinMask));
 702:Drivers/STM32F0xx_HAL_Driver/Inc/stm32f0xx_ll_gpio.h **** }
 703:Drivers/STM32F0xx_HAL_Driver/Inc/stm32f0xx_ll_gpio.h **** 
 704:Drivers/STM32F0xx_HAL_Driver/Inc/stm32f0xx_ll_gpio.h **** /**
 705:Drivers/STM32F0xx_HAL_Driver/Inc/stm32f0xx_ll_gpio.h ****   * @brief  Return 1 if one of the pin of a dedicated port is locked. else return 0.
 706:Drivers/STM32F0xx_HAL_Driver/Inc/stm32f0xx_ll_gpio.h ****   * @rmtoll LCKR         LCKK          LL_GPIO_IsAnyPinLocked
 707:Drivers/STM32F0xx_HAL_Driver/Inc/stm32f0xx_ll_gpio.h ****   * @param  GPIOx GPIO Port
 708:Drivers/STM32F0xx_HAL_Driver/Inc/stm32f0xx_ll_gpio.h ****   * @retval State of bit (1 or 0).
 709:Drivers/STM32F0xx_HAL_Driver/Inc/stm32f0xx_ll_gpio.h ****   */
 710:Drivers/STM32F0xx_HAL_Driver/Inc/stm32f0xx_ll_gpio.h **** __STATIC_INLINE uint32_t LL_GPIO_IsAnyPinLocked(GPIO_TypeDef *GPIOx)
 711:Drivers/STM32F0xx_HAL_Driver/Inc/stm32f0xx_ll_gpio.h **** {
 712:Drivers/STM32F0xx_HAL_Driver/Inc/stm32f0xx_ll_gpio.h ****   return (READ_BIT(GPIOx->LCKR, GPIO_LCKR_LCKK) == (GPIO_LCKR_LCKK));
ARM GAS  /tmp/ccMsiaRR.s 			page 22


 713:Drivers/STM32F0xx_HAL_Driver/Inc/stm32f0xx_ll_gpio.h **** }
 714:Drivers/STM32F0xx_HAL_Driver/Inc/stm32f0xx_ll_gpio.h **** 
 715:Drivers/STM32F0xx_HAL_Driver/Inc/stm32f0xx_ll_gpio.h **** /**
 716:Drivers/STM32F0xx_HAL_Driver/Inc/stm32f0xx_ll_gpio.h ****   * @}
 717:Drivers/STM32F0xx_HAL_Driver/Inc/stm32f0xx_ll_gpio.h ****   */
 718:Drivers/STM32F0xx_HAL_Driver/Inc/stm32f0xx_ll_gpio.h **** 
 719:Drivers/STM32F0xx_HAL_Driver/Inc/stm32f0xx_ll_gpio.h **** /** @defgroup GPIO_LL_EF_Data_Access Data Access
 720:Drivers/STM32F0xx_HAL_Driver/Inc/stm32f0xx_ll_gpio.h ****   * @{
 721:Drivers/STM32F0xx_HAL_Driver/Inc/stm32f0xx_ll_gpio.h ****   */
 722:Drivers/STM32F0xx_HAL_Driver/Inc/stm32f0xx_ll_gpio.h **** 
 723:Drivers/STM32F0xx_HAL_Driver/Inc/stm32f0xx_ll_gpio.h **** /**
 724:Drivers/STM32F0xx_HAL_Driver/Inc/stm32f0xx_ll_gpio.h ****   * @brief  Return full input data register value for a dedicated port.
 725:Drivers/STM32F0xx_HAL_Driver/Inc/stm32f0xx_ll_gpio.h ****   * @rmtoll IDR          IDy           LL_GPIO_ReadInputPort
 726:Drivers/STM32F0xx_HAL_Driver/Inc/stm32f0xx_ll_gpio.h ****   * @param  GPIOx GPIO Port
 727:Drivers/STM32F0xx_HAL_Driver/Inc/stm32f0xx_ll_gpio.h ****   * @retval Input data register value of port
 728:Drivers/STM32F0xx_HAL_Driver/Inc/stm32f0xx_ll_gpio.h ****   */
 729:Drivers/STM32F0xx_HAL_Driver/Inc/stm32f0xx_ll_gpio.h **** __STATIC_INLINE uint32_t LL_GPIO_ReadInputPort(GPIO_TypeDef *GPIOx)
 730:Drivers/STM32F0xx_HAL_Driver/Inc/stm32f0xx_ll_gpio.h **** {
 731:Drivers/STM32F0xx_HAL_Driver/Inc/stm32f0xx_ll_gpio.h ****   return (uint32_t)(READ_REG(GPIOx->IDR));
 732:Drivers/STM32F0xx_HAL_Driver/Inc/stm32f0xx_ll_gpio.h **** }
 733:Drivers/STM32F0xx_HAL_Driver/Inc/stm32f0xx_ll_gpio.h **** 
 734:Drivers/STM32F0xx_HAL_Driver/Inc/stm32f0xx_ll_gpio.h **** /**
 735:Drivers/STM32F0xx_HAL_Driver/Inc/stm32f0xx_ll_gpio.h ****   * @brief  Return if input data level for several pins of dedicated port is high or low.
 736:Drivers/STM32F0xx_HAL_Driver/Inc/stm32f0xx_ll_gpio.h ****   * @rmtoll IDR          IDy           LL_GPIO_IsInputPinSet
 737:Drivers/STM32F0xx_HAL_Driver/Inc/stm32f0xx_ll_gpio.h ****   * @param  GPIOx GPIO Port
 738:Drivers/STM32F0xx_HAL_Driver/Inc/stm32f0xx_ll_gpio.h ****   * @param  PinMask This parameter can be a combination of the following values:
 739:Drivers/STM32F0xx_HAL_Driver/Inc/stm32f0xx_ll_gpio.h ****   *         @arg @ref LL_GPIO_PIN_0
 740:Drivers/STM32F0xx_HAL_Driver/Inc/stm32f0xx_ll_gpio.h ****   *         @arg @ref LL_GPIO_PIN_1
 741:Drivers/STM32F0xx_HAL_Driver/Inc/stm32f0xx_ll_gpio.h ****   *         @arg @ref LL_GPIO_PIN_2
 742:Drivers/STM32F0xx_HAL_Driver/Inc/stm32f0xx_ll_gpio.h ****   *         @arg @ref LL_GPIO_PIN_3
 743:Drivers/STM32F0xx_HAL_Driver/Inc/stm32f0xx_ll_gpio.h ****   *         @arg @ref LL_GPIO_PIN_4
 744:Drivers/STM32F0xx_HAL_Driver/Inc/stm32f0xx_ll_gpio.h ****   *         @arg @ref LL_GPIO_PIN_5
 745:Drivers/STM32F0xx_HAL_Driver/Inc/stm32f0xx_ll_gpio.h ****   *         @arg @ref LL_GPIO_PIN_6
 746:Drivers/STM32F0xx_HAL_Driver/Inc/stm32f0xx_ll_gpio.h ****   *         @arg @ref LL_GPIO_PIN_7
 747:Drivers/STM32F0xx_HAL_Driver/Inc/stm32f0xx_ll_gpio.h ****   *         @arg @ref LL_GPIO_PIN_8
 748:Drivers/STM32F0xx_HAL_Driver/Inc/stm32f0xx_ll_gpio.h ****   *         @arg @ref LL_GPIO_PIN_9
 749:Drivers/STM32F0xx_HAL_Driver/Inc/stm32f0xx_ll_gpio.h ****   *         @arg @ref LL_GPIO_PIN_10
 750:Drivers/STM32F0xx_HAL_Driver/Inc/stm32f0xx_ll_gpio.h ****   *         @arg @ref LL_GPIO_PIN_11
 751:Drivers/STM32F0xx_HAL_Driver/Inc/stm32f0xx_ll_gpio.h ****   *         @arg @ref LL_GPIO_PIN_12
 752:Drivers/STM32F0xx_HAL_Driver/Inc/stm32f0xx_ll_gpio.h ****   *         @arg @ref LL_GPIO_PIN_13
 753:Drivers/STM32F0xx_HAL_Driver/Inc/stm32f0xx_ll_gpio.h ****   *         @arg @ref LL_GPIO_PIN_14
 754:Drivers/STM32F0xx_HAL_Driver/Inc/stm32f0xx_ll_gpio.h ****   *         @arg @ref LL_GPIO_PIN_15
 755:Drivers/STM32F0xx_HAL_Driver/Inc/stm32f0xx_ll_gpio.h ****   *         @arg @ref LL_GPIO_PIN_ALL
 756:Drivers/STM32F0xx_HAL_Driver/Inc/stm32f0xx_ll_gpio.h ****   * @retval State of bit (1 or 0).
 757:Drivers/STM32F0xx_HAL_Driver/Inc/stm32f0xx_ll_gpio.h ****   */
 758:Drivers/STM32F0xx_HAL_Driver/Inc/stm32f0xx_ll_gpio.h **** __STATIC_INLINE uint32_t LL_GPIO_IsInputPinSet(GPIO_TypeDef *GPIOx, uint32_t PinMask)
 221              		.loc 2 758 26 view .LVU36
 222              	.LBB10:
 759:Drivers/STM32F0xx_HAL_Driver/Inc/stm32f0xx_ll_gpio.h **** {
 760:Drivers/STM32F0xx_HAL_Driver/Inc/stm32f0xx_ll_gpio.h ****   return (READ_BIT(GPIOx->IDR, PinMask) == (PinMask));
 223              		.loc 2 760 3 view .LVU37
 224              		.loc 2 760 11 is_stmt 0 view .LVU38
 225 0068 9022     		movs	r2, #144
 226 006a D205     		lsls	r2, r2, #23
 227 006c 1269     		ldr	r2, [r2, #16]
 228              	.LVL4:
 229              		.loc 2 760 11 view .LVU39
ARM GAS  /tmp/ccMsiaRR.s 			page 23


 230              	.LBE10:
 231              	.LBE9:
 182:Core/Src/stm32f0xx_it.c **** 		{
 232              		.loc 1 182 5 view .LVU40
 233 006e 1207     		lsls	r2, r2, #28
 234 0070 11D4     		bmi	.L10
 184:Core/Src/stm32f0xx_it.c **** 			{
 235              		.loc 1 184 4 is_stmt 1 view .LVU41
 184:Core/Src/stm32f0xx_it.c **** 			{
 236              		.loc 1 184 6 is_stmt 0 view .LVU42
 237 0072 9B07     		lsls	r3, r3, #30
 238 0074 E7D4     		bmi	.L9
 186:Core/Src/stm32f0xx_it.c ****         {
 239              		.loc 1 186 9 is_stmt 1 view .LVU43
 186:Core/Src/stm32f0xx_it.c ****         {
 240              		.loc 1 186 17 is_stmt 0 view .LVU44
 241 0076 A04B     		ldr	r3, .L24+8
 242 0078 1B78     		ldrb	r3, [r3]
 186:Core/Src/stm32f0xx_it.c ****         {
 243              		.loc 1 186 11 view .LVU45
 244 007a 012B     		cmp	r3, #1
 245 007c 07D0     		beq	.L23
 192:Core/Src/stm32f0xx_it.c ****         }
 246              		.loc 1 192 11 is_stmt 1 view .LVU46
 192:Core/Src/stm32f0xx_it.c ****         }
 247              		.loc 1 192 16 is_stmt 0 view .LVU47
 248 007e 9E4B     		ldr	r3, .L24+8
 249 0080 0122     		movs	r2, #1
 250 0082 1A70     		strb	r2, [r3]
 251              	.L12:
 194:Core/Src/stm32f0xx_it.c **** 			}
 252              		.loc 1 194 5 is_stmt 1 view .LVU48
 194:Core/Src/stm32f0xx_it.c **** 			}
 253              		.loc 1 194 19 is_stmt 0 view .LVU49
 254 0084 0223     		movs	r3, #2
 255 0086 1D43     		orrs	r5, r3
 256 0088 994B     		ldr	r3, .L24
 257 008a 1D70     		strb	r5, [r3]
 258 008c DBE7     		b	.L9
 259              	.L23:
 188:Core/Src/stm32f0xx_it.c ****         }
 260              		.loc 1 188 11 is_stmt 1 view .LVU50
 188:Core/Src/stm32f0xx_it.c ****         }
 261              		.loc 1 188 16 is_stmt 0 view .LVU51
 262 008e 9A4B     		ldr	r3, .L24+8
 263 0090 0222     		movs	r2, #2
 264 0092 1A70     		strb	r2, [r3]
 265 0094 F6E7     		b	.L12
 266              	.L10:
 199:Core/Src/stm32f0xx_it.c **** 			{
 267              		.loc 1 199 4 is_stmt 1 view .LVU52
 199:Core/Src/stm32f0xx_it.c **** 			{
 268              		.loc 1 199 6 is_stmt 0 view .LVU53
 269 0096 5B07     		lsls	r3, r3, #29
 270 0098 D5D4     		bmi	.L9
 202:Core/Src/stm32f0xx_it.c **** 				button_status = button_status | BUTTON_UNPUSHED;
 271              		.loc 1 202 5 is_stmt 1 view .LVU54
ARM GAS  /tmp/ccMsiaRR.s 			page 24


 202:Core/Src/stm32f0xx_it.c **** 				button_status = button_status | BUTTON_UNPUSHED;
 272              		.loc 1 202 19 is_stmt 0 view .LVU55
 273 009a 0323     		movs	r3, #3
 274 009c 9D43     		bics	r5, r3
 275 009e 944B     		ldr	r3, .L24
 276 00a0 1D70     		strb	r5, [r3]
 203:Core/Src/stm32f0xx_it.c **** 			}
 277              		.loc 1 203 5 is_stmt 1 view .LVU56
 203:Core/Src/stm32f0xx_it.c **** 			}
 278              		.loc 1 203 19 is_stmt 0 view .LVU57
 279 00a2 0422     		movs	r2, #4
 280 00a4 1543     		orrs	r5, r2
 281 00a6 1D70     		strb	r5, [r3]
 282 00a8 CDE7     		b	.L9
 283              	.L22:
 284              	.LBB11:
 212:Core/Src/stm32f0xx_it.c ****     squeaker_set_frik(&htim1, 4, 9000);
 285              		.loc 1 212 5 is_stmt 1 view .LVU58
 286 00aa 2CAB     		add	r3, sp, #176
 287 00ac 28AA     		add	r2, sp, #160
 288 00ae 2AA9     		add	r1, sp, #168
 289 00b0 9348     		ldr	r0, .L24+16
 290 00b2 FFF7FEFF 		bl	giro_read_angls
 291              	.LVL5:
 213:Core/Src/stm32f0xx_it.c **** 
 292              		.loc 1 213 5 view .LVU59
 293 00b6 0022     		movs	r2, #0
 294 00b8 924B     		ldr	r3, .L24+20
 295 00ba 0421     		movs	r1, #4
 296 00bc 8F48     		ldr	r0, .L24+12
 297 00be FFF7FEFF 		bl	squeaker_set_frik
 298              	.LVL6:
 215:Core/Src/stm32f0xx_it.c **** 		
 299              		.loc 1 215 5 view .LVU60
 300              	.LBB12:
 301              	.LBI12:
 761:Drivers/STM32F0xx_HAL_Driver/Inc/stm32f0xx_ll_gpio.h **** }
 762:Drivers/STM32F0xx_HAL_Driver/Inc/stm32f0xx_ll_gpio.h **** 
 763:Drivers/STM32F0xx_HAL_Driver/Inc/stm32f0xx_ll_gpio.h **** /**
 764:Drivers/STM32F0xx_HAL_Driver/Inc/stm32f0xx_ll_gpio.h ****   * @brief  Write output data register for the port.
 765:Drivers/STM32F0xx_HAL_Driver/Inc/stm32f0xx_ll_gpio.h ****   * @rmtoll ODR          ODy           LL_GPIO_WriteOutputPort
 766:Drivers/STM32F0xx_HAL_Driver/Inc/stm32f0xx_ll_gpio.h ****   * @param  GPIOx GPIO Port
 767:Drivers/STM32F0xx_HAL_Driver/Inc/stm32f0xx_ll_gpio.h ****   * @param  PortValue Level value for each pin of the port
 768:Drivers/STM32F0xx_HAL_Driver/Inc/stm32f0xx_ll_gpio.h ****   * @retval None
 769:Drivers/STM32F0xx_HAL_Driver/Inc/stm32f0xx_ll_gpio.h ****   */
 770:Drivers/STM32F0xx_HAL_Driver/Inc/stm32f0xx_ll_gpio.h **** __STATIC_INLINE void LL_GPIO_WriteOutputPort(GPIO_TypeDef *GPIOx, uint32_t PortValue)
 771:Drivers/STM32F0xx_HAL_Driver/Inc/stm32f0xx_ll_gpio.h **** {
 772:Drivers/STM32F0xx_HAL_Driver/Inc/stm32f0xx_ll_gpio.h ****   WRITE_REG(GPIOx->ODR, PortValue);
 773:Drivers/STM32F0xx_HAL_Driver/Inc/stm32f0xx_ll_gpio.h **** }
 774:Drivers/STM32F0xx_HAL_Driver/Inc/stm32f0xx_ll_gpio.h **** 
 775:Drivers/STM32F0xx_HAL_Driver/Inc/stm32f0xx_ll_gpio.h **** /**
 776:Drivers/STM32F0xx_HAL_Driver/Inc/stm32f0xx_ll_gpio.h ****   * @brief  Return full output data register value for a dedicated port.
 777:Drivers/STM32F0xx_HAL_Driver/Inc/stm32f0xx_ll_gpio.h ****   * @rmtoll ODR          ODy           LL_GPIO_ReadOutputPort
 778:Drivers/STM32F0xx_HAL_Driver/Inc/stm32f0xx_ll_gpio.h ****   * @param  GPIOx GPIO Port
 779:Drivers/STM32F0xx_HAL_Driver/Inc/stm32f0xx_ll_gpio.h ****   * @retval Output data register value of port
 780:Drivers/STM32F0xx_HAL_Driver/Inc/stm32f0xx_ll_gpio.h ****   */
 781:Drivers/STM32F0xx_HAL_Driver/Inc/stm32f0xx_ll_gpio.h **** __STATIC_INLINE uint32_t LL_GPIO_ReadOutputPort(GPIO_TypeDef *GPIOx)
ARM GAS  /tmp/ccMsiaRR.s 			page 25


 302              		.loc 2 781 26 view .LVU61
 303              	.LBB13:
 782:Drivers/STM32F0xx_HAL_Driver/Inc/stm32f0xx_ll_gpio.h **** {
 783:Drivers/STM32F0xx_HAL_Driver/Inc/stm32f0xx_ll_gpio.h ****   return (uint32_t)(READ_REG(GPIOx->ODR));
 304              		.loc 2 783 3 view .LVU62
 305              		.loc 2 783 10 is_stmt 0 view .LVU63
 306 00c2 914B     		ldr	r3, .L24+24
 307 00c4 5B69     		ldr	r3, [r3, #20]
 308              	.LVL7:
 309              		.loc 2 783 10 view .LVU64
 310              	.LBE13:
 311              	.LBE12:
 215:Core/Src/stm32f0xx_it.c **** 		
 312              		.loc 1 215 14 view .LVU65
 313 00c6 9BB2     		uxth	r3, r3
 314              	.LVL8:
 217:Core/Src/stm32f0xx_it.c **** 
 315              		.loc 1 217 3 is_stmt 1 view .LVU66
 217:Core/Src/stm32f0xx_it.c **** 
 316              		.loc 1 217 12 is_stmt 0 view .LVU67
 317 00c8 904A     		ldr	r2, .L24+28
 318 00ca 1340     		ands	r3, r2
 319              	.LVL9:
 217:Core/Src/stm32f0xx_it.c **** 
 320              		.loc 1 217 12 view .LVU68
 321 00cc 9A46     		mov	r10, r3
 322              	.LVL10:
 219:Core/Src/stm32f0xx_it.c ****     double servo_tang = 0;
 323              		.loc 1 219 5 is_stmt 1 view .LVU69
 220:Core/Src/stm32f0xx_it.c ****     double servo_kren = 0;
 324              		.loc 1 220 5 view .LVU70
 221:Core/Src/stm32f0xx_it.c **** 
 325              		.loc 1 221 5 view .LVU71
 223:Core/Src/stm32f0xx_it.c ****     teta = teta*POPRAVKA;  
 326              		.loc 1 223 5 view .LVU72
 223:Core/Src/stm32f0xx_it.c ****     teta = teta*POPRAVKA;  
 327              		.loc 1 223 14 is_stmt 0 view .LVU73
 328 00ce 904A     		ldr	r2, .L24+32
 329 00d0 904B     		ldr	r3, .L24+36
 330 00d2 2A98     		ldr	r0, [sp, #168]
 331 00d4 2B99     		ldr	r1, [sp, #172]
 332 00d6 FFF7FEFF 		bl	__aeabi_dmul
 333              	.LVL11:
 334 00da 0600     		movs	r6, r0
 335 00dc 0F00     		movs	r7, r1
 223:Core/Src/stm32f0xx_it.c ****     teta = teta*POPRAVKA;  
 336              		.loc 1 223 9 view .LVU74
 337 00de 2A96     		str	r6, [sp, #168]
 338 00e0 2B97     		str	r7, [sp, #172]
 224:Core/Src/stm32f0xx_it.c ****     phi = phi*POPRAVKA;
 339              		.loc 1 224 5 is_stmt 1 view .LVU75
 224:Core/Src/stm32f0xx_it.c ****     phi = phi*POPRAVKA;
 340              		.loc 1 224 16 is_stmt 0 view .LVU76
 341 00e2 8B4A     		ldr	r2, .L24+32
 342 00e4 8B4B     		ldr	r3, .L24+36
 343 00e6 2898     		ldr	r0, [sp, #160]
 344 00e8 2999     		ldr	r1, [sp, #164]
ARM GAS  /tmp/ccMsiaRR.s 			page 26


 345 00ea FFF7FEFF 		bl	__aeabi_dmul
 346              	.LVL12:
 224:Core/Src/stm32f0xx_it.c ****     phi = phi*POPRAVKA;
 347              		.loc 1 224 10 view .LVU77
 348 00ee 0A90     		str	r0, [sp, #40]
 349 00f0 0B91     		str	r1, [sp, #44]
 350 00f2 0300     		movs	r3, r0
 351 00f4 0C00     		movs	r4, r1
 352 00f6 2893     		str	r3, [sp, #160]
 353 00f8 2994     		str	r4, [sp, #164]
 225:Core/Src/stm32f0xx_it.c **** 
 354              		.loc 1 225 5 is_stmt 1 view .LVU78
 225:Core/Src/stm32f0xx_it.c **** 
 355              		.loc 1 225 14 is_stmt 0 view .LVU79
 356 00fa 854A     		ldr	r2, .L24+32
 357 00fc 854B     		ldr	r3, .L24+36
 358 00fe 2C98     		ldr	r0, [sp, #176]
 359 0100 2D99     		ldr	r1, [sp, #180]
 360 0102 FFF7FEFF 		bl	__aeabi_dmul
 361              	.LVL13:
 225:Core/Src/stm32f0xx_it.c **** 
 362              		.loc 1 225 9 view .LVU80
 363 0106 2C90     		str	r0, [sp, #176]
 364 0108 2D91     		str	r1, [sp, #180]
 227:Core/Src/stm32f0xx_it.c ****     right = Rotate(right, psi, teta, phi);
 365              		.loc 1 227 5 is_stmt 1 view .LVU81
 227:Core/Src/stm32f0xx_it.c ****     right = Rotate(right, psi, teta, phi);
 366              		.loc 1 227 13 is_stmt 0 view .LVU82
 367 010a 834C     		ldr	r4, .L24+40
 368 010c 0890     		str	r0, [sp, #32]
 369 010e 0991     		str	r1, [sp, #36]
 370 0110 0A9A     		ldr	r2, [sp, #40]
 371 0112 0B9B     		ldr	r3, [sp, #44]
 372 0114 0692     		str	r2, [sp, #24]
 373 0116 0793     		str	r3, [sp, #28]
 374 0118 0496     		str	r6, [sp, #16]
 375 011a 0597     		str	r7, [sp, #20]
 376 011c 2100     		movs	r1, r4
 377 011e 0831     		adds	r1, r1, #8
 378 0120 1022     		movs	r2, #16
 379 0122 6846     		mov	r0, sp
 380 0124 FFF7FEFF 		bl	memcpy
 381              	.LVL14:
 382 0128 2268     		ldr	r2, [r4]
 383 012a 6368     		ldr	r3, [r4, #4]
 384 012c 10A8     		add	r0, sp, #64
 385 012e FFF7FEFF 		bl	Rotate
 386              	.LVL15:
 387 0132 1822     		movs	r2, #24
 388 0134 10A9     		add	r1, sp, #64
 389 0136 2000     		movs	r0, r4
 390 0138 FFF7FEFF 		bl	memcpy
 391              	.LVL16:
 228:Core/Src/stm32f0xx_it.c ****     
 392              		.loc 1 228 5 is_stmt 1 view .LVU83
 228:Core/Src/stm32f0xx_it.c ****     
 393              		.loc 1 228 13 is_stmt 0 view .LVU84
ARM GAS  /tmp/ccMsiaRR.s 			page 27


 394 013c 774B     		ldr	r3, .L24+44
 395 013e 9846     		mov	r8, r3
 396 0140 2C9A     		ldr	r2, [sp, #176]
 397 0142 2D9B     		ldr	r3, [sp, #180]
 398 0144 0892     		str	r2, [sp, #32]
 399 0146 0993     		str	r3, [sp, #36]
 400 0148 289A     		ldr	r2, [sp, #160]
 401 014a 299B     		ldr	r3, [sp, #164]
 402 014c 0692     		str	r2, [sp, #24]
 403 014e 0793     		str	r3, [sp, #28]
 404 0150 2A9A     		ldr	r2, [sp, #168]
 405 0152 2B9B     		ldr	r3, [sp, #172]
 406 0154 0492     		str	r2, [sp, #16]
 407 0156 0593     		str	r3, [sp, #20]
 408 0158 4146     		mov	r1, r8
 409 015a 0831     		adds	r1, r1, #8
 410 015c 1022     		movs	r2, #16
 411 015e 6846     		mov	r0, sp
 412 0160 FFF7FEFF 		bl	memcpy
 413              	.LVL17:
 414 0164 4346     		mov	r3, r8
 415 0166 1A68     		ldr	r2, [r3]
 416 0168 5B68     		ldr	r3, [r3, #4]
 417 016a 10A8     		add	r0, sp, #64
 418 016c FFF7FEFF 		bl	Rotate
 419              	.LVL18:
 420 0170 1822     		movs	r2, #24
 421 0172 10A9     		add	r1, sp, #64
 422 0174 4046     		mov	r0, r8
 423 0176 FFF7FEFF 		bl	memcpy
 424              	.LVL19:
 230:Core/Src/stm32f0xx_it.c ****     servo_tang = asin(front.z);
 425              		.loc 1 230 5 is_stmt 1 view .LVU85
 231:Core/Src/stm32f0xx_it.c ****     
 426              		.loc 1 231 5 view .LVU86
 231:Core/Src/stm32f0xx_it.c ****     
 427              		.loc 1 231 18 is_stmt 0 view .LVU87
 428 017a 2069     		ldr	r0, [r4, #16]
 429 017c 6169     		ldr	r1, [r4, #20]
 430 017e FFF7FEFF 		bl	asin
 431              	.LVL20:
 432 0182 0C90     		str	r0, [sp, #48]
 433 0184 0D91     		str	r1, [sp, #52]
 434              	.LVL21:
 233:Core/Src/stm32f0xx_it.c ****     vector r_proec = {right.x, right.y, 0};
 435              		.loc 1 233 5 is_stmt 1 view .LVU88
 233:Core/Src/stm32f0xx_it.c ****     vector r_proec = {right.x, right.y, 0};
 436              		.loc 1 233 12 is_stmt 0 view .LVU89
 437 0186 2268     		ldr	r2, [r4]
 438 0188 6368     		ldr	r3, [r4, #4]
 439 018a 1692     		str	r2, [sp, #88]
 440 018c 1793     		str	r3, [sp, #92]
 233:Core/Src/stm32f0xx_it.c ****     vector r_proec = {right.x, right.y, 0};
 441              		.loc 1 233 37 view .LVU90
 442 018e A368     		ldr	r3, [r4, #8]
 443 0190 E468     		ldr	r4, [r4, #12]
 444 0192 0A93     		str	r3, [sp, #40]
ARM GAS  /tmp/ccMsiaRR.s 			page 28


 445 0194 0B94     		str	r4, [sp, #44]
 233:Core/Src/stm32f0xx_it.c ****     vector r_proec = {right.x, right.y, 0};
 446              		.loc 1 233 12 view .LVU91
 447 0196 1893     		str	r3, [sp, #96]
 448 0198 1994     		str	r4, [sp, #100]
 449 019a 0023     		movs	r3, #0
 450 019c 0024     		movs	r4, #0
 451 019e 1A93     		str	r3, [sp, #104]
 452 01a0 1B94     		str	r4, [sp, #108]
 234:Core/Src/stm32f0xx_it.c **** 
 453              		.loc 1 234 5 is_stmt 1 view .LVU92
 234:Core/Src/stm32f0xx_it.c **** 
 454              		.loc 1 234 12 is_stmt 0 view .LVU93
 455 01a2 4246     		mov	r2, r8
 456 01a4 1168     		ldr	r1, [r2]
 457 01a6 5268     		ldr	r2, [r2, #4]
 458 01a8 1C91     		str	r1, [sp, #112]
 459 01aa 1D92     		str	r2, [sp, #116]
 460 01ac 4246     		mov	r2, r8
 461 01ae 9168     		ldr	r1, [r2, #8]
 462 01b0 D268     		ldr	r2, [r2, #12]
 463 01b2 1E91     		str	r1, [sp, #120]
 464 01b4 1F92     		str	r2, [sp, #124]
 465 01b6 2093     		str	r3, [sp, #128]
 466 01b8 2194     		str	r4, [sp, #132]
 236:Core/Src/stm32f0xx_it.c ****     double f_len = Vector_Scalar_Mul(&f_proec, &f_proec);
 467              		.loc 1 236 5 is_stmt 1 view .LVU94
 236:Core/Src/stm32f0xx_it.c ****     double f_len = Vector_Scalar_Mul(&f_proec, &f_proec);
 468              		.loc 1 236 23 is_stmt 0 view .LVU95
 469 01ba 1CA9     		add	r1, sp, #112
 470 01bc 16AB     		add	r3, sp, #88
 471 01be 1800     		movs	r0, r3
 472              	.LVL22:
 236:Core/Src/stm32f0xx_it.c ****     double f_len = Vector_Scalar_Mul(&f_proec, &f_proec);
 473              		.loc 1 236 23 view .LVU96
 474 01c0 FFF7FEFF 		bl	Vector_Scalar_Mul
 475              	.LVL23:
 476 01c4 0600     		movs	r6, r0
 477 01c6 0F00     		movs	r7, r1
 478              	.LVL24:
 237:Core/Src/stm32f0xx_it.c **** 
 479              		.loc 1 237 5 is_stmt 1 view .LVU97
 237:Core/Src/stm32f0xx_it.c **** 
 480              		.loc 1 237 20 is_stmt 0 view .LVU98
 481 01c8 16A9     		add	r1, sp, #88
 482 01ca 0800     		movs	r0, r1
 483 01cc FFF7FEFF 		bl	Vector_Scalar_Mul
 484              	.LVL25:
 485 01d0 0400     		movs	r4, r0
 486 01d2 0D00     		movs	r5, r1
 487              	.LVL26:
 239:Core/Src/stm32f0xx_it.c **** 
 488              		.loc 1 239 5 is_stmt 1 view .LVU99
 239:Core/Src/stm32f0xx_it.c **** 
 489              		.loc 1 239 45 is_stmt 0 view .LVU100
 490 01d4 3200     		movs	r2, r6
 491 01d6 3B00     		movs	r3, r7
ARM GAS  /tmp/ccMsiaRR.s 			page 29


 492 01d8 1698     		ldr	r0, [sp, #88]
 493 01da 1799     		ldr	r1, [sp, #92]
 494 01dc FFF7FEFF 		bl	__aeabi_dmul
 495              	.LVL27:
 239:Core/Src/stm32f0xx_it.c **** 
 496              		.loc 1 239 54 view .LVU101
 497 01e0 0A94     		str	r4, [sp, #40]
 498 01e2 0B95     		str	r5, [sp, #44]
 499 01e4 2200     		movs	r2, r4
 500 01e6 2B00     		movs	r3, r5
 501 01e8 FFF7FEFF 		bl	__aeabi_ddiv
 502              	.LVL28:
 503 01ec 0200     		movs	r2, r0
 504 01ee 0B00     		movs	r3, r1
 239:Core/Src/stm32f0xx_it.c **** 
 505              		.loc 1 239 34 view .LVU102
 506 01f0 1C98     		ldr	r0, [sp, #112]
 507 01f2 1D99     		ldr	r1, [sp, #116]
 508 01f4 FFF7FEFF 		bl	__aeabi_dsub
 509              	.LVL29:
 239:Core/Src/stm32f0xx_it.c **** 
 510              		.loc 1 239 12 view .LVU103
 511 01f8 2290     		str	r0, [sp, #136]
 512 01fa 2391     		str	r1, [sp, #140]
 239:Core/Src/stm32f0xx_it.c **** 
 513              		.loc 1 239 69 view .LVU104
 514 01fc 1E9C     		ldr	r4, [sp, #120]
 515 01fe 1F9D     		ldr	r5, [sp, #124]
 516              	.LVL30:
 239:Core/Src/stm32f0xx_it.c **** 
 517              		.loc 1 239 81 view .LVU105
 518 0200 189A     		ldr	r2, [sp, #96]
 519 0202 199B     		ldr	r3, [sp, #100]
 520 0204 0E92     		str	r2, [sp, #56]
 521 0206 0F93     		str	r3, [sp, #60]
 239:Core/Src/stm32f0xx_it.c **** 
 522              		.loc 1 239 83 view .LVU106
 523 0208 3200     		movs	r2, r6
 524 020a 3B00     		movs	r3, r7
 525 020c 0E98     		ldr	r0, [sp, #56]
 526 020e 0F99     		ldr	r1, [sp, #60]
 527 0210 FFF7FEFF 		bl	__aeabi_dmul
 528              	.LVL31:
 239:Core/Src/stm32f0xx_it.c **** 
 529              		.loc 1 239 92 view .LVU107
 530 0214 0A9A     		ldr	r2, [sp, #40]
 531 0216 0B9B     		ldr	r3, [sp, #44]
 532 0218 FFF7FEFF 		bl	__aeabi_ddiv
 533              	.LVL32:
 534 021c 0200     		movs	r2, r0
 535 021e 0B00     		movs	r3, r1
 239:Core/Src/stm32f0xx_it.c **** 
 536              		.loc 1 239 72 view .LVU108
 537 0220 2000     		movs	r0, r4
 538 0222 2900     		movs	r1, r5
 539 0224 FFF7FEFF 		bl	__aeabi_dsub
 540              	.LVL33:
ARM GAS  /tmp/ccMsiaRR.s 			page 30


 239:Core/Src/stm32f0xx_it.c **** 
 541              		.loc 1 239 12 view .LVU109
 542 0228 2490     		str	r0, [sp, #144]
 543 022a 2591     		str	r1, [sp, #148]
 239:Core/Src/stm32f0xx_it.c **** 
 544              		.loc 1 239 107 view .LVU110
 545 022c 209C     		ldr	r4, [sp, #128]
 546 022e 219D     		ldr	r5, [sp, #132]
 239:Core/Src/stm32f0xx_it.c **** 
 547              		.loc 1 239 119 view .LVU111
 548 0230 1A98     		ldr	r0, [sp, #104]
 549 0232 1B99     		ldr	r1, [sp, #108]
 239:Core/Src/stm32f0xx_it.c **** 
 550              		.loc 1 239 121 view .LVU112
 551 0234 3200     		movs	r2, r6
 552 0236 3B00     		movs	r3, r7
 553 0238 FFF7FEFF 		bl	__aeabi_dmul
 554              	.LVL34:
 239:Core/Src/stm32f0xx_it.c **** 
 555              		.loc 1 239 130 view .LVU113
 556 023c 0A9A     		ldr	r2, [sp, #40]
 557 023e 0B9B     		ldr	r3, [sp, #44]
 558 0240 FFF7FEFF 		bl	__aeabi_ddiv
 559              	.LVL35:
 560 0244 0200     		movs	r2, r0
 561 0246 0B00     		movs	r3, r1
 239:Core/Src/stm32f0xx_it.c **** 
 562              		.loc 1 239 110 view .LVU114
 563 0248 2000     		movs	r0, r4
 564 024a 2900     		movs	r1, r5
 565 024c FFF7FEFF 		bl	__aeabi_dsub
 566              	.LVL36:
 239:Core/Src/stm32f0xx_it.c **** 
 567              		.loc 1 239 12 view .LVU115
 568 0250 2690     		str	r0, [sp, #152]
 569 0252 2791     		str	r1, [sp, #156]
 241:Core/Src/stm32f0xx_it.c **** 
 570              		.loc 1 241 5 is_stmt 1 view .LVU116
 241:Core/Src/stm32f0xx_it.c **** 
 571              		.loc 1 241 21 is_stmt 0 view .LVU117
 572 0254 22A9     		add	r1, sp, #136
 573 0256 0800     		movs	r0, r1
 574 0258 FFF7FEFF 		bl	Vector_Scalar_Mul
 575              	.LVL37:
 576 025c 0600     		movs	r6, r0
 577              	.LVL38:
 241:Core/Src/stm32f0xx_it.c **** 
 578              		.loc 1 241 21 view .LVU118
 579 025e 0F00     		movs	r7, r1
 580              	.LVL39:
 243:Core/Src/stm32f0xx_it.c **** 
 581              		.loc 1 243 5 is_stmt 1 view .LVU119
 243:Core/Src/stm32f0xx_it.c **** 
 582              		.loc 1 243 24 is_stmt 0 view .LVU120
 583 0260 4346     		mov	r3, r8
 584 0262 1C69     		ldr	r4, [r3, #16]
 585 0264 5D69     		ldr	r5, [r3, #20]
ARM GAS  /tmp/ccMsiaRR.s 			page 31


 243:Core/Src/stm32f0xx_it.c **** 
 586              		.loc 1 243 27 view .LVU121
 587 0266 2000     		movs	r0, r4
 588 0268 2900     		movs	r1, r5
 589 026a FFF7FEFF 		bl	__aeabi_d2iz
 590              	.LVL40:
 591 026e C317     		asrs	r3, r0, #31
 592 0270 C018     		adds	r0, r0, r3
 593 0272 5840     		eors	r0, r3
 243:Core/Src/stm32f0xx_it.c **** 
 594              		.loc 1 243 26 view .LVU122
 595 0274 FFF7FEFF 		bl	__aeabi_i2d
 596              	.LVL41:
 597 0278 0200     		movs	r2, r0
 598 027a 0B00     		movs	r3, r1
 599 027c 2000     		movs	r0, r4
 600 027e 2900     		movs	r1, r5
 601 0280 FFF7FEFF 		bl	__aeabi_ddiv
 602              	.LVL42:
 603 0284 0400     		movs	r4, r0
 604 0286 0D00     		movs	r5, r1
 243:Core/Src/stm32f0xx_it.c **** 
 605              		.loc 1 243 41 view .LVU123
 606 0288 3000     		movs	r0, r6
 607 028a 3900     		movs	r1, r7
 608 028c FFF7FEFF 		bl	sqrt
 609              	.LVL43:
 610 0290 FFF7FEFF 		bl	acos
 611              	.LVL44:
 612 0294 0200     		movs	r2, r0
 613 0296 0B00     		movs	r3, r1
 243:Core/Src/stm32f0xx_it.c **** 
 614              		.loc 1 243 16 view .LVU124
 615 0298 2000     		movs	r0, r4
 616 029a 2900     		movs	r1, r5
 617 029c FFF7FEFF 		bl	__aeabi_dmul
 618              	.LVL45:
 246:Core/Src/stm32f0xx_it.c **** 
 619              		.loc 1 246 5 is_stmt 1 view .LVU125
 620 02a0 1F4A     		ldr	r2, .L24+48
 621 02a2 204B     		ldr	r3, .L24+52
 622 02a4 0290     		str	r0, [sp, #8]
 623 02a6 0391     		str	r1, [sp, #12]
 624 02a8 0092     		str	r2, [sp]
 625 02aa 0193     		str	r3, [sp, #4]
 626 02ac 1E48     		ldr	r0, .L24+56
 627              	.LVL46:
 246:Core/Src/stm32f0xx_it.c **** 
 628              		.loc 1 246 5 is_stmt 0 view .LVU126
 629 02ae FFF7FEFF 		bl	set_3_servo
 630              	.LVL47:
 248:Core/Src/stm32f0xx_it.c **** 		{
 631              		.loc 1 248 5 is_stmt 1 view .LVU127
 248:Core/Src/stm32f0xx_it.c **** 		{
 632              		.loc 1 248 7 is_stmt 0 view .LVU128
 633 02b2 0022     		movs	r2, #0
 634 02b4 0023     		movs	r3, #0
ARM GAS  /tmp/ccMsiaRR.s 			page 32


 635 02b6 0C98     		ldr	r0, [sp, #48]
 636 02b8 0D99     		ldr	r1, [sp, #52]
 637 02ba FFF7FEFF 		bl	__aeabi_dcmpgt
 638              	.LVL48:
 639 02be 0028     		cmp	r0, #0
 640 02c0 08D0     		beq	.L21
 250:Core/Src/stm32f0xx_it.c **** 		}
 641              		.loc 1 250 4 is_stmt 1 view .LVU129
 250:Core/Src/stm32f0xx_it.c **** 		}
 642              		.loc 1 250 13 is_stmt 0 view .LVU130
 643 02c2 8023     		movs	r3, #128
 644 02c4 5B00     		lsls	r3, r3, #1
 645 02c6 5246     		mov	r2, r10
 646 02c8 1A43     		orrs	r2, r3
 647 02ca 9246     		mov	r10, r2
 648              	.LVL49:
 649              	.L16:
 256:Core/Src/stm32f0xx_it.c ****   }
 650              		.loc 1 256 5 is_stmt 1 view .LVU131
 651              	.LBB14:
 652              	.LBI14:
 770:Drivers/STM32F0xx_HAL_Driver/Inc/stm32f0xx_ll_gpio.h **** {
 653              		.loc 2 770 22 view .LVU132
 654              	.LBB15:
 772:Drivers/STM32F0xx_HAL_Driver/Inc/stm32f0xx_ll_gpio.h **** }
 655              		.loc 2 772 3 view .LVU133
 656 02cc 0E4B     		ldr	r3, .L24+24
 657 02ce 5246     		mov	r2, r10
 658 02d0 5A61     		str	r2, [r3, #20]
 659              	.LVL50:
 772:Drivers/STM32F0xx_HAL_Driver/Inc/stm32f0xx_ll_gpio.h **** }
 660              		.loc 2 772 3 is_stmt 0 view .LVU134
 661              	.LBE15:
 662              	.LBE14:
 663              	.LBE11:
 664 02d2 C0E6     		b	.L18
 665              	.LVL51:
 666              	.L21:
 667              	.LBB16:
 252:Core/Src/stm32f0xx_it.c **** 		{
 668              		.loc 1 252 8 is_stmt 1 view .LVU135
 252:Core/Src/stm32f0xx_it.c **** 		{
 669              		.loc 1 252 11 is_stmt 0 view .LVU136
 670 02d4 0022     		movs	r2, #0
 671 02d6 0023     		movs	r3, #0
 672 02d8 0C98     		ldr	r0, [sp, #48]
 673 02da 0D99     		ldr	r1, [sp, #52]
 674 02dc FFF7FEFF 		bl	__aeabi_dcmplt
 675              	.LVL52:
 676 02e0 0028     		cmp	r0, #0
 677 02e2 F3D0     		beq	.L16
 254:Core/Src/stm32f0xx_it.c **** 		}
 678              		.loc 1 254 4 is_stmt 1 view .LVU137
 254:Core/Src/stm32f0xx_it.c **** 		}
 679              		.loc 1 254 13 is_stmt 0 view .LVU138
 680 02e4 8023     		movs	r3, #128
 681 02e6 9B00     		lsls	r3, r3, #2
ARM GAS  /tmp/ccMsiaRR.s 			page 33


 682 02e8 5246     		mov	r2, r10
 683 02ea 1A43     		orrs	r2, r3
 684 02ec 9246     		mov	r10, r2
 685              	.LVL53:
 254:Core/Src/stm32f0xx_it.c **** 		}
 686              		.loc 1 254 13 view .LVU139
 687 02ee EDE7     		b	.L16
 688              	.L25:
 689              		.align	2
 690              	.L24:
 691 02f0 00000000 		.word	button_status
 692 02f4 00000000 		.word	button_delay_counter
 693 02f8 00000000 		.word	.LANCHOR0
 694 02fc 00000000 		.word	htim1
 695 0300 00000000 		.word	hi2c1
 696 0304 0094C140 		.word	1086428160
 697 0308 00080048 		.word	1207961600
 698 030c FFFCFFFF 		.word	-769
 699 0310 7B14AE47 		.word	1202590843
 700 0314 E17A743F 		.word	1064598241
 701 0318 00000000 		.word	.LANCHOR1
 702 031c 00000000 		.word	.LANCHOR2
 703 0320 1F85EB51 		.word	1374389535
 704 0324 B81EF93F 		.word	1073290936
 705 0328 00000000 		.word	htim2
 706              	.LBE16:
 707              		.cfi_endproc
 708              	.LFE251:
 710              		.section	.text.EXTI2_3_IRQHandler,"ax",%progbits
 711              		.align	1
 712              		.global	EXTI2_3_IRQHandler
 713              		.syntax unified
 714              		.code	16
 715              		.thumb_func
 717              	EXTI2_3_IRQHandler:
 718              	.LFB252:
 270:Core/Src/stm32f0xx_it.c **** 
 271:Core/Src/stm32f0xx_it.c **** /******************************************************************************/
 272:Core/Src/stm32f0xx_it.c **** /* STM32F0xx Peripheral Interrupt Handlers                                    */
 273:Core/Src/stm32f0xx_it.c **** /* Add here the Interrupt Handlers for the used peripherals.                  */
 274:Core/Src/stm32f0xx_it.c **** /* For the available peripheral interrupt handler names,                      */
 275:Core/Src/stm32f0xx_it.c **** /* please refer to the startup file (startup_stm32f0xx.s).                    */
 276:Core/Src/stm32f0xx_it.c **** /******************************************************************************/
 277:Core/Src/stm32f0xx_it.c **** 
 278:Core/Src/stm32f0xx_it.c **** /**
 279:Core/Src/stm32f0xx_it.c ****   * @brief This function handles EXTI line 2 and 3 interrupts.
 280:Core/Src/stm32f0xx_it.c ****   */
 281:Core/Src/stm32f0xx_it.c **** void EXTI2_3_IRQHandler(void)
 282:Core/Src/stm32f0xx_it.c **** {
 719              		.loc 1 282 1 is_stmt 1 view -0
 720              		.cfi_startproc
 721              		@ args = 0, pretend = 0, frame = 0
 722              		@ frame_needed = 0, uses_anonymous_args = 0
 723 0000 10B5     		push	{r4, lr}
 724              	.LCFI3:
 725              		.cfi_def_cfa_offset 8
 726              		.cfi_offset 4, -8
ARM GAS  /tmp/ccMsiaRR.s 			page 34


 727              		.cfi_offset 14, -4
 283:Core/Src/stm32f0xx_it.c ****   /* USER CODE BEGIN EXTI2_3_IRQn 0 */
 284:Core/Src/stm32f0xx_it.c ****   if(!(button_status & BUTTON_PUSH))
 728              		.loc 1 284 3 view .LVU141
 729              		.loc 1 284 22 is_stmt 0 view .LVU142
 730 0002 054B     		ldr	r3, .L28
 731 0004 1B78     		ldrb	r3, [r3]
 732              		.loc 1 284 5 view .LVU143
 733 0006 DB07     		lsls	r3, r3, #31
 734 0008 02D4     		bmi	.L27
 285:Core/Src/stm32f0xx_it.c ****     {
 286:Core/Src/stm32f0xx_it.c ****         button_status = BUTTON_PUSH;
 735              		.loc 1 286 9 is_stmt 1 view .LVU144
 736              		.loc 1 286 23 is_stmt 0 view .LVU145
 737 000a 034B     		ldr	r3, .L28
 738 000c 0122     		movs	r2, #1
 739 000e 1A70     		strb	r2, [r3]
 740              	.L27:
 287:Core/Src/stm32f0xx_it.c ****     } 
 288:Core/Src/stm32f0xx_it.c ****   /* USER CODE END EXTI2_3_IRQn 0 */
 289:Core/Src/stm32f0xx_it.c ****   HAL_GPIO_EXTI_IRQHandler(GPIO_PIN_3);
 741              		.loc 1 289 3 is_stmt 1 view .LVU146
 742 0010 0820     		movs	r0, #8
 743 0012 FFF7FEFF 		bl	HAL_GPIO_EXTI_IRQHandler
 744              	.LVL54:
 290:Core/Src/stm32f0xx_it.c ****   /* USER CODE BEGIN EXTI2_3_IRQn 1 */
 291:Core/Src/stm32f0xx_it.c **** 
 292:Core/Src/stm32f0xx_it.c ****   /* USER CODE END EXTI2_3_IRQn 1 */
 293:Core/Src/stm32f0xx_it.c **** }
 745              		.loc 1 293 1 is_stmt 0 view .LVU147
 746              		@ sp needed
 747 0016 10BD     		pop	{r4, pc}
 748              	.L29:
 749              		.align	2
 750              	.L28:
 751 0018 00000000 		.word	button_status
 752              		.cfi_endproc
 753              	.LFE252:
 755              		.global	mode
 756              		.global	right
 757              		.global	front
 758              		.section	.data.front,"aw"
 759              		.align	3
 760              		.set	.LANCHOR1,. + 0
 763              	front:
 764 0000 00000000 		.word	0
 765 0004 0000F03F 		.word	1072693248
 766 0008 00000000 		.word	0
 767 000c 00000000 		.word	0
 768 0010 00000000 		.word	0
 769 0014 00000000 		.word	0
 770              		.section	.data.mode,"aw"
 771              		.set	.LANCHOR0,. + 0
 774              	mode:
 775 0000 01       		.byte	1
 776              		.section	.data.right,"aw"
 777              		.align	3
ARM GAS  /tmp/ccMsiaRR.s 			page 35


 778              		.set	.LANCHOR2,. + 0
 781              	right:
 782 0000 00000000 		.word	0
 783 0004 00000000 		.word	0
 784 0008 00000000 		.word	0
 785 000c 0000F03F 		.word	1072693248
 786 0010 00000000 		.word	0
 787 0014 00000000 		.word	0
 788              		.text
 789              	.Letext0:
 790              		.file 3 "/usr/share/gcc-arm-none-eabi-10.3-2021.10/arm-none-eabi/include/machine/_default_types.h"
 791              		.file 4 "/usr/share/gcc-arm-none-eabi-10.3-2021.10/arm-none-eabi/include/sys/_stdint.h"
 792              		.file 5 "Drivers/CMSIS/Device/ST/STM32F0xx/Include/stm32f051x8.h"
 793              		.file 6 "Drivers/STM32F0xx_HAL_Driver/Inc/stm32f0xx_hal_def.h"
 794              		.file 7 "Drivers/STM32F0xx_HAL_Driver/Inc/stm32f0xx_hal_dma.h"
 795              		.file 8 "Drivers/STM32F0xx_HAL_Driver/Inc/stm32f0xx_hal_i2c.h"
 796              		.file 9 "Drivers/STM32F0xx_HAL_Driver/Inc/stm32f0xx_hal_tim.h"
 797              		.file 10 "/usr/share/gcc-arm-none-eabi-10.3-2021.10/arm-none-eabi/include/sys/types.h"
 798              		.file 11 "Drivers/quaternion_lib/Inc/quaternion_lib.h"
 799              		.file 12 "Drivers/STM32F0xx_HAL_Driver/Inc/stm32f0xx_hal_gpio.h"
 800              		.file 13 "Drivers/Giro/Inc/giro_driver.h"
 801              		.file 14 "Drivers/Squeaker/Inc/squeaker.h"
 802              		.file 15 "/usr/share/gcc-arm-none-eabi-10.3-2021.10/arm-none-eabi/include/math.h"
 803              		.file 16 "Drivers/Servo/Inc/servo.h"
 804              		.file 17 "Drivers/STM32F0xx_HAL_Driver/Inc/stm32f0xx_hal.h"
 805              		.file 18 "<built-in>"
ARM GAS  /tmp/ccMsiaRR.s 			page 36


DEFINED SYMBOLS
                            *ABS*:0000000000000000 stm32f0xx_it.c
     /tmp/ccMsiaRR.s:18     .text.NMI_Handler:0000000000000000 $t
     /tmp/ccMsiaRR.s:24     .text.NMI_Handler:0000000000000000 NMI_Handler
     /tmp/ccMsiaRR.s:42     .text.HardFault_Handler:0000000000000000 $t
     /tmp/ccMsiaRR.s:48     .text.HardFault_Handler:0000000000000000 HardFault_Handler
     /tmp/ccMsiaRR.s:65     .text.SVC_Handler:0000000000000000 $t
     /tmp/ccMsiaRR.s:71     .text.SVC_Handler:0000000000000000 SVC_Handler
     /tmp/ccMsiaRR.s:85     .text.PendSV_Handler:0000000000000000 $t
     /tmp/ccMsiaRR.s:91     .text.PendSV_Handler:0000000000000000 PendSV_Handler
     /tmp/ccMsiaRR.s:112    .text.SysTick_Handler:0000000000000000 $t
     /tmp/ccMsiaRR.s:118    .text.SysTick_Handler:0000000000000000 SysTick_Handler
     /tmp/ccMsiaRR.s:691    .text.SysTick_Handler:00000000000002f0 $d
     /tmp/ccMsiaRR.s:711    .text.EXTI2_3_IRQHandler:0000000000000000 $t
     /tmp/ccMsiaRR.s:717    .text.EXTI2_3_IRQHandler:0000000000000000 EXTI2_3_IRQHandler
     /tmp/ccMsiaRR.s:751    .text.EXTI2_3_IRQHandler:0000000000000018 $d
     /tmp/ccMsiaRR.s:774    .data.mode:0000000000000000 mode
     /tmp/ccMsiaRR.s:781    .data.right:0000000000000000 right
     /tmp/ccMsiaRR.s:763    .data.front:0000000000000000 front
     /tmp/ccMsiaRR.s:759    .data.front:0000000000000000 $d
     /tmp/ccMsiaRR.s:777    .data.right:0000000000000000 $d

UNDEFINED SYMBOLS
__aeabi_dmul
__aeabi_ddiv
__aeabi_dsub
__aeabi_d2iz
__aeabi_i2d
__aeabi_dcmpgt
__aeabi_dcmplt
off_squeaker
HAL_IncTick
giro_read_angls
squeaker_set_frik
memcpy
Rotate
asin
Vector_Scalar_Mul
sqrt
acos
set_3_servo
button_status
button_delay_counter
htim1
hi2c1
htim2
HAL_GPIO_EXTI_IRQHandler
