ARM GAS  /tmp/cckBbZkS.s 			page 1


   1              		.cpu cortex-m0
   2              		.arch armv6s-m
   3              		.fpu softvfp
   4              		.eabi_attribute 20, 1
   5              		.eabi_attribute 21, 1
   6              		.eabi_attribute 23, 3
   7              		.eabi_attribute 24, 1
   8              		.eabi_attribute 25, 1
   9              		.eabi_attribute 26, 1
  10              		.eabi_attribute 30, 1
  11              		.eabi_attribute 34, 0
  12              		.eabi_attribute 18, 4
  13              		.file	"system_handlers.c"
  14              		.text
  15              	.Ltext0:
  16              		.cfi_sections	.debug_frame
  17              		.section	.text.NMI_Handler,"ax",%progbits
  18              		.align	1
  19              		.global	NMI_Handler
  20              		.syntax unified
  21              		.code	16
  22              		.thumb_func
  24              	NMI_Handler:
  25              	.LFB0:
  26              		.file 1 "Drivers/Oled/Src/system_handlers.c"
   1:Drivers/Oled/Src/system_handlers.c **** /**
   2:Drivers/Oled/Src/system_handlers.c ****   * @brief  This function handles NMI exception.
   3:Drivers/Oled/Src/system_handlers.c ****   * @param  None
   4:Drivers/Oled/Src/system_handlers.c ****   * @retval None
   5:Drivers/Oled/Src/system_handlers.c ****   */
   6:Drivers/Oled/Src/system_handlers.c **** void NMI_Handler(void)
   7:Drivers/Oled/Src/system_handlers.c **** {
  27              		.loc 1 7 1 view -0
  28              		.cfi_startproc
  29              		@ args = 0, pretend = 0, frame = 0
  30              		@ frame_needed = 0, uses_anonymous_args = 0
  31              		@ link register save eliminated.
   8:Drivers/Oled/Src/system_handlers.c **** }
  32              		.loc 1 8 1 view .LVU1
  33              		@ sp needed
  34 0000 7047     		bx	lr
  35              		.cfi_endproc
  36              	.LFE0:
  38              		.section	.text.HardFault_Handler,"ax",%progbits
  39              		.align	1
  40              		.global	HardFault_Handler
  41              		.syntax unified
  42              		.code	16
  43              		.thumb_func
  45              	HardFault_Handler:
  46              	.LFB1:
   9:Drivers/Oled/Src/system_handlers.c **** 
  10:Drivers/Oled/Src/system_handlers.c **** /**
  11:Drivers/Oled/Src/system_handlers.c ****   * @brief  This function handles Hard Fault exception.
  12:Drivers/Oled/Src/system_handlers.c ****   * @param  None
  13:Drivers/Oled/Src/system_handlers.c ****   * @retval None
  14:Drivers/Oled/Src/system_handlers.c ****   */
ARM GAS  /tmp/cckBbZkS.s 			page 2


  15:Drivers/Oled/Src/system_handlers.c **** void HardFault_Handler(void)
  16:Drivers/Oled/Src/system_handlers.c **** {
  47              		.loc 1 16 1 view -0
  48              		.cfi_startproc
  49              		@ Volatile: function does not return.
  50              		@ args = 0, pretend = 0, frame = 0
  51              		@ frame_needed = 0, uses_anonymous_args = 0
  52              		@ link register save eliminated.
  53              	.L3:
  17:Drivers/Oled/Src/system_handlers.c ****     while (1);
  54              		.loc 1 17 5 discriminator 1 view .LVU3
  55              		.loc 1 17 14 discriminator 1 view .LVU4
  56              		.loc 1 17 11 discriminator 1 view .LVU5
  57 0000 FEE7     		b	.L3
  58              		.cfi_endproc
  59              	.LFE1:
  61              		.section	.text.SVC_Handler,"ax",%progbits
  62              		.align	1
  63              		.global	SVC_Handler
  64              		.syntax unified
  65              		.code	16
  66              		.thumb_func
  68              	SVC_Handler:
  69              	.LFB2:
  18:Drivers/Oled/Src/system_handlers.c **** }
  19:Drivers/Oled/Src/system_handlers.c **** 
  20:Drivers/Oled/Src/system_handlers.c **** /**
  21:Drivers/Oled/Src/system_handlers.c ****   * @brief  This function handles SVCall exception.
  22:Drivers/Oled/Src/system_handlers.c ****   * @param  None
  23:Drivers/Oled/Src/system_handlers.c ****   * @retval None
  24:Drivers/Oled/Src/system_handlers.c ****   */
  25:Drivers/Oled/Src/system_handlers.c **** void SVC_Handler(void)
  26:Drivers/Oled/Src/system_handlers.c **** {
  70              		.loc 1 26 1 view -0
  71              		.cfi_startproc
  72              		@ args = 0, pretend = 0, frame = 0
  73              		@ frame_needed = 0, uses_anonymous_args = 0
  74              		@ link register save eliminated.
  27:Drivers/Oled/Src/system_handlers.c **** }
  75              		.loc 1 27 1 view .LVU7
  76              		@ sp needed
  77 0000 7047     		bx	lr
  78              		.cfi_endproc
  79              	.LFE2:
  81              		.section	.text.PendSV_Handler,"ax",%progbits
  82              		.align	1
  83              		.global	PendSV_Handler
  84              		.syntax unified
  85              		.code	16
  86              		.thumb_func
  88              	PendSV_Handler:
  89              	.LFB3:
  28:Drivers/Oled/Src/system_handlers.c **** 
  29:Drivers/Oled/Src/system_handlers.c **** /**
  30:Drivers/Oled/Src/system_handlers.c ****   * @brief  This function handles PendSVC exception.
  31:Drivers/Oled/Src/system_handlers.c ****   * @param  None
  32:Drivers/Oled/Src/system_handlers.c ****   * @retval None
ARM GAS  /tmp/cckBbZkS.s 			page 3


  33:Drivers/Oled/Src/system_handlers.c ****   */
  34:Drivers/Oled/Src/system_handlers.c **** void PendSV_Handler(void)
  35:Drivers/Oled/Src/system_handlers.c **** {
  90              		.loc 1 35 1 view -0
  91              		.cfi_startproc
  92              		@ args = 0, pretend = 0, frame = 0
  93              		@ frame_needed = 0, uses_anonymous_args = 0
  94              		@ link register save eliminated.
  36:Drivers/Oled/Src/system_handlers.c **** }
  95              		.loc 1 36 1 view .LVU9
  96              		@ sp needed
  97 0000 7047     		bx	lr
  98              		.cfi_endproc
  99              	.LFE3:
 101              		.text
 102              	.Letext0:
ARM GAS  /tmp/cckBbZkS.s 			page 4

